
C:\tien\PROJEKTY\procesory\STM\T104_V100a_GASTOP\control.o:     file format elf32-littlearm
C:\tien\PROJEKTY\procesory\STM\T104_V100a_GASTOP\control.o

Disassembly of section .text.Position_Check:

00000000 <Position_Check>:
Position_Check():
C:\tien\PROJEKTY\procesory\STM\T104_V100a_GASTOP\sources/control.c:834
* Input          : None
* Output         : None
* Return         : TRUE - position correct / FALSE - position incorrect
*******************************************************************************/
uint8_t Position_Check ( uint16_t Histeresis )
{
   0:	b510      	push	{r4, lr}
C:\tien\PROJEKTY\procesory\STM\T104_V100a_GASTOP\sources/control.c:836
    
    if ( Service_Variables.Serv_Vars.KOlowrotek == 1 )
   2:	4b59      	ldr	r3, [pc, #356]	(168 <Position_Check+0x168>)
   4:	4c59      	ldr	r4, [pc, #356]	(16c <Position_Check+0x16c>)
   6:	f893 c016 	ldrb.w	ip, [r3, #22]
   a:	4959      	ldr	r1, [pc, #356]	(170 <Position_Check+0x170>)
   c:	f1bc 0f01 	cmp.w	ip, #1	; 0x1
  10:	d156      	bne.n	c0 <Position_Check+0xc0>
C:\tien\PROJEKTY\procesory\STM\T104_V100a_GASTOP\sources/control.c:838
    {
        if ( (Arm_Pos >= (Arms_Stop_Pos.Min_Pos1 - Histeresis)) && (Arm_Pos <= (Arms_Stop_Pos.Max_Pos1 + Histeresis)) )
  12:	8822      	ldrh	r2, [r4, #0]
  14:	880b      	ldrh	r3, [r1, #0]
  16:	b292      	uxth	r2, r2
  18:	b29b      	uxth	r3, r3
  1a:	1a1b      	subs	r3, r3, r0
  1c:	429a      	cmp	r2, r3
  1e:	db13      	blt.n	48 <Position_Check+0x48>
  20:	8822      	ldrh	r2, [r4, #0]
  22:	884b      	ldrh	r3, [r1, #2]
  24:	b292      	uxth	r2, r2
  26:	b29b      	uxth	r3, r3
  28:	18c3      	adds	r3, r0, r3
  2a:	429a      	cmp	r2, r3
  2c:	dc0c      	bgt.n	48 <Position_Check+0x48>
C:\tien\PROJEKTY\procesory\STM\T104_V100a_GASTOP\sources/control.c:840
        {
            Min_Pos_Tmp = Arms_Stop_Pos.Min_Pos2;
  2e:	888b      	ldrh	r3, [r1, #4]
  30:	4a50      	ldr	r2, [pc, #320]	(174 <Position_Check+0x174>)
  32:	b29b      	uxth	r3, r3
  34:	8013      	strh	r3, [r2, #0]
C:\tien\PROJEKTY\procesory\STM\T104_V100a_GASTOP\sources/control.c:841
            Max_Pos_Tmp = Arms_Stop_Pos.Max_Pos4;
  36:	89cb      	ldrh	r3, [r1, #14]
  38:	4a4f      	ldr	r2, [pc, #316]	(178 <Position_Check+0x178>)
  3a:	b29b      	uxth	r3, r3
  3c:	8013      	strh	r3, [r2, #0]
C:\tien\PROJEKTY\procesory\STM\T104_V100a_GASTOP\sources/control.c:842
            Encoder_Angle = Angle_1;
  3e:	4b4f      	ldr	r3, [pc, #316]	(17c <Position_Check+0x17c>)
  40:	2200      	movs	r2, #0
  42:	701a      	strb	r2, [r3, #0]
  44:	4660      	mov	r0, ip
  46:	e08e      	b.n	166 <Position_Check+0x166>
C:\tien\PROJEKTY\procesory\STM\T104_V100a_GASTOP\sources/control.c:845
            return TRUE;
        }
        else if ( (Arm_Pos >= (Arms_Stop_Pos.Min_Pos2 - Histeresis)) && (Arm_Pos <= (Arms_Stop_Pos.Max_Pos2 + Histeresis)) )
  48:	4c48      	ldr	r4, [pc, #288]	(16c <Position_Check+0x16c>)
  4a:	4949      	ldr	r1, [pc, #292]	(170 <Position_Check+0x170>)
  4c:	8822      	ldrh	r2, [r4, #0]
  4e:	888b      	ldrh	r3, [r1, #4]
  50:	b292      	uxth	r2, r2
  52:	b29b      	uxth	r3, r3
  54:	1a1b      	subs	r3, r3, r0
  56:	429a      	cmp	r2, r3
  58:	db06      	blt.n	68 <Position_Check+0x68>
  5a:	8822      	ldrh	r2, [r4, #0]
  5c:	88cb      	ldrh	r3, [r1, #6]
  5e:	b292      	uxth	r2, r2
  60:	b29b      	uxth	r3, r3
  62:	18c3      	adds	r3, r0, r3
  64:	429a      	cmp	r2, r3
  66:	dd56      	ble.n	116 <Position_Check+0x116>
C:\tien\PROJEKTY\procesory\STM\T104_V100a_GASTOP\sources/control.c:852
            Min_Pos_Tmp = Arms_Stop_Pos.Min_Pos3;
            Max_Pos_Tmp = Arms_Stop_Pos.Max_Pos1;
            Encoder_Angle = Angle_2;
            return TRUE;
        }
        else if ( (Arm_Pos >= (Arms_Stop_Pos.Min_Pos3 - Histeresis)) && (Arm_Pos <= (Arms_Stop_Pos.Max_Pos3 + Histeresis)) )
  68:	4c40      	ldr	r4, [pc, #256]	(16c <Position_Check+0x16c>)
  6a:	4941      	ldr	r1, [pc, #260]	(170 <Position_Check+0x170>)
  6c:	8822      	ldrh	r2, [r4, #0]
  6e:	890b      	ldrh	r3, [r1, #8]
  70:	b292      	uxth	r2, r2
  72:	b29b      	uxth	r3, r3
  74:	1a1b      	subs	r3, r3, r0
  76:	429a      	cmp	r2, r3
  78:	db08      	blt.n	8c <Position_Check+0x8c>
  7a:	8822      	ldrh	r2, [r4, #0]
  7c:	894b      	ldrh	r3, [r1, #10]
  7e:	b292      	uxth	r2, r2
  80:	b29b      	uxth	r3, r3
  82:	18c3      	adds	r3, r0, r3
  84:	429a      	cmp	r2, r3
  86:	dc01      	bgt.n	8c <Position_Check+0x8c>
C:\tien\PROJEKTY\procesory\STM\T104_V100a_GASTOP\sources/control.c:854
        {
            Min_Pos_Tmp = Arms_Stop_Pos.Min_Pos4;
  88:	898b      	ldrh	r3, [r1, #12]
  8a:	e062      	b.n	152 <Position_Check+0x152>
C:\tien\PROJEKTY\procesory\STM\T104_V100a_GASTOP\sources/control.c:859
            Max_Pos_Tmp = Arms_Stop_Pos.Max_Pos2;
            Encoder_Angle = Angle_3;
            return TRUE;
        }
        else if ( (Arm_Pos >= (Arms_Stop_Pos.Min_Pos4 - Histeresis)) && (Arm_Pos <= (Arms_Stop_Pos.Max_Pos4 + Histeresis)) )
  8c:	4c37      	ldr	r4, [pc, #220]	(16c <Position_Check+0x16c>)
  8e:	4938      	ldr	r1, [pc, #224]	(170 <Position_Check+0x170>)
  90:	8822      	ldrh	r2, [r4, #0]
  92:	898b      	ldrh	r3, [r1, #12]
  94:	b292      	uxth	r2, r2
  96:	b29b      	uxth	r3, r3
  98:	1a1b      	subs	r3, r3, r0
  9a:	429a      	cmp	r2, r3
  9c:	db62      	blt.n	164 <Position_Check+0x164>
  9e:	8822      	ldrh	r2, [r4, #0]
  a0:	89cb      	ldrh	r3, [r1, #14]
  a2:	b292      	uxth	r2, r2
  a4:	b29b      	uxth	r3, r3
  a6:	18c3      	adds	r3, r0, r3
  a8:	429a      	cmp	r2, r3
  aa:	dc5b      	bgt.n	164 <Position_Check+0x164>
C:\tien\PROJEKTY\procesory\STM\T104_V100a_GASTOP\sources/control.c:861
        {
            Min_Pos_Tmp = Arms_Stop_Pos.Min_Pos1;
  ac:	880b      	ldrh	r3, [r1, #0]
  ae:	4a31      	ldr	r2, [pc, #196]	(174 <Position_Check+0x174>)
  b0:	b29b      	uxth	r3, r3
  b2:	8013      	strh	r3, [r2, #0]
C:\tien\PROJEKTY\procesory\STM\T104_V100a_GASTOP\sources/control.c:862
            Max_Pos_Tmp = Arms_Stop_Pos.Max_Pos3;	
  b4:	894b      	ldrh	r3, [r1, #10]
  b6:	4a30      	ldr	r2, [pc, #192]	(178 <Position_Check+0x178>)
  b8:	b29b      	uxth	r3, r3
  ba:	8013      	strh	r3, [r2, #0]
C:\tien\PROJEKTY\procesory\STM\T104_V100a_GASTOP\sources/control.c:863
            Encoder_Angle = Angle_4;
  bc:	2203      	movs	r2, #3
  be:	e016      	b.n	ee <Position_Check+0xee>
C:\tien\PROJEKTY\procesory\STM\T104_V100a_GASTOP\sources/control.c:873
            return FALSE;
        }
    }
    else
    {
        if ( (Arm_Pos >= (Arms_Stop_Pos.Min_Pos1 - Histeresis)) && (Arm_Pos <= (Arms_Stop_Pos.Max_Pos1 + Histeresis)) )
  c0:	8822      	ldrh	r2, [r4, #0]
  c2:	880b      	ldrh	r3, [r1, #0]
  c4:	b292      	uxth	r2, r2
  c6:	b29b      	uxth	r3, r3
  c8:	1a1b      	subs	r3, r3, r0
  ca:	429a      	cmp	r2, r3
  cc:	db13      	blt.n	f6 <Position_Check+0xf6>
  ce:	8822      	ldrh	r2, [r4, #0]
  d0:	884b      	ldrh	r3, [r1, #2]
  d2:	b292      	uxth	r2, r2
  d4:	b29b      	uxth	r3, r3
  d6:	18c3      	adds	r3, r0, r3
  d8:	429a      	cmp	r2, r3
  da:	dc0c      	bgt.n	f6 <Position_Check+0xf6>
C:\tien\PROJEKTY\procesory\STM\T104_V100a_GASTOP\sources/control.c:875
        {
            Min_Pos_Tmp = Arms_Stop_Pos.Min_Pos2;
  dc:	888b      	ldrh	r3, [r1, #4]
  de:	4a25      	ldr	r2, [pc, #148]	(174 <Position_Check+0x174>)
  e0:	b29b      	uxth	r3, r3
  e2:	8013      	strh	r3, [r2, #0]
C:\tien\PROJEKTY\procesory\STM\T104_V100a_GASTOP\sources/control.c:876
            Max_Pos_Tmp = Arms_Stop_Pos.Max_Pos3;
  e4:	894b      	ldrh	r3, [r1, #10]
  e6:	4a24      	ldr	r2, [pc, #144]	(178 <Position_Check+0x178>)
  e8:	b29b      	uxth	r3, r3
  ea:	8013      	strh	r3, [r2, #0]
C:\tien\PROJEKTY\procesory\STM\T104_V100a_GASTOP\sources/control.c:877
            Encoder_Angle = Angle_1;
  ec:	2200      	movs	r2, #0
  ee:	4b23      	ldr	r3, [pc, #140]	(17c <Position_Check+0x17c>)
  f0:	2001      	movs	r0, #1
  f2:	701a      	strb	r2, [r3, #0]
  f4:	e037      	b.n	166 <Position_Check+0x166>
C:\tien\PROJEKTY\procesory\STM\T104_V100a_GASTOP\sources/control.c:880
            return TRUE;
        }
        else if ( (Arm_Pos >= (Arms_Stop_Pos.Min_Pos2 - Histeresis)) && (Arm_Pos <= (Arms_Stop_Pos.Max_Pos2 + Histeresis)) )
  f6:	4c1d      	ldr	r4, [pc, #116]	(16c <Position_Check+0x16c>)
  f8:	491d      	ldr	r1, [pc, #116]	(170 <Position_Check+0x170>)
  fa:	8822      	ldrh	r2, [r4, #0]
  fc:	888b      	ldrh	r3, [r1, #4]
  fe:	b292      	uxth	r2, r2
 100:	b29b      	uxth	r3, r3
 102:	1a1b      	subs	r3, r3, r0
 104:	429a      	cmp	r2, r3
 106:	db13      	blt.n	130 <Position_Check+0x130>
 108:	8822      	ldrh	r2, [r4, #0]
 10a:	88cb      	ldrh	r3, [r1, #6]
 10c:	b292      	uxth	r2, r2
 10e:	b29b      	uxth	r3, r3
 110:	18c3      	adds	r3, r0, r3
 112:	429a      	cmp	r2, r3
 114:	dc0c      	bgt.n	130 <Position_Check+0x130>
C:\tien\PROJEKTY\procesory\STM\T104_V100a_GASTOP\sources/control.c:882
        {
            Min_Pos_Tmp = Arms_Stop_Pos.Min_Pos3;
 116:	890b      	ldrh	r3, [r1, #8]
 118:	4a16      	ldr	r2, [pc, #88]	(174 <Position_Check+0x174>)
 11a:	b29b      	uxth	r3, r3
 11c:	8013      	strh	r3, [r2, #0]
C:\tien\PROJEKTY\procesory\STM\T104_V100a_GASTOP\sources/control.c:883
            Max_Pos_Tmp = Arms_Stop_Pos.Max_Pos1;
 11e:	884b      	ldrh	r3, [r1, #2]
 120:	4a15      	ldr	r2, [pc, #84]	(178 <Position_Check+0x178>)
 122:	b29b      	uxth	r3, r3
 124:	8013      	strh	r3, [r2, #0]
C:\tien\PROJEKTY\procesory\STM\T104_V100a_GASTOP\sources/control.c:884
            Encoder_Angle = Angle_2;
 126:	4b15      	ldr	r3, [pc, #84]	(17c <Position_Check+0x17c>)
 128:	2201      	movs	r2, #1
 12a:	701a      	strb	r2, [r3, #0]
 12c:	4610      	mov	r0, r2
 12e:	e01a      	b.n	166 <Position_Check+0x166>
C:\tien\PROJEKTY\procesory\STM\T104_V100a_GASTOP\sources/control.c:887
            return TRUE;
        }
        else if ( (Arm_Pos >= (Arms_Stop_Pos.Min_Pos3 - Histeresis)) && (Arm_Pos <= (Arms_Stop_Pos.Max_Pos3 + Histeresis)) )
 130:	4c0e      	ldr	r4, [pc, #56]	(16c <Position_Check+0x16c>)
 132:	490f      	ldr	r1, [pc, #60]	(170 <Position_Check+0x170>)
 134:	8822      	ldrh	r2, [r4, #0]
 136:	890b      	ldrh	r3, [r1, #8]
 138:	b292      	uxth	r2, r2
 13a:	b29b      	uxth	r3, r3
 13c:	1a1b      	subs	r3, r3, r0
 13e:	429a      	cmp	r2, r3
 140:	db10      	blt.n	164 <Position_Check+0x164>
 142:	8822      	ldrh	r2, [r4, #0]
 144:	894b      	ldrh	r3, [r1, #10]
 146:	b292      	uxth	r2, r2
 148:	b29b      	uxth	r3, r3
 14a:	18c3      	adds	r3, r0, r3
 14c:	429a      	cmp	r2, r3
 14e:	dc09      	bgt.n	164 <Position_Check+0x164>
C:\tien\PROJEKTY\procesory\STM\T104_V100a_GASTOP\sources/control.c:889
        {
            Min_Pos_Tmp = Arms_Stop_Pos.Min_Pos1;
 150:	880b      	ldrh	r3, [r1, #0]
 152:	4a08      	ldr	r2, [pc, #32]	(174 <Position_Check+0x174>)
 154:	b29b      	uxth	r3, r3
 156:	8013      	strh	r3, [r2, #0]
C:\tien\PROJEKTY\procesory\STM\T104_V100a_GASTOP\sources/control.c:890
            Max_Pos_Tmp = Arms_Stop_Pos.Max_Pos2;
 158:	88cb      	ldrh	r3, [r1, #6]
 15a:	4a07      	ldr	r2, [pc, #28]	(178 <Position_Check+0x178>)
 15c:	b29b      	uxth	r3, r3
 15e:	8013      	strh	r3, [r2, #0]
C:\tien\PROJEKTY\procesory\STM\T104_V100a_GASTOP\sources/control.c:891
            Encoder_Angle = Angle_3;
 160:	2202      	movs	r2, #2
 162:	e7c4      	b.n	ee <Position_Check+0xee>
C:\tien\PROJEKTY\procesory\STM\T104_V100a_GASTOP\sources/control.c:892
            return TRUE;
 164:	2000      	movs	r0, #0
C:\tien\PROJEKTY\procesory\STM\T104_V100a_GASTOP\sources/control.c:901
            return FALSE;
        }
    }
    
    Actual_Angle = Encoder_Angle;  
}
 166:	bd10      	pop	{r4, pc}
	...
Disassembly of section .text.Enc_Positioning_Stop:

00000000 <Enc_Positioning_Stop>:
Enc_Positioning_Stop():
C:\tien\PROJEKTY\procesory\STM\T104_V100a_GASTOP\sources/control.c:947
* Input          : None
* Output         : None
* Return         : None
*******************************************************************************/
static void Enc_Positioning_Stop ( void )
{
   0:	b510      	push	{r4, lr}
C:\tien\PROJEKTY\procesory\STM\T104_V100a_GASTOP\sources/control.c:948
	if ( Position_Check(Service_Variables.Serv_Vars.Serwis_003) == TRUE )
   2:	4b08      	ldr	r3, [pc, #32]	(24 <Enc_Positioning_Stop+0x24>)
   4:	8dd8      	ldrh	r0, [r3, #46]
   6:	f7ff fffe 	bl	0 <Enc_Positioning_Stop>
   a:	2801      	cmp	r0, #1
   c:	d108      	bne.n	20 <Enc_Positioning_Stop+0x20>
C:\tien\PROJEKTY\procesory\STM\T104_V100a_GASTOP\sources/control.c:950
	{
		Machine_State = Control_Variables[Machine_State].Motor_Enc_Ptr->Next[0];	
   e:	4806      	ldr	r0, [pc, #24]	(28 <Enc_Positioning_Stop+0x28>)
  10:	4a06      	ldr	r2, [pc, #24]	(2c <Enc_Positioning_Stop+0x2c>)
  12:	7803      	ldrb	r3, [r0, #0]
  14:	2114      	movs	r1, #20
  16:	fb01 2303 	mla	r3, r1, r3, r2
  1a:	68db      	ldr	r3, [r3, #12]
  1c:	791b      	ldrb	r3, [r3, #4]
  1e:	7003      	strb	r3, [r0, #0]
C:\tien\PROJEKTY\procesory\STM\T104_V100a_GASTOP\sources/control.c:952
	}
}
  20:	bd10      	pop	{r4, pc}
  22:	46c0      	nop			(mov r8, r8)
	...
Disassembly of section .text.Self_Test_Loop:

00000000 <Self_Test_Loop>:
Self_Test_Loop():
C:\tien\PROJEKTY\procesory\STM\T104_V100a_GASTOP\sources/control.c:2014
* Input          : None
* Output         : None
* Return         : None
*******************************************************************************/
static void Self_Test_Loop ( void )
{
   0:	b510      	push	{r4, lr}
C:\tien\PROJEKTY\procesory\STM\T104_V100a_GASTOP\sources/control.c:2015
    if ( Service_Variables.Serv_Vars.Sensor_Type == 0 )//ENKODER
   2:	4a1d      	ldr	r2, [pc, #116]	(78 <Self_Test_Loop+0x78>)
   4:	f892 306d 	ldrb.w	r3, [r2, #109]
   8:	b9fb      	cbnz	r3, 4a <Self_Test_Loop+0x4a>
C:\tien\PROJEKTY\procesory\STM\T104_V100a_GASTOP\sources/control.c:2017
    {
        if ( Position_Check(Service_Variables.Serv_Vars.Serwis_003) == TRUE )
   a:	8dd0      	ldrh	r0, [r2, #46]
   c:	f7ff fffe 	bl	0 <Self_Test_Loop>
  10:	2801      	cmp	r0, #1
  12:	d12f      	bne.n	74 <Self_Test_Loop+0x74>
C:\tien\PROJEKTY\procesory\STM\T104_V100a_GASTOP\sources/control.c:2019
        {
            if ( Encoder_Angle != Actual_Angle )
  14:	4b19      	ldr	r3, [pc, #100]	(7c <Self_Test_Loop+0x7c>)
  16:	781a      	ldrb	r2, [r3, #0]
  18:	4b19      	ldr	r3, [pc, #100]	(80 <Self_Test_Loop+0x80>)
  1a:	781b      	ldrb	r3, [r3, #0]
  1c:	429a      	cmp	r2, r3
  1e:	d029      	beq.n	74 <Self_Test_Loop+0x74>
C:\tien\PROJEKTY\procesory\STM\T104_V100a_GASTOP\sources/control.c:2021
            {
                if ( ++Test_Cntr == 5 )
  20:	4a18      	ldr	r2, [pc, #96]	(84 <Self_Test_Loop+0x84>)
  22:	7813      	ldrb	r3, [r2, #0]
  24:	3301      	adds	r3, #1
  26:	b2db      	uxtb	r3, r3
  28:	2b05      	cmp	r3, #5
  2a:	7013      	strb	r3, [r2, #0]
  2c:	d108      	bne.n	40 <Self_Test_Loop+0x40>
C:\tien\PROJEKTY\procesory\STM\T104_V100a_GASTOP\sources/control.c:2023
                {
                    Machine_State = Control_Variables[Machine_State].Motor_Enc_Ptr->Next[0];
  2e:	4816      	ldr	r0, [pc, #88]	(88 <Self_Test_Loop+0x88>)
  30:	4a16      	ldr	r2, [pc, #88]	(8c <Self_Test_Loop+0x8c>)
  32:	7803      	ldrb	r3, [r0, #0]
  34:	2114      	movs	r1, #20
  36:	fb01 2303 	mla	r3, r1, r3, r2
  3a:	68db      	ldr	r3, [r3, #12]
  3c:	791b      	ldrb	r3, [r3, #4]
  3e:	7003      	strb	r3, [r0, #0]
C:\tien\PROJEKTY\procesory\STM\T104_V100a_GASTOP\sources/control.c:2026
                }

                Actual_Angle = Encoder_Angle;
  40:	4b0e      	ldr	r3, [pc, #56]	(7c <Self_Test_Loop+0x7c>)
  42:	4a0f      	ldr	r2, [pc, #60]	(80 <Self_Test_Loop+0x80>)
  44:	781b      	ldrb	r3, [r3, #0]
  46:	7013      	strb	r3, [r2, #0]
  48:	e014      	b.n	74 <Self_Test_Loop+0x74>
C:\tien\PROJEKTY\procesory\STM\T104_V100a_GASTOP\sources/control.c:2032
            }
        }
    }
    else//Inductive
    {
        if ( Inputs_Level & IND_SENSOR1  )
  4a:	4b11      	ldr	r3, [pc, #68]	(90 <Self_Test_Loop+0x90>)
  4c:	881b      	ldrh	r3, [r3, #0]
  4e:	f013 0f04 	tst.w	r3, #4	; 0x4
  52:	d00f      	beq.n	74 <Self_Test_Loop+0x74>
C:\tien\PROJEKTY\procesory\STM\T104_V100a_GASTOP\sources/control.c:2034
        {
            if ( ++Test_Cntr == 5 )
  54:	4a0b      	ldr	r2, [pc, #44]	(84 <Self_Test_Loop+0x84>)
  56:	7813      	ldrb	r3, [r2, #0]
  58:	3301      	adds	r3, #1
  5a:	b2db      	uxtb	r3, r3
  5c:	2b05      	cmp	r3, #5
  5e:	7013      	strb	r3, [r2, #0]
  60:	d108      	bne.n	74 <Self_Test_Loop+0x74>
C:\tien\PROJEKTY\procesory\STM\T104_V100a_GASTOP\sources/control.c:2036
            {
                Machine_State = Control_Variables[Machine_State].Motor_Enc_Ptr->Next[0];
  62:	4809      	ldr	r0, [pc, #36]	(88 <Self_Test_Loop+0x88>)
  64:	4a09      	ldr	r2, [pc, #36]	(8c <Self_Test_Loop+0x8c>)
  66:	7803      	ldrb	r3, [r0, #0]
  68:	2114      	movs	r1, #20
  6a:	fb01 2303 	mla	r3, r1, r3, r2
  6e:	68db      	ldr	r3, [r3, #12]
  70:	791b      	ldrb	r3, [r3, #4]
  72:	7003      	strb	r3, [r0, #0]
C:\tien\PROJEKTY\procesory\STM\T104_V100a_GASTOP\sources/control.c:2040
            }
        }
    }
}
  74:	bd10      	pop	{r4, pc}
  76:	46c0      	nop			(mov r8, r8)
	...
Disassembly of section .text.Manual_Test:

00000000 <Manual_Test>:
Manual_Test():
C:\tien\PROJEKTY\procesory\STM\T104_V100a_GASTOP\sources/control.c:2084
* Output         : None
* Return         : None
*******************************************************************************/
static void Manual_Test ( void )
{
    if ( Inputs.Keyboard_Memory != 0 && Inputs.Keyboard_Flag == 1 )
   0:	4a0e      	ldr	r2, [pc, #56]	(3c <Manual_Test+0x3c>)
   2:	7813      	ldrb	r3, [r2, #0]
   4:	b1ab      	cbz	r3, 32 <Manual_Test+0x32>
   6:	7891      	ldrb	r1, [r2, #2]
   8:	2901      	cmp	r1, #1
   a:	d112      	bne.n	32 <Manual_Test+0x32>
C:\tien\PROJEKTY\procesory\STM\T104_V100a_GASTOP\sources/control.c:2086
    {
        switch ( Inputs.Keyboard_Memory )
   c:	2b04      	cmp	r3, #4
   e:	d10d      	bne.n	2c <Manual_Test+0x2c>
C:\tien\PROJEKTY\procesory\STM\T104_V100a_GASTOP\sources/control.c:2089
        {        
            case INPUT_TEST:
                    Screen_Before_Password = TEST;
  10:	4b0b      	ldr	r3, [pc, #44]	(40 <Manual_Test+0x40>)
  12:	2208      	movs	r2, #8
  14:	701a      	strb	r2, [r3, #0]
C:\tien\PROJEKTY\procesory\STM\T104_V100a_GASTOP\sources/control.c:2090
                    Test_Cntr = 0;
  16:	4b0b      	ldr	r3, [pc, #44]	(44 <Manual_Test+0x44>)
  18:	2200      	movs	r2, #0
  1a:	701a      	strb	r2, [r3, #0]
C:\tien\PROJEKTY\procesory\STM\T104_V100a_GASTOP\sources/control.c:2091
                    Machine_State = STANDBY;
  1c:	4b0a      	ldr	r3, [pc, #40]	(48 <Manual_Test+0x48>)
  1e:	701a      	strb	r2, [r3, #0]
C:\tien\PROJEKTY\procesory\STM\T104_V100a_GASTOP\sources/control.c:2092
                    TEST_ENABLE = FALSE;
  20:	4b0a      	ldr	r3, [pc, #40]	(4c <Manual_Test+0x4c>)
  22:	701a      	strb	r2, [r3, #0]
C:\tien\PROJEKTY\procesory\STM\T104_V100a_GASTOP\sources/control.c:2093
                    Screen_Number = CONTROLLER_ON;
  24:	4b0a      	ldr	r3, [pc, #40]	(50 <Manual_Test+0x50>)
  26:	7019      	strb	r1, [r3, #0]
C:\tien\PROJEKTY\procesory\STM\T104_V100a_GASTOP\sources/control.c:2094
                    Reload_Screen = TRUE;            
  28:	4b0a      	ldr	r3, [pc, #40]	(54 <Manual_Test+0x54>)
  2a:	7019      	strb	r1, [r3, #0]
C:\tien\PROJEKTY\procesory\STM\T104_V100a_GASTOP\sources/control.c:2097
            break;
        }
        Inputs.Keyboard_Flag = 0;
  2c:	4b03      	ldr	r3, [pc, #12]	(3c <Manual_Test+0x3c>)
  2e:	2200      	movs	r2, #0
  30:	709a      	strb	r2, [r3, #2]
C:\tien\PROJEKTY\procesory\STM\T104_V100a_GASTOP\sources/control.c:2100
    }

    if ( Inputs.Keyboard_State == 0 )
  32:	4a02      	ldr	r2, [pc, #8]	(3c <Manual_Test+0x3c>)
  34:	7853      	ldrb	r3, [r2, #1]
  36:	b903      	cbnz	r3, 3a <Manual_Test+0x3a>
C:\tien\PROJEKTY\procesory\STM\T104_V100a_GASTOP\sources/control.c:2102
    {
        Inputs.Keyboard_Memory = 0;
  38:	7013      	strb	r3, [r2, #0]
C:\tien\PROJEKTY\procesory\STM\T104_V100a_GASTOP\sources/control.c:2105
    }

}
  3a:	4770      	bx	lr
	...
Disassembly of section .text.Reset_Counters_Fun:

00000000 <Reset_Counters_Fun>:
Reset_Counters_Fun():
C:\tien\PROJEKTY\procesory\STM\T104_V100a_GASTOP\sources/control.c:2610
* Output         : None
* Return         : None
*******************************************************************************/
static void Reset_Counters_Fun ( void )
{
    Persons_Counter_Fwd = 0;
   0:	4b03      	ldr	r3, [pc, #12]	(10 <Reset_Counters_Fun+0x10>)
C:\tien\PROJEKTY\procesory\STM\T104_V100a_GASTOP\sources/control.c:2612
    Persons_Counter_Bck = 0;
    Machine_State = STANDBY;
   2:	4904      	ldr	r1, [pc, #16]	(14 <Reset_Counters_Fun+0x14>)
C:\tien\PROJEKTY\procesory\STM\T104_V100a_GASTOP\sources/control.c:2610
* Output         : None
* Return         : None
*******************************************************************************/
static void Reset_Counters_Fun ( void )
{
    Persons_Counter_Fwd = 0;
   4:	2200      	movs	r2, #0
   6:	801a      	strh	r2, [r3, #0]
C:\tien\PROJEKTY\procesory\STM\T104_V100a_GASTOP\sources/control.c:2611
    Persons_Counter_Bck = 0;
   8:	805a      	strh	r2, [r3, #2]
C:\tien\PROJEKTY\procesory\STM\T104_V100a_GASTOP\sources/control.c:2612
    Machine_State = STANDBY;
   a:	700a      	strb	r2, [r1, #0]
C:\tien\PROJEKTY\procesory\STM\T104_V100a_GASTOP\sources/control.c:2613
    STANDBY_PWM_WAIT = FALSE;
   c:	711a      	strb	r2, [r3, #4]
C:\tien\PROJEKTY\procesory\STM\T104_V100a_GASTOP\sources/control.c:2614
}
   e:	4770      	bx	lr
	...
Disassembly of section .text.Stop_Ind_Bck_Fun:

00000000 <Stop_Ind_Bck_Fun>:
Stop_Ind_Bck_Fun():
C:\tien\PROJEKTY\procesory\STM\T104_V100a_GASTOP\sources/control.c:2812
    }
}

static void Stop_Ind_Bck_Fun ( void )
{
    if ( Controller_Variables.Controller_Vars.Sensor_Counter < ( IND_OFFSET - IND_TEST_VALUE ) )
   0:	4b0d      	ldr	r3, [pc, #52]	(38 <Stop_Ind_Bck_Fun+0x38>)
   2:	791b      	ldrb	r3, [r3, #4]
   4:	2b4f      	cmp	r3, #79
   6:	d804      	bhi.n	12 <Stop_Ind_Bck_Fun+0x12>
C:\tien\PROJEKTY\procesory\STM\T104_V100a_GASTOP\sources/control.c:2814
    {
            Ind_Test_Marker |= IND_MARKER_BCK;
   8:	4a0c      	ldr	r2, [pc, #48]	(3c <Stop_Ind_Bck_Fun+0x3c>)
   a:	7813      	ldrb	r3, [r2, #0]
   c:	f043 0302 	orr.w	r3, r3, #2	; 0x2
  10:	7013      	strb	r3, [r2, #0]
C:\tien\PROJEKTY\procesory\STM\T104_V100a_GASTOP\sources/control.c:2817
    }

    if ( (Ind_Test_Marker == (IND_MARKER_FWD | IND_MARKER_BCK )))
  12:	4b0a      	ldr	r3, [pc, #40]	(3c <Stop_Ind_Bck_Fun+0x3c>)
  14:	4a0a      	ldr	r2, [pc, #40]	(40 <Stop_Ind_Bck_Fun+0x40>)
  16:	781b      	ldrb	r3, [r3, #0]
  18:	2b03      	cmp	r3, #3
  1a:	d101      	bne.n	20 <Stop_Ind_Bck_Fun+0x20>
C:\tien\PROJEKTY\procesory\STM\T104_V100a_GASTOP\sources/control.c:2819
    {
        Ind_Test_Mask = IND_MASK_OK;
  1c:	3310      	adds	r3, #16
  1e:	e000      	b.n	22 <Stop_Ind_Bck_Fun+0x22>
C:\tien\PROJEKTY\procesory\STM\T104_V100a_GASTOP\sources/control.c:2823
    }
    else
    {
        Ind_Test_Mask = IND_MASK_FALSE;
  20:	2323      	movs	r3, #35
C:\tien\PROJEKTY\procesory\STM\T104_V100a_GASTOP\sources/control.c:2826
    }

    Machine_State = Control_Variables[Machine_State].Motor_Enc_Ptr->Next[0];
  22:	4808      	ldr	r0, [pc, #32]	(44 <Stop_Ind_Bck_Fun+0x44>)
C:\tien\PROJEKTY\procesory\STM\T104_V100a_GASTOP\sources/control.c:2823
    {
        Ind_Test_Mask = IND_MASK_OK;
    }
    else
    {
        Ind_Test_Mask = IND_MASK_FALSE;
  24:	6013      	str	r3, [r2, #0]
C:\tien\PROJEKTY\procesory\STM\T104_V100a_GASTOP\sources/control.c:2826
    }

    Machine_State = Control_Variables[Machine_State].Motor_Enc_Ptr->Next[0];
  26:	7803      	ldrb	r3, [r0, #0]
  28:	4a07      	ldr	r2, [pc, #28]	(48 <Stop_Ind_Bck_Fun+0x48>)
  2a:	2114      	movs	r1, #20
  2c:	fb01 2303 	mla	r3, r1, r3, r2
  30:	68db      	ldr	r3, [r3, #12]
  32:	791b      	ldrb	r3, [r3, #4]
  34:	7003      	strb	r3, [r0, #0]
C:\tien\PROJEKTY\procesory\STM\T104_V100a_GASTOP\sources/control.c:2827
}
  36:	4770      	bx	lr
	...
Disassembly of section .text.Test_Check:

00000000 <Test_Check>:
Test_Check():
C:\tien\PROJEKTY\procesory\STM\T104_V100a_GASTOP\sources/control.c:2050
* Input          : None
* Output         : None
* Return         : None
*******************************************************************************/
static void Test_Check ( void )
{
   0:	b570      	push	{r4, r5, r6, lr}
C:\tien\PROJEKTY\procesory\STM\T104_V100a_GASTOP\sources/control.c:2051
		if ( ++Test_Cntr > Service_Variables.Serv_Vars.Serwis_008 )
   2:	491f      	ldr	r1, [pc, #124]	(80 <Test_Check+0x80>)
   4:	4a1f      	ldr	r2, [pc, #124]	(84 <Test_Check+0x84>)
   6:	780b      	ldrb	r3, [r1, #0]
   8:	8f10      	ldrh	r0, [r2, #56]
   a:	3301      	adds	r3, #1
   c:	b2db      	uxtb	r3, r3
   e:	4283      	cmp	r3, r0
  10:	700b      	strb	r3, [r1, #0]
  12:	d901      	bls.n	18 <Test_Check+0x18>
C:\tien\PROJEKTY\procesory\STM\T104_V100a_GASTOP\sources/control.c:2052
			Test_Cntr = 0;
  14:	2300      	movs	r3, #0
  16:	700b      	strb	r3, [r1, #0]
C:\tien\PROJEKTY\procesory\STM\T104_V100a_GASTOP\sources/control.c:2054

		if ( Test_Cntr <= Service_Variables.Serv_Vars.Serwis_007 )
  18:	4b19      	ldr	r3, [pc, #100]	(80 <Test_Check+0x80>)
  1a:	781a      	ldrb	r2, [r3, #0]
  1c:	4b19      	ldr	r3, [pc, #100]	(84 <Test_Check+0x84>)
  1e:	8edb      	ldrh	r3, [r3, #54]
  20:	4293      	cmp	r3, r2
  22:	d307      	bcc.n	34 <Test_Check+0x34>
C:\tien\PROJEKTY\procesory\STM\T104_V100a_GASTOP\sources/control.c:2056
        {
			Machine_State = TEST_FWD;
  24:	4b18      	ldr	r3, [pc, #96]	(88 <Test_Check+0x88>)
  26:	2210      	movs	r2, #16
  28:	701a      	strb	r2, [r3, #0]
C:\tien\PROJEKTY\procesory\STM\T104_V100a_GASTOP\sources/control.c:2057
            Counters_Variables.Counters_Vars.No_Goin_Test++;
  2a:	4a18      	ldr	r2, [pc, #96]	(8c <Test_Check+0x8c>)
  2c:	6893      	ldr	r3, [r2, #8]
  2e:	3301      	adds	r3, #1
  30:	6093      	str	r3, [r2, #8]
  32:	e008      	b.n	46 <Test_Check+0x46>
C:\tien\PROJEKTY\procesory\STM\T104_V100a_GASTOP\sources/control.c:2062
            Reload_Screen = TRUE;
            Controller_Variables.Controller_Vars.Sensor_Counter = IND_OFFSET;
            Controller_Variables.Controller_Vars.Sensor_Counter_Copy = IND_OFFSET;
		}
        else if ( Test_Cntr > Service_Variables.Serv_Vars.Serwis_007 && Test_Cntr <= Service_Variables.Serv_Vars.Serwis_008 )
  34:	4282      	cmp	r2, r0
  36:	d80d      	bhi.n	54 <Test_Check+0x54>
C:\tien\PROJEKTY\procesory\STM\T104_V100a_GASTOP\sources/control.c:2064
		{
            Machine_State = TEST_BCK;
  38:	4b13      	ldr	r3, [pc, #76]	(88 <Test_Check+0x88>)
  3a:	2212      	movs	r2, #18
  3c:	701a      	strb	r2, [r3, #0]
C:\tien\PROJEKTY\procesory\STM\T104_V100a_GASTOP\sources/control.c:2065
            Counters_Variables.Counters_Vars.No_Goout_Test++;
  3e:	4a13      	ldr	r2, [pc, #76]	(8c <Test_Check+0x8c>)
  40:	68d3      	ldr	r3, [r2, #12]
  42:	3301      	adds	r3, #1
  44:	60d3      	str	r3, [r2, #12]
C:\tien\PROJEKTY\procesory\STM\T104_V100a_GASTOP\sources/control.c:2066
            Reload_Screen = TRUE;
  46:	4b12      	ldr	r3, [pc, #72]	(90 <Test_Check+0x90>)
  48:	2201      	movs	r2, #1
  4a:	701a      	strb	r2, [r3, #0]
C:\tien\PROJEKTY\procesory\STM\T104_V100a_GASTOP\sources/control.c:2067
            Controller_Variables.Controller_Vars.Sensor_Counter = IND_OFFSET;
  4c:	4a11      	ldr	r2, [pc, #68]	(94 <Test_Check+0x94>)
  4e:	2364      	movs	r3, #100
  50:	7113      	strb	r3, [r2, #4]
C:\tien\PROJEKTY\procesory\STM\T104_V100a_GASTOP\sources/control.c:2068
            Controller_Variables.Controller_Vars.Sensor_Counter_Copy = IND_OFFSET;
  52:	7193      	strb	r3, [r2, #6]
C:\tien\PROJEKTY\procesory\STM\T104_V100a_GASTOP\sources/control.c:2070
        }
			System_Timer_Setting (  &Control_Variables[Machine_State].Time_Connection_Ptr->Tmr_Cntr_Ptr->Timer,
  54:	4b0c      	ldr	r3, [pc, #48]	(88 <Test_Check+0x88>)
  56:	4c10      	ldr	r4, [pc, #64]	(98 <Test_Check+0x98>)
  58:	781a      	ldrb	r2, [r3, #0]
  5a:	7818      	ldrb	r0, [r3, #0]
  5c:	2114      	movs	r1, #20
  5e:	fb01 4000 	mla	r0, r1, r0, r4
  62:	781d      	ldrb	r5, [r3, #0]
  64:	fb01 4202 	mla	r2, r1, r2, r4
  68:	fb01 4505 	mla	r5, r1, r5, r4
  6c:	6883      	ldr	r3, [r0, #8]
  6e:	6896      	ldr	r6, [r2, #8]
  70:	681a      	ldr	r2, [r3, #0]
  72:	68ab      	ldr	r3, [r5, #8]
  74:	8811      	ldrh	r1, [r2, #0]
  76:	68b0      	ldr	r0, [r6, #8]
  78:	791a      	ldrb	r2, [r3, #4]
  7a:	f7ff fffe 	bl	0 <System_Timer_Setting>
C:\tien\PROJEKTY\procesory\STM\T104_V100a_GASTOP\sources/control.c:2073
									*Control_Variables[Machine_State].Time_Connection_Ptr->Time_Value,
									Control_Variables[Machine_State].Time_Connection_Ptr->Resolution );;
}
  7e:	bd70      	pop	{r4, r5, r6, pc}
	...
Disassembly of section .text.Keyboard_Stand_by_Bck:

00000000 <Keyboard_Stand_by_Bck>:
Keyboard_Stand_by_Bck():
C:\tien\PROJEKTY\procesory\STM\T104_V100a_GASTOP\sources/control.c:1938
* Input          : None
* Output         : None
* Return         : None
*******************************************************************************/
static void Keyboard_Stand_by_Bck ( void )
{
   0:	b510      	push	{r4, lr}
C:\tien\PROJEKTY\procesory\STM\T104_V100a_GASTOP\sources/control.c:1939
if ( Controlling_Variables.Ctrl_Vars.Exit_Var == 1 ) //Input on edge detection
   2:	4c3b      	ldr	r4, [pc, #236]	(f0 <Keyboard_Stand_by_Bck+0xf0>)
   4:	7ea3      	ldrb	r3, [r4, #26]
   6:	2b01      	cmp	r3, #1
   8:	d141      	bne.n	8e <Keyboard_Stand_by_Bck+0x8e>
C:\tien\PROJEKTY\procesory\STM\T104_V100a_GASTOP\sources/control.c:1941
{
    if ( Inputs.Keyboard_Memory != 0 && Inputs.Keyboard_Flag == 1 )
   a:	4b3a      	ldr	r3, [pc, #232]	(f4 <Keyboard_Stand_by_Bck+0xf4>)
   c:	7819      	ldrb	r1, [r3, #0]
   e:	2900      	cmp	r1, #0
  10:	d035      	beq.n	7e <Keyboard_Stand_by_Bck+0x7e>
  12:	7898      	ldrb	r0, [r3, #2]
  14:	2801      	cmp	r0, #1
  16:	d132      	bne.n	7e <Keyboard_Stand_by_Bck+0x7e>
C:\tien\PROJEKTY\procesory\STM\T104_V100a_GASTOP\sources/control.c:1943
    {
        switch ( Inputs.Keyboard_Memory )
  18:	2901      	cmp	r1, #1
  1a:	d002      	beq.n	22 <Keyboard_Stand_by_Bck+0x22>
  1c:	2904      	cmp	r1, #4
  1e:	d12b      	bne.n	78 <Keyboard_Stand_by_Bck+0x78>
  20:	e017      	b.n	52 <Keyboard_Stand_by_Bck+0x52>
C:\tien\PROJEKTY\procesory\STM\T104_V100a_GASTOP\sources/control.c:1946
        {
            case INPUT_FORWARD:
				Machine_State = STANDBY_ZWORA_FWD;
  22:	4b35      	ldr	r3, [pc, #212]	(f8 <Keyboard_Stand_by_Bck+0xf8>)
  24:	2205      	movs	r2, #5
  26:	701a      	strb	r2, [r3, #0]
C:\tien\PROJEKTY\procesory\STM\T104_V100a_GASTOP\sources/control.c:1947
				Persons_Counter_Fwd++;
  28:	4a34      	ldr	r2, [pc, #208]	(fc <Keyboard_Stand_by_Bck+0xfc>)
C:\tien\PROJEKTY\procesory\STM\T104_V100a_GASTOP\sources/control.c:1954
                //Controller_Variables.Controller_Vars.Sensor_Counter = IND_OFFSET;
                //Controller_Variables.Controller_Vars.Sensor_Counter_Copy = IND_OFFSET;
                Controller_Variables.Controller_Vars.Sensor_Direction_Detect = 0;
                FORCING_ONCE_FLAG = TRUE;

                System_Timer_Setting ( &Trans_Timer.Timer, Controlling_Variables.Ctrl_Vars.Trans_time, T_1sec );
  2a:	4835      	ldr	r0, [pc, #212]	(100 <Keyboard_Stand_by_Bck+0x100>)
C:\tien\PROJEKTY\procesory\STM\T104_V100a_GASTOP\sources/control.c:1947
    {
        switch ( Inputs.Keyboard_Memory )
        {
            case INPUT_FORWARD:
				Machine_State = STANDBY_ZWORA_FWD;
				Persons_Counter_Fwd++;
  2c:	8813      	ldrh	r3, [r2, #0]
  2e:	3301      	adds	r3, #1
  30:	8013      	strh	r3, [r2, #0]
C:\tien\PROJEKTY\procesory\STM\T104_V100a_GASTOP\sources/control.c:1948
				Arm_Mem_Pos = Arm_Pos;
  32:	4b34      	ldr	r3, [pc, #208]	(104 <Keyboard_Stand_by_Bck+0x104>)
  34:	4a34      	ldr	r2, [pc, #208]	(108 <Keyboard_Stand_by_Bck+0x108>)
  36:	881b      	ldrh	r3, [r3, #0]
  38:	b29b      	uxth	r3, r3
  3a:	8013      	strh	r3, [r2, #0]
C:\tien\PROJEKTY\procesory\STM\T104_V100a_GASTOP\sources/control.c:1951
                //Controller_Variables.Controller_Vars.Sensor_Counter = IND_OFFSET;
                //Controller_Variables.Controller_Vars.Sensor_Counter_Copy = IND_OFFSET;
                Controller_Variables.Controller_Vars.Sensor_Direction_Detect = 0;
  3c:	4b33      	ldr	r3, [pc, #204]	(10c <Keyboard_Stand_by_Bck+0x10c>)
  3e:	2200      	movs	r2, #0
  40:	71da      	strb	r2, [r3, #7]
C:\tien\PROJEKTY\procesory\STM\T104_V100a_GASTOP\sources/control.c:1952
                FORCING_ONCE_FLAG = TRUE;
  42:	4b33      	ldr	r3, [pc, #204]	(110 <Keyboard_Stand_by_Bck+0x110>)
C:\tien\PROJEKTY\procesory\STM\T104_V100a_GASTOP\sources/control.c:1954

                System_Timer_Setting ( &Trans_Timer.Timer, Controlling_Variables.Ctrl_Vars.Trans_time, T_1sec );
  44:	3203      	adds	r2, #3
C:\tien\PROJEKTY\procesory\STM\T104_V100a_GASTOP\sources/control.c:1952
				Persons_Counter_Fwd++;
				Arm_Mem_Pos = Arm_Pos;
                //Controller_Variables.Controller_Vars.Sensor_Counter = IND_OFFSET;
                //Controller_Variables.Controller_Vars.Sensor_Counter_Copy = IND_OFFSET;
                Controller_Variables.Controller_Vars.Sensor_Direction_Detect = 0;
                FORCING_ONCE_FLAG = TRUE;
  46:	f883 13c0 	strb.w	r1, [r3, #960]
C:\tien\PROJEKTY\procesory\STM\T104_V100a_GASTOP\sources/control.c:1954

                System_Timer_Setting ( &Trans_Timer.Timer, Controlling_Variables.Ctrl_Vars.Trans_time, T_1sec );
  4a:	8ba1      	ldrh	r1, [r4, #28]
  4c:	f7ff fffe 	bl	0 <System_Timer_Setting>
  50:	e012      	b.n	78 <Keyboard_Stand_by_Bck+0x78>
C:\tien\PROJEKTY\procesory\STM\T104_V100a_GASTOP\sources/control.c:1958
            break;
            
            case INPUT_TEST:
                Test_String_Mask = TEST_STARTED;
  52:	4b30      	ldr	r3, [pc, #192]	(114 <Keyboard_Stand_by_Bck+0x114>)
  54:	221f      	movs	r2, #31
  56:	601a      	str	r2, [r3, #0]
C:\tien\PROJEKTY\procesory\STM\T104_V100a_GASTOP\sources/control.c:1959
                Test_Cntr = 0;
  58:	4b2f      	ldr	r3, [pc, #188]	(118 <Keyboard_Stand_by_Bck+0x118>)
  5a:	2100      	movs	r1, #0
  5c:	7019      	strb	r1, [r3, #0]
C:\tien\PROJEKTY\procesory\STM\T104_V100a_GASTOP\sources/control.c:1960
                Machine_State = TEST_START;
  5e:	4b26      	ldr	r3, [pc, #152]	(f8 <Keyboard_Stand_by_Bck+0xf8>)
  60:	220f      	movs	r2, #15
  62:	701a      	strb	r2, [r3, #0]
C:\tien\PROJEKTY\procesory\STM\T104_V100a_GASTOP\sources/control.c:1961
                TEST_ENABLE = TRUE;
  64:	4b2d      	ldr	r3, [pc, #180]	(11c <Keyboard_Stand_by_Bck+0x11c>)
C:\tien\PROJEKTY\procesory\STM\T104_V100a_GASTOP\sources/control.c:1962
                Screen_Number = PROG_TESTOWY;
  66:	320d      	adds	r2, #13
C:\tien\PROJEKTY\procesory\STM\T104_V100a_GASTOP\sources/control.c:1961
            
            case INPUT_TEST:
                Test_String_Mask = TEST_STARTED;
                Test_Cntr = 0;
                Machine_State = TEST_START;
                TEST_ENABLE = TRUE;
  68:	7018      	strb	r0, [r3, #0]
C:\tien\PROJEKTY\procesory\STM\T104_V100a_GASTOP\sources/control.c:1962
                Screen_Number = PROG_TESTOWY;
  6a:	4b2d      	ldr	r3, [pc, #180]	(120 <Keyboard_Stand_by_Bck+0x120>)
  6c:	701a      	strb	r2, [r3, #0]
C:\tien\PROJEKTY\procesory\STM\T104_V100a_GASTOP\sources/control.c:1963
                Reload_Screen = TRUE;  
  6e:	4b2d      	ldr	r3, [pc, #180]	(124 <Keyboard_Stand_by_Bck+0x124>)
  70:	7018      	strb	r0, [r3, #0]
C:\tien\PROJEKTY\procesory\STM\T104_V100a_GASTOP\sources/control.c:1964
                Counters_Variables.Counters_Vars.No_Goin_Test = 0;
  72:	4b2d      	ldr	r3, [pc, #180]	(128 <Keyboard_Stand_by_Bck+0x128>)
  74:	6099      	str	r1, [r3, #8]
C:\tien\PROJEKTY\procesory\STM\T104_V100a_GASTOP\sources/control.c:1965
                Counters_Variables.Counters_Vars.No_Goout_Test = 0;            
  76:	60d9      	str	r1, [r3, #12]
C:\tien\PROJEKTY\procesory\STM\T104_V100a_GASTOP\sources/control.c:1969
            break;
        }
   
        Inputs.Keyboard_Flag = 0;
  78:	4b1e      	ldr	r3, [pc, #120]	(f4 <Keyboard_Stand_by_Bck+0xf4>)
  7a:	2200      	movs	r2, #0
  7c:	709a      	strb	r2, [r3, #2]
C:\tien\PROJEKTY\procesory\STM\T104_V100a_GASTOP\sources/control.c:1972
    }

    if ( Inputs.Keyboard_State == 0 )
  7e:	491d      	ldr	r1, [pc, #116]	(f4 <Keyboard_Stand_by_Bck+0xf4>)
  80:	784a      	ldrb	r2, [r1, #1]
  82:	2a00      	cmp	r2, #0
  84:	d132      	bne.n	ec <Keyboard_Stand_by_Bck+0xec>
C:\tien\PROJEKTY\procesory\STM\T104_V100a_GASTOP\sources/control.c:1974
    {
        EXIT_VAR_FLAG = FALSE;
  86:	4b1d      	ldr	r3, [pc, #116]	(fc <Keyboard_Stand_by_Bck+0xfc>)
C:\tien\PROJEKTY\procesory\STM\T104_V100a_GASTOP\sources/control.c:1975
        Inputs.Keyboard_Memory = 0;
  88:	700a      	strb	r2, [r1, #0]
C:\tien\PROJEKTY\procesory\STM\T104_V100a_GASTOP\sources/control.c:1974
        Inputs.Keyboard_Flag = 0;
    }

    if ( Inputs.Keyboard_State == 0 )
    {
        EXIT_VAR_FLAG = FALSE;
  8a:	715a      	strb	r2, [r3, #5]
  8c:	e02e      	b.n	ec <Keyboard_Stand_by_Bck+0xec>
C:\tien\PROJEKTY\procesory\STM\T104_V100a_GASTOP\sources/control.c:1980
        Inputs.Keyboard_Memory = 0;
    }
}
else
{
    if ( Controlling_Variables.Ctrl_Vars.Exit_Var == 0 )
  8e:	2b00      	cmp	r3, #0
  90:	d128      	bne.n	e4 <Keyboard_Stand_by_Bck+0xe4>
C:\tien\PROJEKTY\procesory\STM\T104_V100a_GASTOP\sources/control.c:1982
    { 
        if ( !(Inputs_Level & BACK_ENABLE) )
  92:	4b26      	ldr	r3, [pc, #152]	(12c <Keyboard_Stand_by_Bck+0x12c>)
  94:	881b      	ldrh	r3, [r3, #0]
  96:	f013 0f40 	tst.w	r3, #64	; 0x40
  9a:	d103      	bne.n	a4 <Keyboard_Stand_by_Bck+0xa4>
C:\tien\PROJEKTY\procesory\STM\T104_V100a_GASTOP\sources/control.c:1984
        {
            Free_Exit_Marker = 2;//STANDBY
  9c:	4b24      	ldr	r3, [pc, #144]	(130 <Keyboard_Stand_by_Bck+0x130>)
  9e:	f04f 0202 	mov.w	r2, #2	; 0x2
  a2:	801a      	strh	r2, [r3, #0]
C:\tien\PROJEKTY\procesory\STM\T104_V100a_GASTOP\sources/control.c:1987
        }

        if ( Inputs_Level & FORWARD_ENABLE )
  a4:	4b21      	ldr	r3, [pc, #132]	(12c <Keyboard_Stand_by_Bck+0x12c>)
  a6:	881b      	ldrh	r3, [r3, #0]
  a8:	f013 0f20 	tst.w	r3, #32	; 0x20
  ac:	d01a      	beq.n	e4 <Keyboard_Stand_by_Bck+0xe4>
C:\tien\PROJEKTY\procesory\STM\T104_V100a_GASTOP\sources/control.c:1990
        {
            Machine_State = STANDBY_ZWORA_FWD;
            Persons_Counter_Fwd++;
  ae:	4913      	ldr	r1, [pc, #76]	(fc <Keyboard_Stand_by_Bck+0xfc>)
C:\tien\PROJEKTY\procesory\STM\T104_V100a_GASTOP\sources/control.c:1989
            Free_Exit_Marker = 2;//STANDBY
        }

        if ( Inputs_Level & FORWARD_ENABLE )
        {
            Machine_State = STANDBY_ZWORA_FWD;
  b0:	4b11      	ldr	r3, [pc, #68]	(f8 <Keyboard_Stand_by_Bck+0xf8>)
  b2:	2205      	movs	r2, #5
  b4:	701a      	strb	r2, [r3, #0]
C:\tien\PROJEKTY\procesory\STM\T104_V100a_GASTOP\sources/control.c:1990
            Persons_Counter_Fwd++;
  b6:	880b      	ldrh	r3, [r1, #0]
C:\tien\PROJEKTY\procesory\STM\T104_V100a_GASTOP\sources/control.c:1991
            Arm_Mem_Pos = Arm_Pos;
  b8:	4a13      	ldr	r2, [pc, #76]	(108 <Keyboard_Stand_by_Bck+0x108>)
C:\tien\PROJEKTY\procesory\STM\T104_V100a_GASTOP\sources/control.c:1990
        }

        if ( Inputs_Level & FORWARD_ENABLE )
        {
            Machine_State = STANDBY_ZWORA_FWD;
            Persons_Counter_Fwd++;
  ba:	3301      	adds	r3, #1
  bc:	800b      	strh	r3, [r1, #0]
C:\tien\PROJEKTY\procesory\STM\T104_V100a_GASTOP\sources/control.c:1991
            Arm_Mem_Pos = Arm_Pos;
  be:	4b11      	ldr	r3, [pc, #68]	(104 <Keyboard_Stand_by_Bck+0x104>)
C:\tien\PROJEKTY\procesory\STM\T104_V100a_GASTOP\sources/control.c:1994
            //Controller_Variables.Controller_Vars.Sensor_Counter = IND_OFFSET;
            //Controller_Variables.Controller_Vars.Sensor_Counter_Copy = IND_OFFSET;
            Controller_Variables.Controller_Vars.Sensor_Direction_Detect = 0;
  c0:	2000      	movs	r0, #0
C:\tien\PROJEKTY\procesory\STM\T104_V100a_GASTOP\sources/control.c:1991

        if ( Inputs_Level & FORWARD_ENABLE )
        {
            Machine_State = STANDBY_ZWORA_FWD;
            Persons_Counter_Fwd++;
            Arm_Mem_Pos = Arm_Pos;
  c2:	881b      	ldrh	r3, [r3, #0]
C:\tien\PROJEKTY\procesory\STM\T104_V100a_GASTOP\sources/control.c:1996
            //Controller_Variables.Controller_Vars.Sensor_Counter = IND_OFFSET;
            //Controller_Variables.Controller_Vars.Sensor_Counter_Copy = IND_OFFSET;
            Controller_Variables.Controller_Vars.Sensor_Direction_Detect = 0;
            FORCING_ONCE_FLAG = TRUE;
            EXIT_FWD_BCK_FLAG = FALSE;
  c4:	7188      	strb	r0, [r1, #6]
C:\tien\PROJEKTY\procesory\STM\T104_V100a_GASTOP\sources/control.c:1991

        if ( Inputs_Level & FORWARD_ENABLE )
        {
            Machine_State = STANDBY_ZWORA_FWD;
            Persons_Counter_Fwd++;
            Arm_Mem_Pos = Arm_Pos;
  c6:	b29b      	uxth	r3, r3
  c8:	8013      	strh	r3, [r2, #0]
C:\tien\PROJEKTY\procesory\STM\T104_V100a_GASTOP\sources/control.c:1994
            //Controller_Variables.Controller_Vars.Sensor_Counter = IND_OFFSET;
            //Controller_Variables.Controller_Vars.Sensor_Counter_Copy = IND_OFFSET;
            Controller_Variables.Controller_Vars.Sensor_Direction_Detect = 0;
  ca:	4b10      	ldr	r3, [pc, #64]	(10c <Keyboard_Stand_by_Bck+0x10c>)
C:\tien\PROJEKTY\procesory\STM\T104_V100a_GASTOP\sources/control.c:1995
            FORCING_ONCE_FLAG = TRUE;
  cc:	2201      	movs	r2, #1
C:\tien\PROJEKTY\procesory\STM\T104_V100a_GASTOP\sources/control.c:1994
            Machine_State = STANDBY_ZWORA_FWD;
            Persons_Counter_Fwd++;
            Arm_Mem_Pos = Arm_Pos;
            //Controller_Variables.Controller_Vars.Sensor_Counter = IND_OFFSET;
            //Controller_Variables.Controller_Vars.Sensor_Counter_Copy = IND_OFFSET;
            Controller_Variables.Controller_Vars.Sensor_Direction_Detect = 0;
  ce:	71d8      	strb	r0, [r3, #7]
C:\tien\PROJEKTY\procesory\STM\T104_V100a_GASTOP\sources/control.c:1995
            FORCING_ONCE_FLAG = TRUE;
  d0:	4b0f      	ldr	r3, [pc, #60]	(110 <Keyboard_Stand_by_Bck+0x110>)
C:\tien\PROJEKTY\procesory\STM\T104_V100a_GASTOP\sources/control.c:1997
            EXIT_FWD_BCK_FLAG = FALSE;
            ENABLE_MEMORY_FLAG = TRUE;
  d2:	71ca      	strb	r2, [r1, #7]
C:\tien\PROJEKTY\procesory\STM\T104_V100a_GASTOP\sources/control.c:1995
            Persons_Counter_Fwd++;
            Arm_Mem_Pos = Arm_Pos;
            //Controller_Variables.Controller_Vars.Sensor_Counter = IND_OFFSET;
            //Controller_Variables.Controller_Vars.Sensor_Counter_Copy = IND_OFFSET;
            Controller_Variables.Controller_Vars.Sensor_Direction_Detect = 0;
            FORCING_ONCE_FLAG = TRUE;
  d4:	f883 23c0 	strb.w	r2, [r3, #960]
C:\tien\PROJEKTY\procesory\STM\T104_V100a_GASTOP\sources/control.c:1998
            EXIT_FWD_BCK_FLAG = FALSE;
            ENABLE_MEMORY_FLAG = TRUE;
            System_Timer_Setting ( &Trans_Timer.Timer, Controlling_Variables.Ctrl_Vars.Trans_time, T_1sec );
  d8:	4b05      	ldr	r3, [pc, #20]	(f0 <Keyboard_Stand_by_Bck+0xf0>)
  da:	4809      	ldr	r0, [pc, #36]	(100 <Keyboard_Stand_by_Bck+0x100>)
  dc:	8b99      	ldrh	r1, [r3, #28]
  de:	3202      	adds	r2, #2
  e0:	f7ff fffe 	bl	0 <System_Timer_Setting>
C:\tien\PROJEKTY\procesory\STM\T104_V100a_GASTOP\sources/control.c:2001
        }
    }
    Inputs.Keyboard_Flag = 0;
  e4:	4a03      	ldr	r2, [pc, #12]	(f4 <Keyboard_Stand_by_Bck+0xf4>)
  e6:	2300      	movs	r3, #0
  e8:	7093      	strb	r3, [r2, #2]
C:\tien\PROJEKTY\procesory\STM\T104_V100a_GASTOP\sources/control.c:2002
    Inputs.Keyboard_Memory = 0;
  ea:	7013      	strb	r3, [r2, #0]
C:\tien\PROJEKTY\procesory\STM\T104_V100a_GASTOP\sources/control.c:2004
}
}
  ec:	bd10      	pop	{r4, pc}
  ee:	46c0      	nop			(mov r8, r8)
	...
Disassembly of section .text.Keyboard_Stand_by_Fwd:

00000000 <Keyboard_Stand_by_Fwd>:
Keyboard_Stand_by_Fwd():
C:\tien\PROJEKTY\procesory\STM\T104_V100a_GASTOP\sources/control.c:1864
* Input          : None
* Output         : None
* Return         : None
*******************************************************************************/
static void Keyboard_Stand_by_Fwd ( void )
{
   0:	b510      	push	{r4, lr}
C:\tien\PROJEKTY\procesory\STM\T104_V100a_GASTOP\sources/control.c:1865
if ( Controlling_Variables.Ctrl_Vars.Exit_Var == 1 ) //Input on edge detection
   2:	493a      	ldr	r1, [pc, #232]	(ec <Keyboard_Stand_by_Fwd+0xec>)
   4:	7e8b      	ldrb	r3, [r1, #26]
   6:	2b01      	cmp	r3, #1
   8:	d13e      	bne.n	88 <Keyboard_Stand_by_Fwd+0x88>
C:\tien\PROJEKTY\procesory\STM\T104_V100a_GASTOP\sources/control.c:1867
{
    if ( Inputs.Keyboard_Memory != 0 && Inputs.Keyboard_Flag == 1 )
   a:	4a39      	ldr	r2, [pc, #228]	(f0 <Keyboard_Stand_by_Fwd+0xf0>)
   c:	7813      	ldrb	r3, [r2, #0]
   e:	2b00      	cmp	r3, #0
  10:	d035      	beq.n	7e <Keyboard_Stand_by_Fwd+0x7e>
  12:	7890      	ldrb	r0, [r2, #2]
  14:	2801      	cmp	r0, #1
  16:	d132      	bne.n	7e <Keyboard_Stand_by_Fwd+0x7e>
C:\tien\PROJEKTY\procesory\STM\T104_V100a_GASTOP\sources/control.c:1869
    {
        switch ( Inputs.Keyboard_Memory )
  18:	2b02      	cmp	r3, #2
  1a:	d002      	beq.n	22 <Keyboard_Stand_by_Fwd+0x22>
  1c:	2b04      	cmp	r3, #4
  1e:	d12b      	bne.n	78 <Keyboard_Stand_by_Fwd+0x78>
  20:	e017      	b.n	52 <Keyboard_Stand_by_Fwd+0x52>
C:\tien\PROJEKTY\procesory\STM\T104_V100a_GASTOP\sources/control.c:1872
        {
            case INPUT_BACK:
 				Machine_State = STANDBY_ZWORA_BCK;
  22:	4b34      	ldr	r3, [pc, #208]	(f4 <Keyboard_Stand_by_Fwd+0xf4>)
  24:	2206      	movs	r2, #6
  26:	701a      	strb	r2, [r3, #0]
C:\tien\PROJEKTY\procesory\STM\T104_V100a_GASTOP\sources/control.c:1873
				Persons_Counter_Bck++;
  28:	4a33      	ldr	r2, [pc, #204]	(f8 <Keyboard_Stand_by_Fwd+0xf8>)
C:\tien\PROJEKTY\procesory\STM\T104_V100a_GASTOP\sources/control.c:1880
                //Controller_Variables.Controller_Vars.Sensor_Counter = IND_OFFSET;
                //Controller_Variables.Controller_Vars.Sensor_Counter_Copy = IND_OFFSET;
                Controller_Variables.Controller_Vars.Sensor_Direction_Detect = 0;
                FORCING_ONCE_FLAG = TRUE;

                System_Timer_Setting ( &Trans_Timer.Timer, Controlling_Variables.Ctrl_Vars.Trans_time, T_1sec );
  2a:	8b89      	ldrh	r1, [r1, #28]
C:\tien\PROJEKTY\procesory\STM\T104_V100a_GASTOP\sources/control.c:1873
    {
        switch ( Inputs.Keyboard_Memory )
        {
            case INPUT_BACK:
 				Machine_State = STANDBY_ZWORA_BCK;
				Persons_Counter_Bck++;
  2c:	8853      	ldrh	r3, [r2, #2]
  2e:	3301      	adds	r3, #1
  30:	8053      	strh	r3, [r2, #2]
C:\tien\PROJEKTY\procesory\STM\T104_V100a_GASTOP\sources/control.c:1874
				Arm_Mem_Pos = Arm_Pos;
  32:	4b32      	ldr	r3, [pc, #200]	(fc <Keyboard_Stand_by_Fwd+0xfc>)
  34:	4a32      	ldr	r2, [pc, #200]	(100 <Keyboard_Stand_by_Fwd+0x100>)
  36:	881b      	ldrh	r3, [r3, #0]
  38:	b29b      	uxth	r3, r3
  3a:	8013      	strh	r3, [r2, #0]
C:\tien\PROJEKTY\procesory\STM\T104_V100a_GASTOP\sources/control.c:1877
                //Controller_Variables.Controller_Vars.Sensor_Counter = IND_OFFSET;
                //Controller_Variables.Controller_Vars.Sensor_Counter_Copy = IND_OFFSET;
                Controller_Variables.Controller_Vars.Sensor_Direction_Detect = 0;
  3c:	4b31      	ldr	r3, [pc, #196]	(104 <Keyboard_Stand_by_Fwd+0x104>)
  3e:	2200      	movs	r2, #0
  40:	71da      	strb	r2, [r3, #7]
C:\tien\PROJEKTY\procesory\STM\T104_V100a_GASTOP\sources/control.c:1878
                FORCING_ONCE_FLAG = TRUE;
  42:	4b31      	ldr	r3, [pc, #196]	(108 <Keyboard_Stand_by_Fwd+0x108>)
C:\tien\PROJEKTY\procesory\STM\T104_V100a_GASTOP\sources/control.c:1880

                System_Timer_Setting ( &Trans_Timer.Timer, Controlling_Variables.Ctrl_Vars.Trans_time, T_1sec );
  44:	3203      	adds	r2, #3
C:\tien\PROJEKTY\procesory\STM\T104_V100a_GASTOP\sources/control.c:1878
				Persons_Counter_Bck++;
				Arm_Mem_Pos = Arm_Pos;
                //Controller_Variables.Controller_Vars.Sensor_Counter = IND_OFFSET;
                //Controller_Variables.Controller_Vars.Sensor_Counter_Copy = IND_OFFSET;
                Controller_Variables.Controller_Vars.Sensor_Direction_Detect = 0;
                FORCING_ONCE_FLAG = TRUE;
  46:	f883 03c0 	strb.w	r0, [r3, #960]
C:\tien\PROJEKTY\procesory\STM\T104_V100a_GASTOP\sources/control.c:1880

                System_Timer_Setting ( &Trans_Timer.Timer, Controlling_Variables.Ctrl_Vars.Trans_time, T_1sec );
  4a:	4830      	ldr	r0, [pc, #192]	(c4 <System_Timer_Setting+0xc4>)
  4c:	f7ff fffe 	bl	0 <System_Timer_Setting>
  50:	e012      	b.n	78 <Keyboard_Stand_by_Fwd+0x78>
C:\tien\PROJEKTY\procesory\STM\T104_V100a_GASTOP\sources/control.c:1884
            break;
            
            case INPUT_TEST:
                Test_String_Mask = TEST_STARTED;
  52:	4b2f      	ldr	r3, [pc, #188]	(110 <Keyboard_Stand_by_Fwd+0x110>)
  54:	221f      	movs	r2, #31
  56:	601a      	str	r2, [r3, #0]
C:\tien\PROJEKTY\procesory\STM\T104_V100a_GASTOP\sources/control.c:1885
                Test_Cntr = 0;
  58:	4b2e      	ldr	r3, [pc, #184]	(114 <Keyboard_Stand_by_Fwd+0x114>)
  5a:	2100      	movs	r1, #0
  5c:	7019      	strb	r1, [r3, #0]
C:\tien\PROJEKTY\procesory\STM\T104_V100a_GASTOP\sources/control.c:1886
                Machine_State = TEST_START;
  5e:	4b25      	ldr	r3, [pc, #148]	(f4 <Keyboard_Stand_by_Fwd+0xf4>)
  60:	220f      	movs	r2, #15
  62:	701a      	strb	r2, [r3, #0]
C:\tien\PROJEKTY\procesory\STM\T104_V100a_GASTOP\sources/control.c:1887
                TEST_ENABLE = TRUE;
  64:	4b2c      	ldr	r3, [pc, #176]	(118 <Keyboard_Stand_by_Fwd+0x118>)
C:\tien\PROJEKTY\procesory\STM\T104_V100a_GASTOP\sources/control.c:1888
                Screen_Number = PROG_TESTOWY;
  66:	320d      	adds	r2, #13
C:\tien\PROJEKTY\procesory\STM\T104_V100a_GASTOP\sources/control.c:1887
            
            case INPUT_TEST:
                Test_String_Mask = TEST_STARTED;
                Test_Cntr = 0;
                Machine_State = TEST_START;
                TEST_ENABLE = TRUE;
  68:	7018      	strb	r0, [r3, #0]
C:\tien\PROJEKTY\procesory\STM\T104_V100a_GASTOP\sources/control.c:1888
                Screen_Number = PROG_TESTOWY;
  6a:	4b2c      	ldr	r3, [pc, #176]	(11c <Keyboard_Stand_by_Fwd+0x11c>)
  6c:	701a      	strb	r2, [r3, #0]
C:\tien\PROJEKTY\procesory\STM\T104_V100a_GASTOP\sources/control.c:1889
                Reload_Screen = TRUE; 
  6e:	4b2c      	ldr	r3, [pc, #176]	(120 <Keyboard_Stand_by_Fwd+0x120>)
  70:	7018      	strb	r0, [r3, #0]
C:\tien\PROJEKTY\procesory\STM\T104_V100a_GASTOP\sources/control.c:1890
                Counters_Variables.Counters_Vars.No_Goin_Test = 0;
  72:	4b2c      	ldr	r3, [pc, #176]	(124 <Keyboard_Stand_by_Fwd+0x124>)
  74:	6099      	str	r1, [r3, #8]
C:\tien\PROJEKTY\procesory\STM\T104_V100a_GASTOP\sources/control.c:1891
                Counters_Variables.Counters_Vars.No_Goout_Test = 0;            
  76:	60d9      	str	r1, [r3, #12]
C:\tien\PROJEKTY\procesory\STM\T104_V100a_GASTOP\sources/control.c:1894
            break;
        }
        Inputs.Keyboard_Flag = 0;
  78:	4b1d      	ldr	r3, [pc, #116]	(f0 <Keyboard_Stand_by_Fwd+0xf0>)
  7a:	2200      	movs	r2, #0
  7c:	709a      	strb	r2, [r3, #2]
C:\tien\PROJEKTY\procesory\STM\T104_V100a_GASTOP\sources/control.c:1897
    }

    if ( Inputs.Keyboard_State == 0 )
  7e:	4a1c      	ldr	r2, [pc, #112]	(f0 <Keyboard_Stand_by_Fwd+0xf0>)
  80:	7853      	ldrb	r3, [r2, #1]
  82:	2b00      	cmp	r3, #0
  84:	d131      	bne.n	ea <Keyboard_Stand_by_Fwd+0xea>
  86:	e02f      	b.n	e8 <Keyboard_Stand_by_Fwd+0xe8>
C:\tien\PROJEKTY\procesory\STM\T104_V100a_GASTOP\sources/control.c:1904
        Inputs.Keyboard_Memory = 0;
    }
}
else
{
    if ( Controlling_Variables.Ctrl_Vars.Exit_Var == 0 )
  88:	2b00      	cmp	r3, #0
  8a:	d12a      	bne.n	e2 <Keyboard_Stand_by_Fwd+0xe2>
C:\tien\PROJEKTY\procesory\STM\T104_V100a_GASTOP\sources/control.c:1906
    {
        if ( !(Inputs_Level & FORWARD_ENABLE) )   
  8c:	4b26      	ldr	r3, [pc, #152]	(128 <Keyboard_Stand_by_Fwd+0x128>)
  8e:	881b      	ldrh	r3, [r3, #0]
  90:	f013 0220 	ands.w	r2, r3, #32	; 0x20
  94:	d105      	bne.n	a2 <Keyboard_Stand_by_Fwd+0xa2>
C:\tien\PROJEKTY\procesory\STM\T104_V100a_GASTOP\sources/control.c:1908
        {
            EXIT_VAR_FLAG = FALSE;
  96:	4b18      	ldr	r3, [pc, #96]	(f8 <Keyboard_Stand_by_Fwd+0xf8>)
  98:	715a      	strb	r2, [r3, #5]
C:\tien\PROJEKTY\procesory\STM\T104_V100a_GASTOP\sources/control.c:1909
            Free_Exit_Marker = 2;//STANDBY
  9a:	4b24      	ldr	r3, [pc, #144]	(12c <Keyboard_Stand_by_Fwd+0x12c>)
  9c:	f04f 0202 	mov.w	r2, #2	; 0x2
  a0:	801a      	strh	r2, [r3, #0]
C:\tien\PROJEKTY\procesory\STM\T104_V100a_GASTOP\sources/control.c:1912
        }
    
        if ( Inputs_Level & BACK_ENABLE )
  a2:	4b21      	ldr	r3, [pc, #132]	(128 <Keyboard_Stand_by_Fwd+0x128>)
  a4:	881b      	ldrh	r3, [r3, #0]
  a6:	f013 0f40 	tst.w	r3, #64	; 0x40
  aa:	d01a      	beq.n	e2 <Keyboard_Stand_by_Fwd+0xe2>
C:\tien\PROJEKTY\procesory\STM\T104_V100a_GASTOP\sources/control.c:1915
        {
            Machine_State = STANDBY_ZWORA_BCK;
            Persons_Counter_Bck++;
  ac:	4912      	ldr	r1, [pc, #72]	(f8 <Keyboard_Stand_by_Fwd+0xf8>)
C:\tien\PROJEKTY\procesory\STM\T104_V100a_GASTOP\sources/control.c:1914
            Free_Exit_Marker = 2;//STANDBY
        }
    
        if ( Inputs_Level & BACK_ENABLE )
        {
            Machine_State = STANDBY_ZWORA_BCK;
  ae:	4b11      	ldr	r3, [pc, #68]	(f4 <Keyboard_Stand_by_Fwd+0xf4>)
  b0:	2206      	movs	r2, #6
  b2:	701a      	strb	r2, [r3, #0]
C:\tien\PROJEKTY\procesory\STM\T104_V100a_GASTOP\sources/control.c:1915
            Persons_Counter_Bck++;
  b4:	884b      	ldrh	r3, [r1, #2]
C:\tien\PROJEKTY\procesory\STM\T104_V100a_GASTOP\sources/control.c:1916
            Arm_Mem_Pos = Arm_Pos;
  b6:	4a12      	ldr	r2, [pc, #72]	(100 <Keyboard_Stand_by_Fwd+0x100>)
C:\tien\PROJEKTY\procesory\STM\T104_V100a_GASTOP\sources/control.c:1915
        }
    
        if ( Inputs_Level & BACK_ENABLE )
        {
            Machine_State = STANDBY_ZWORA_BCK;
            Persons_Counter_Bck++;
  b8:	3301      	adds	r3, #1
  ba:	804b      	strh	r3, [r1, #2]
C:\tien\PROJEKTY\procesory\STM\T104_V100a_GASTOP\sources/control.c:1916
            Arm_Mem_Pos = Arm_Pos;
  bc:	4b0f      	ldr	r3, [pc, #60]	(fc <Keyboard_Stand_by_Fwd+0xfc>)
C:\tien\PROJEKTY\procesory\STM\T104_V100a_GASTOP\sources/control.c:1919
            //Controller_Variables.Controller_Vars.Sensor_Counter = IND_OFFSET;
            //Controller_Variables.Controller_Vars.Sensor_Counter_Copy = IND_OFFSET;
            Controller_Variables.Controller_Vars.Sensor_Direction_Detect = 0;
  be:	2000      	movs	r0, #0
C:\tien\PROJEKTY\procesory\STM\T104_V100a_GASTOP\sources/control.c:1916
    
        if ( Inputs_Level & BACK_ENABLE )
        {
            Machine_State = STANDBY_ZWORA_BCK;
            Persons_Counter_Bck++;
            Arm_Mem_Pos = Arm_Pos;
  c0:	881b      	ldrh	r3, [r3, #0]
C:\tien\PROJEKTY\procesory\STM\T104_V100a_GASTOP\sources/control.c:1921
            //Controller_Variables.Controller_Vars.Sensor_Counter = IND_OFFSET;
            //Controller_Variables.Controller_Vars.Sensor_Counter_Copy = IND_OFFSET;
            Controller_Variables.Controller_Vars.Sensor_Direction_Detect = 0;
            FORCING_ONCE_FLAG = TRUE;
            EXIT_FWD_BCK_FLAG = FALSE; 
  c2:	7188      	strb	r0, [r1, #6]
C:\tien\PROJEKTY\procesory\STM\T104_V100a_GASTOP\sources/control.c:1916
    
        if ( Inputs_Level & BACK_ENABLE )
        {
            Machine_State = STANDBY_ZWORA_BCK;
            Persons_Counter_Bck++;
            Arm_Mem_Pos = Arm_Pos;
  c4:	b29b      	uxth	r3, r3
  c6:	8013      	strh	r3, [r2, #0]
C:\tien\PROJEKTY\procesory\STM\T104_V100a_GASTOP\sources/control.c:1919
            //Controller_Variables.Controller_Vars.Sensor_Counter = IND_OFFSET;
            //Controller_Variables.Controller_Vars.Sensor_Counter_Copy = IND_OFFSET;
            Controller_Variables.Controller_Vars.Sensor_Direction_Detect = 0;
  c8:	4b0e      	ldr	r3, [pc, #56]	(104 <Keyboard_Stand_by_Fwd+0x104>)
C:\tien\PROJEKTY\procesory\STM\T104_V100a_GASTOP\sources/control.c:1920
            FORCING_ONCE_FLAG = TRUE;
  ca:	2201      	movs	r2, #1
C:\tien\PROJEKTY\procesory\STM\T104_V100a_GASTOP\sources/control.c:1919
            Machine_State = STANDBY_ZWORA_BCK;
            Persons_Counter_Bck++;
            Arm_Mem_Pos = Arm_Pos;
            //Controller_Variables.Controller_Vars.Sensor_Counter = IND_OFFSET;
            //Controller_Variables.Controller_Vars.Sensor_Counter_Copy = IND_OFFSET;
            Controller_Variables.Controller_Vars.Sensor_Direction_Detect = 0;
  cc:	71d8      	strb	r0, [r3, #7]
C:\tien\PROJEKTY\procesory\STM\T104_V100a_GASTOP\sources/control.c:1920
            FORCING_ONCE_FLAG = TRUE;
  ce:	4b0e      	ldr	r3, [pc, #56]	(108 <Keyboard_Stand_by_Fwd+0x108>)
C:\tien\PROJEKTY\procesory\STM\T104_V100a_GASTOP\sources/control.c:1922
            EXIT_FWD_BCK_FLAG = FALSE; 
            ENABLE_MEMORY_FLAG = TRUE;
  d0:	71ca      	strb	r2, [r1, #7]
C:\tien\PROJEKTY\procesory\STM\T104_V100a_GASTOP\sources/control.c:1920
            Persons_Counter_Bck++;
            Arm_Mem_Pos = Arm_Pos;
            //Controller_Variables.Controller_Vars.Sensor_Counter = IND_OFFSET;
            //Controller_Variables.Controller_Vars.Sensor_Counter_Copy = IND_OFFSET;
            Controller_Variables.Controller_Vars.Sensor_Direction_Detect = 0;
            FORCING_ONCE_FLAG = TRUE;
  d2:	f883 23c0 	strb.w	r2, [r3, #960]
C:\tien\PROJEKTY\procesory\STM\T104_V100a_GASTOP\sources/control.c:1923
            EXIT_FWD_BCK_FLAG = FALSE; 
            ENABLE_MEMORY_FLAG = TRUE;
            System_Timer_Setting ( &Trans_Timer.Timer, Controlling_Variables.Ctrl_Vars.Trans_time, T_1sec );
  d6:	4b05      	ldr	r3, [pc, #20]	(ec <Keyboard_Stand_by_Fwd+0xec>)
  d8:	480c      	ldr	r0, [pc, #48]	(10c <Keyboard_Stand_by_Fwd+0x10c>)
  da:	8b99      	ldrh	r1, [r3, #28]
  dc:	3202      	adds	r2, #2
  de:	f7ff fffe 	bl	0 <System_Timer_Setting>
C:\tien\PROJEKTY\procesory\STM\T104_V100a_GASTOP\sources/control.c:1926
        } 
    }
    Inputs.Keyboard_Flag = 0;
  e2:	4a03      	ldr	r2, [pc, #12]	(f0 <Keyboard_Stand_by_Fwd+0xf0>)
  e4:	2300      	movs	r3, #0
  e6:	7093      	strb	r3, [r2, #2]
C:\tien\PROJEKTY\procesory\STM\T104_V100a_GASTOP\sources/control.c:1927
    Inputs.Keyboard_Memory = 0;
  e8:	7013      	strb	r3, [r2, #0]
C:\tien\PROJEKTY\procesory\STM\T104_V100a_GASTOP\sources/control.c:1929
}
}
  ea:	bd10      	pop	{r4, pc}
	...
Disassembly of section .text.Start_Ind_Fun:

00000000 <Start_Ind_Fun>:
Start_Ind_Fun():
C:\tien\PROJEKTY\procesory\STM\T104_V100a_GASTOP\sources/control.c:2831
    Machine_State = Control_Variables[Machine_State].Motor_Enc_Ptr->Next[0];
}

static void Start_Ind_Fun ( void )
{
    Machine_State = Control_Variables[Machine_State].Motor_Enc_Ptr->Next[0];
   0:	4910      	ldr	r1, [pc, #64]	(44 <Start_Ind_Fun+0x44>)
C:\tien\PROJEKTY\procesory\STM\T104_V100a_GASTOP\sources/control.c:2830

    Machine_State = Control_Variables[Machine_State].Motor_Enc_Ptr->Next[0];
}

static void Start_Ind_Fun ( void )
{
   2:	b570      	push	{r4, r5, r6, lr}
C:\tien\PROJEKTY\procesory\STM\T104_V100a_GASTOP\sources/control.c:2831
    Machine_State = Control_Variables[Machine_State].Motor_Enc_Ptr->Next[0];
   4:	780b      	ldrb	r3, [r1, #0]
   6:	4c10      	ldr	r4, [pc, #64]	(48 <Start_Ind_Fun+0x48>)
   8:	2014      	movs	r0, #20
   a:	fb00 4303 	mla	r3, r0, r3, r4
   e:	68db      	ldr	r3, [r3, #12]
C:\tien\PROJEKTY\procesory\STM\T104_V100a_GASTOP\sources/control.c:2833

    Ind_Test_Marker = 0;
  10:	2200      	movs	r2, #0
C:\tien\PROJEKTY\procesory\STM\T104_V100a_GASTOP\sources/control.c:2831
    Machine_State = Control_Variables[Machine_State].Motor_Enc_Ptr->Next[0];
}

static void Start_Ind_Fun ( void )
{
    Machine_State = Control_Variables[Machine_State].Motor_Enc_Ptr->Next[0];
  12:	791b      	ldrb	r3, [r3, #4]
  14:	700b      	strb	r3, [r1, #0]
C:\tien\PROJEKTY\procesory\STM\T104_V100a_GASTOP\sources/control.c:2833

    Ind_Test_Marker = 0;
  16:	4b0d      	ldr	r3, [pc, #52]	(4c <Start_Ind_Fun+0x4c>)
  18:	701a      	strb	r2, [r3, #0]
C:\tien\PROJEKTY\procesory\STM\T104_V100a_GASTOP\sources/control.c:2834
    IND_TEST_FLAG = FALSE;
  1a:	4b0d      	ldr	r3, [pc, #52]	(50 <Start_Ind_Fun+0x50>)
  1c:	721a      	strb	r2, [r3, #8]
C:\tien\PROJEKTY\procesory\STM\T104_V100a_GASTOP\sources/control.c:2836

    System_Timer_Setting (  &Control_Variables[Machine_State].Time_Connection_Ptr->Tmr_Cntr_Ptr->Timer,
  1e:	780b      	ldrb	r3, [r1, #0]
  20:	780a      	ldrb	r2, [r1, #0]
  22:	fb00 4303 	mla	r3, r0, r3, r4
  26:	fb00 4202 	mla	r2, r0, r2, r4
  2a:	7809      	ldrb	r1, [r1, #0]
  2c:	689d      	ldr	r5, [r3, #8]
  2e:	fb00 4101 	mla	r1, r0, r1, r4
  32:	6893      	ldr	r3, [r2, #8]
  34:	68a8      	ldr	r0, [r5, #8]
  36:	681a      	ldr	r2, [r3, #0]
  38:	688b      	ldr	r3, [r1, #8]
  3a:	8811      	ldrh	r1, [r2, #0]
  3c:	791a      	ldrb	r2, [r3, #4]
  3e:	f7ff fffe 	bl	0 <System_Timer_Setting>
C:\tien\PROJEKTY\procesory\STM\T104_V100a_GASTOP\sources/control.c:2840
                            *Control_Variables[Machine_State].Time_Connection_Ptr->Time_Value,
                             Control_Variables[Machine_State].Time_Connection_Ptr->Resolution );

}
  42:	bd70      	pop	{r4, r5, r6, pc}
	...
Disassembly of section .text.Test_Loop:

00000000 <Test_Loop>:
Test_Loop():
C:\tien\PROJEKTY\procesory\STM\T104_V100a_GASTOP\sources/control.c:1646
* Input          : None
* Output         : None
* Return         : TNone
*******************************************************************************/
static void Test_Loop ( void )
{
   0:	b570      	push	{r4, r5, r6, lr}
C:\tien\PROJEKTY\procesory\STM\T104_V100a_GASTOP\sources/control.c:1647
    if ( Service_Variables.Serv_Vars.Sensor_Type == 0 )//ENKODER
   2:	4a2f      	ldr	r2, [pc, #188]	(c0 <Test_Loop+0xc0>)
   4:	f892 306d 	ldrb.w	r3, [r2, #109]
   8:	2b00      	cmp	r3, #0
   a:	d12a      	bne.n	62 <Test_Loop+0x62>
C:\tien\PROJEKTY\procesory\STM\T104_V100a_GASTOP\sources/control.c:1649
    {
        if ( Position_Check(Service_Variables.Serv_Vars.Serwis_003) == TRUE )
   c:	8dd0      	ldrh	r0, [r2, #46]
   e:	f7ff fffe 	bl	0 <Test_Loop>
  12:	2801      	cmp	r0, #1
  14:	d152      	bne.n	bc <Test_Loop+0xbc>
C:\tien\PROJEKTY\procesory\STM\T104_V100a_GASTOP\sources/control.c:1651
        {
            if ( Encoder_Angle != Actual_Angle )
  16:	4b2b      	ldr	r3, [pc, #172]	(c4 <Test_Loop+0xc4>)
  18:	781a      	ldrb	r2, [r3, #0]
  1a:	4b2b      	ldr	r3, [pc, #172]	(c8 <Test_Loop+0xc8>)
  1c:	781b      	ldrb	r3, [r3, #0]
  1e:	429a      	cmp	r2, r3
  20:	d01a      	beq.n	58 <Test_Loop+0x58>
C:\tien\PROJEKTY\procesory\STM\T104_V100a_GASTOP\sources/control.c:1653
            {
                Machine_State = Control_Variables[Machine_State].Motor_Enc_Ptr->Next[0];
  22:	492a      	ldr	r1, [pc, #168]	(cc <Test_Loop+0xcc>)
  24:	4c2a      	ldr	r4, [pc, #168]	(d0 <Test_Loop+0xd0>)
  26:	780b      	ldrb	r3, [r1, #0]
  28:	3013      	adds	r0, #19
  2a:	fb00 4303 	mla	r3, r0, r3, r4
  2e:	68db      	ldr	r3, [r3, #12]
  30:	791b      	ldrb	r3, [r3, #4]
  32:	700b      	strb	r3, [r1, #0]
C:\tien\PROJEKTY\procesory\STM\T104_V100a_GASTOP\sources/control.c:1655

                System_Timer_Setting (  &Control_Variables[Machine_State].Time_Connection_Ptr->Tmr_Cntr_Ptr->Timer,
  34:	780b      	ldrb	r3, [r1, #0]
  36:	780a      	ldrb	r2, [r1, #0]
  38:	fb00 4303 	mla	r3, r0, r3, r4
  3c:	fb00 4202 	mla	r2, r0, r2, r4
  40:	7809      	ldrb	r1, [r1, #0]
  42:	689d      	ldr	r5, [r3, #8]
  44:	fb00 4101 	mla	r1, r0, r1, r4
  48:	6893      	ldr	r3, [r2, #8]
  4a:	68a8      	ldr	r0, [r5, #8]
  4c:	681a      	ldr	r2, [r3, #0]
  4e:	688b      	ldr	r3, [r1, #8]
  50:	8811      	ldrh	r1, [r2, #0]
  52:	791a      	ldrb	r2, [r3, #4]
  54:	f7ff fffe 	bl	0 <System_Timer_Setting>
C:\tien\PROJEKTY\procesory\STM\T104_V100a_GASTOP\sources/control.c:1659
                                        *Control_Variables[Machine_State].Time_Connection_Ptr->Time_Value,
                                        Control_Variables[Machine_State].Time_Connection_Ptr->Resolution );
            }
            Actual_Angle = Encoder_Angle;
  58:	4b1a      	ldr	r3, [pc, #104]	(c4 <Test_Loop+0xc4>)
  5a:	4a1b      	ldr	r2, [pc, #108]	(c8 <Test_Loop+0xc8>)
  5c:	781b      	ldrb	r3, [r3, #0]
  5e:	7013      	strb	r3, [r2, #0]
  60:	e02c      	b.n	bc <Test_Loop+0xbc>
C:\tien\PROJEKTY\procesory\STM\T104_V100a_GASTOP\sources/control.c:1664
        }
    }
    else//Inductive
    {
        if ( IND_SENSOR1_POSITION == FALSE )
  62:	4d1b      	ldr	r5, [pc, #108]	(d0 <Test_Loop+0xd0>)
  64:	4a1b      	ldr	r2, [pc, #108]	(d4 <Test_Loop+0xd4>)
  66:	f895 33c1 	ldrb.w	r3, [r5, #961]
  6a:	bb0b      	cbnz	r3, b0 <Test_Loop+0xb0>
C:\tien\PROJEKTY\procesory\STM\T104_V100a_GASTOP\sources/control.c:1666
        {
            if ( (Inputs_Level & IND_SENSOR1) != 0 )
  6c:	8813      	ldrh	r3, [r2, #0]
  6e:	f013 0f04 	tst.w	r3, #4	; 0x4
  72:	d023      	beq.n	bc <Test_Loop+0xbc>
C:\tien\PROJEKTY\procesory\STM\T104_V100a_GASTOP\sources/control.c:1668
            {
                Machine_State = Control_Variables[Machine_State].Motor_Enc_Ptr->Next[0];
  74:	4915      	ldr	r1, [pc, #84]	(cc <Test_Loop+0xcc>)
  76:	2014      	movs	r0, #20
  78:	780b      	ldrb	r3, [r1, #0]
  7a:	fb00 5303 	mla	r3, r0, r3, r5
  7e:	68db      	ldr	r3, [r3, #12]
  80:	791b      	ldrb	r3, [r3, #4]
  82:	700b      	strb	r3, [r1, #0]
C:\tien\PROJEKTY\procesory\STM\T104_V100a_GASTOP\sources/control.c:1669
                IND_SENSOR1_POSITION = TRUE;
  84:	2301      	movs	r3, #1
  86:	f885 33c1 	strb.w	r3, [r5, #961]
C:\tien\PROJEKTY\procesory\STM\T104_V100a_GASTOP\sources/control.c:1670
                System_Timer_Setting (  &Control_Variables[Machine_State].Time_Connection_Ptr->Tmr_Cntr_Ptr->Timer,
  8a:	780b      	ldrb	r3, [r1, #0]
  8c:	780a      	ldrb	r2, [r1, #0]
  8e:	fb00 5303 	mla	r3, r0, r3, r5
  92:	fb00 5202 	mla	r2, r0, r2, r5
  96:	7809      	ldrb	r1, [r1, #0]
  98:	689c      	ldr	r4, [r3, #8]
  9a:	fb00 5101 	mla	r1, r0, r1, r5
  9e:	6893      	ldr	r3, [r2, #8]
  a0:	68a0      	ldr	r0, [r4, #8]
  a2:	681a      	ldr	r2, [r3, #0]
  a4:	688b      	ldr	r3, [r1, #8]
  a6:	8811      	ldrh	r1, [r2, #0]
  a8:	791a      	ldrb	r2, [r3, #4]
  aa:	f7ff fffe 	bl	0 <System_Timer_Setting>
  ae:	e005      	b.n	bc <Test_Loop+0xbc>
C:\tien\PROJEKTY\procesory\STM\T104_V100a_GASTOP\sources/control.c:1677
                                        Control_Variables[Machine_State].Time_Connection_Ptr->Resolution );            
            }
        }
        else
        {
            if ( (Inputs_Level & IND_SENSOR1) == 0 )
  b0:	8813      	ldrh	r3, [r2, #0]
  b2:	f013 0304 	ands.w	r3, r3, #4	; 0x4
C:\tien\PROJEKTY\procesory\STM\T104_V100a_GASTOP\sources/control.c:1679
            {   
                IND_SENSOR1_POSITION = FALSE;
  b6:	bf08      	it	eq
  b8:	f885 33c1 	strbeq.w	r3, [r5, #961]
C:\tien\PROJEKTY\procesory\STM\T104_V100a_GASTOP\sources/control.c:1684
            }
        }
    }    

}
  bc:	bd70      	pop	{r4, r5, r6, pc}
  be:	46c0      	nop			(mov r8, r8)
	...
Disassembly of section .text.Backwords_Check:

00000000 <Backwords_Check>:
Backwords_Check():
C:\tien\PROJEKTY\procesory\STM\T104_V100a_GASTOP\sources/control.c:1247
static void Backwords_Check ( void )
{
	static uint16_t Arm_Pos_Tmp6;
	static uint16_t Arm_Pos_Tmp7;

	Arm_Pos_Tmp6 = Arm_Mem_Pos;
   0:	4b2e      	ldr	r3, [pc, #184]	(bc <Backwords_Check+0xbc>)
   2:	482f      	ldr	r0, [pc, #188]	(c0 <Backwords_Check+0xc0>)
   4:	881b      	ldrh	r3, [r3, #0]
C:\tien\PROJEKTY\procesory\STM\T104_V100a_GASTOP\sources/control.c:1243
* Input          : None
* Output         : None
* Return         : None
*******************************************************************************/
static void Backwords_Check ( void )
{
   6:	b570      	push	{r4, r5, r6, lr}
C:\tien\PROJEKTY\procesory\STM\T104_V100a_GASTOP\sources/control.c:1247
	static uint16_t Arm_Pos_Tmp6;
	static uint16_t Arm_Pos_Tmp7;

	Arm_Pos_Tmp6 = Arm_Mem_Pos;
   8:	b299      	uxth	r1, r3
C:\tien\PROJEKTY\procesory\STM\T104_V100a_GASTOP\sources/control.c:1248
	Arm_Pos_Tmp7 = Arm_Pos;
   a:	4b2e      	ldr	r3, [pc, #184]	(c4 <Backwords_Check+0xc4>)
C:\tien\PROJEKTY\procesory\STM\T104_V100a_GASTOP\sources/control.c:1247
static void Backwords_Check ( void )
{
	static uint16_t Arm_Pos_Tmp6;
	static uint16_t Arm_Pos_Tmp7;

	Arm_Pos_Tmp6 = Arm_Mem_Pos;
   c:	8141      	strh	r1, [r0, #10]
C:\tien\PROJEKTY\procesory\STM\T104_V100a_GASTOP\sources/control.c:1248
	Arm_Pos_Tmp7 = Arm_Pos;
   e:	881b      	ldrh	r3, [r3, #0]
  10:	b29a      	uxth	r2, r3
C:\tien\PROJEKTY\procesory\STM\T104_V100a_GASTOP\sources/control.c:1250

	if ( (Arm_Pos_Tmp6 + 512) < Arm_Pos_Tmp7)
  12:	f501 7300 	add.w	r3, r1, #512	; 0x200
  16:	4293      	cmp	r3, r2
C:\tien\PROJEKTY\procesory\STM\T104_V100a_GASTOP\sources/control.c:1248
{
	static uint16_t Arm_Pos_Tmp6;
	static uint16_t Arm_Pos_Tmp7;

	Arm_Pos_Tmp6 = Arm_Mem_Pos;
	Arm_Pos_Tmp7 = Arm_Pos;
  18:	8182      	strh	r2, [r0, #12]
C:\tien\PROJEKTY\procesory\STM\T104_V100a_GASTOP\sources/control.c:1250

	if ( (Arm_Pos_Tmp6 + 512) < Arm_Pos_Tmp7)
  1a:	da03      	bge.n	24 <Backwords_Check+0x24>
C:\tien\PROJEKTY\procesory\STM\T104_V100a_GASTOP\sources/control.c:1252
	{
		Arm_Pos_Tmp7 -= 1023;
  1c:	f502 437c 	add.w	r3, r2, #64512	; 0xfc00
  20:	3301      	adds	r3, #1
  22:	8183      	strh	r3, [r0, #12]
C:\tien\PROJEKTY\procesory\STM\T104_V100a_GASTOP\sources/control.c:1255
	}

	if ( (Arm_Pos_Tmp6 - 512) > Arm_Pos_Tmp7 )
  24:	4826      	ldr	r0, [pc, #152]	(c0 <Backwords_Check+0xc0>)
  26:	f5a1 7300 	sub.w	r3, r1, #512	; 0x200
  2a:	8982      	ldrh	r2, [r0, #12]
  2c:	4293      	cmp	r3, r2
  2e:	dd03      	ble.n	38 <Backwords_Check+0x38>
C:\tien\PROJEKTY\procesory\STM\T104_V100a_GASTOP\sources/control.c:1257
	{
		Arm_Pos_Tmp7 += 1023;
  30:	f502 737e 	add.w	r3, r2, #1016	; 0x3f8
  34:	3307      	adds	r3, #7
  36:	8183      	strh	r3, [r0, #12]
C:\tien\PROJEKTY\procesory\STM\T104_V100a_GASTOP\sources/control.c:1260
	}

    if ( Service_Variables.Serv_Vars.Sensor_Type == 0 )//ENKODER
  38:	4d23      	ldr	r5, [pc, #140]	(c8 <Backwords_Check+0xc8>)
  3a:	f895 306d 	ldrb.w	r3, [r5, #109]
  3e:	b9cb      	cbnz	r3, 74 <Backwords_Check+0x74>
C:\tien\PROJEKTY\procesory\STM\T104_V100a_GASTOP\sources/control.c:1262
    {
        if ( (Arm_Pos_Tmp6 - Service_Variables.Serv_Vars.Serwis_002) > Arm_Pos_Tmp7 )
  40:	4a1f      	ldr	r2, [pc, #124]	(c0 <Backwords_Check+0xc0>)
  42:	8dab      	ldrh	r3, [r5, #44]
  44:	8992      	ldrh	r2, [r2, #12]
  46:	1acb      	subs	r3, r1, r3
  48:	4293      	cmp	r3, r2
  4a:	dd36      	ble.n	ba <Backwords_Check+0xba>
C:\tien\PROJEKTY\procesory\STM\T104_V100a_GASTOP\sources/control.c:1264
        {
            Arm_Window_Pos = Arm_Pos;
  4c:	4b1d      	ldr	r3, [pc, #116]	(c4 <Backwords_Check+0xc4>)
  4e:	4a1f      	ldr	r2, [pc, #124]	(cc <Backwords_Check+0xcc>)
  50:	881b      	ldrh	r3, [r3, #0]
C:\tien\PROJEKTY\procesory\STM\T104_V100a_GASTOP\sources/control.c:1265
            Machine_State = Control_Variables[Machine_State].Motor_Enc_Ptr->Next[0];
  52:	481f      	ldr	r0, [pc, #124]	(d0 <Backwords_Check+0xd0>)
C:\tien\PROJEKTY\procesory\STM\T104_V100a_GASTOP\sources/control.c:1264

    if ( Service_Variables.Serv_Vars.Sensor_Type == 0 )//ENKODER
    {
        if ( (Arm_Pos_Tmp6 - Service_Variables.Serv_Vars.Serwis_002) > Arm_Pos_Tmp7 )
        {
            Arm_Window_Pos = Arm_Pos;
  54:	b29b      	uxth	r3, r3
  56:	8013      	strh	r3, [r2, #0]
C:\tien\PROJEKTY\procesory\STM\T104_V100a_GASTOP\sources/control.c:1265
            Machine_State = Control_Variables[Machine_State].Motor_Enc_Ptr->Next[0];
  58:	7803      	ldrb	r3, [r0, #0]
  5a:	4a1e      	ldr	r2, [pc, #120]	(d4 <Backwords_Check+0xd4>)
  5c:	2114      	movs	r1, #20
  5e:	fb01 2303 	mla	r3, r1, r3, r2
  62:	68db      	ldr	r3, [r3, #12]
C:\tien\PROJEKTY\procesory\STM\T104_V100a_GASTOP\sources/control.c:1266
            System_Timer_Setting ( &Arm_Window_Timer.Timer, Service_Variables.Serv_Vars.Serwis_005, T_10msec );
  64:	8e69      	ldrh	r1, [r5, #50]
C:\tien\PROJEKTY\procesory\STM\T104_V100a_GASTOP\sources/control.c:1265
    if ( Service_Variables.Serv_Vars.Sensor_Type == 0 )//ENKODER
    {
        if ( (Arm_Pos_Tmp6 - Service_Variables.Serv_Vars.Serwis_002) > Arm_Pos_Tmp7 )
        {
            Arm_Window_Pos = Arm_Pos;
            Machine_State = Control_Variables[Machine_State].Motor_Enc_Ptr->Next[0];
  66:	791b      	ldrb	r3, [r3, #4]
C:\tien\PROJEKTY\procesory\STM\T104_V100a_GASTOP\sources/control.c:1266
            System_Timer_Setting ( &Arm_Window_Timer.Timer, Service_Variables.Serv_Vars.Serwis_005, T_10msec );
  68:	2201      	movs	r2, #1
C:\tien\PROJEKTY\procesory\STM\T104_V100a_GASTOP\sources/control.c:1265
    if ( Service_Variables.Serv_Vars.Sensor_Type == 0 )//ENKODER
    {
        if ( (Arm_Pos_Tmp6 - Service_Variables.Serv_Vars.Serwis_002) > Arm_Pos_Tmp7 )
        {
            Arm_Window_Pos = Arm_Pos;
            Machine_State = Control_Variables[Machine_State].Motor_Enc_Ptr->Next[0];
  6a:	7003      	strb	r3, [r0, #0]
C:\tien\PROJEKTY\procesory\STM\T104_V100a_GASTOP\sources/control.c:1266
            System_Timer_Setting ( &Arm_Window_Timer.Timer, Service_Variables.Serv_Vars.Serwis_005, T_10msec );
  6c:	481a      	ldr	r0, [pc, #104]	(d8 <Backwords_Check+0xd8>)
  6e:	f7ff fffe 	bl	0 <System_Timer_Setting>
  72:	e022      	b.n	ba <Backwords_Check+0xba>
C:\tien\PROJEKTY\procesory\STM\T104_V100a_GASTOP\sources/control.c:1272
        }

    }
    else//Inductive
    {
        if ( !(Inputs_Level & IND_SENSOR1) )
  74:	4b19      	ldr	r3, [pc, #100]	(dc <Backwords_Check+0xdc>)
  76:	881b      	ldrh	r3, [r3, #0]
  78:	f013 0f04 	tst.w	r3, #4	; 0x4
  7c:	d11d      	bne.n	ba <Backwords_Check+0xba>
C:\tien\PROJEKTY\procesory\STM\T104_V100a_GASTOP\sources/control.c:1274
        {
            if ( Controller_Variables.Controller_Vars.Sensor_Counter <= (IND_OFFSET-Service_Variables.Serv_Vars.Sensor_Counter_Move) )
  7e:	4c18      	ldr	r4, [pc, #96]	(e0 <Backwords_Check+0xe0>)
  80:	f895 306f 	ldrb.w	r3, [r5, #111]
  84:	7922      	ldrb	r2, [r4, #4]
  86:	f1c3 0364 	rsb	r3, r3, #100	; 0x64
  8a:	429a      	cmp	r2, r3
  8c:	dc15      	bgt.n	ba <Backwords_Check+0xba>
C:\tien\PROJEKTY\procesory\STM\T104_V100a_GASTOP\sources/control.c:1276
            {
                Machine_State = Control_Variables[Machine_State].Motor_Enc_Ptr->Next[0];
  8e:	4810      	ldr	r0, [pc, #64]	(d0 <Backwords_Check+0xd0>)
  90:	4a10      	ldr	r2, [pc, #64]	(d4 <Backwords_Check+0xd4>)
  92:	7803      	ldrb	r3, [r0, #0]
  94:	2114      	movs	r1, #20
  96:	fb01 2303 	mla	r3, r1, r3, r2
  9a:	68db      	ldr	r3, [r3, #12]
C:\tien\PROJEKTY\procesory\STM\T104_V100a_GASTOP\sources/control.c:1277
                System_Timer_Setting ( &Arm_Window_Timer.Timer, Service_Variables.Serv_Vars.Serwis_005, T_10msec );
  9c:	8e69      	ldrh	r1, [r5, #50]
C:\tien\PROJEKTY\procesory\STM\T104_V100a_GASTOP\sources/control.c:1276
    {
        if ( !(Inputs_Level & IND_SENSOR1) )
        {
            if ( Controller_Variables.Controller_Vars.Sensor_Counter <= (IND_OFFSET-Service_Variables.Serv_Vars.Sensor_Counter_Move) )
            {
                Machine_State = Control_Variables[Machine_State].Motor_Enc_Ptr->Next[0];
  9e:	791b      	ldrb	r3, [r3, #4]
C:\tien\PROJEKTY\procesory\STM\T104_V100a_GASTOP\sources/control.c:1277
                System_Timer_Setting ( &Arm_Window_Timer.Timer, Service_Variables.Serv_Vars.Serwis_005, T_10msec );
  a0:	2201      	movs	r2, #1
C:\tien\PROJEKTY\procesory\STM\T104_V100a_GASTOP\sources/control.c:1276
    {
        if ( !(Inputs_Level & IND_SENSOR1) )
        {
            if ( Controller_Variables.Controller_Vars.Sensor_Counter <= (IND_OFFSET-Service_Variables.Serv_Vars.Sensor_Counter_Move) )
            {
                Machine_State = Control_Variables[Machine_State].Motor_Enc_Ptr->Next[0];
  a2:	7003      	strb	r3, [r0, #0]
C:\tien\PROJEKTY\procesory\STM\T104_V100a_GASTOP\sources/control.c:1277
                System_Timer_Setting ( &Arm_Window_Timer.Timer, Service_Variables.Serv_Vars.Serwis_005, T_10msec );
  a4:	480c      	ldr	r0, [pc, #48]	(d8 <Backwords_Check+0xd8>)
  a6:	f7ff fffe 	bl	0 <System_Timer_Setting>
C:\tien\PROJEKTY\procesory\STM\T104_V100a_GASTOP\sources/control.c:1278
                System_Timer_Setting ( &Transition_Timer.Timer, Controlling_Variables.Ctrl_Vars.Transition_time, T_100msec );
  aa:	4b0e      	ldr	r3, [pc, #56]	(e4 <Backwords_Check+0xe4>)
  ac:	480e      	ldr	r0, [pc, #56]	(e8 <Backwords_Check+0xe8>)
  ae:	8a99      	ldrh	r1, [r3, #20]
  b0:	2202      	movs	r2, #2
  b2:	f7ff fffe 	bl	0 <System_Timer_Setting>
C:\tien\PROJEKTY\procesory\STM\T104_V100a_GASTOP\sources/control.c:1279
                Controller_Variables.Controller_Vars.Sensor_Counter_Copy = Controller_Variables.Controller_Vars.Sensor_Counter;            
  b6:	7923      	ldrb	r3, [r4, #4]
  b8:	71a3      	strb	r3, [r4, #6]
C:\tien\PROJEKTY\procesory\STM\T104_V100a_GASTOP\sources/control.c:1283
            }
        }
    }
}
  ba:	bd70      	pop	{r4, r5, r6, pc}
	...
Disassembly of section .text.Forward_Check:

00000000 <Forward_Check>:
Forward_Check():
C:\tien\PROJEKTY\procesory\STM\T104_V100a_GASTOP\sources/control.c:966
static void Forward_Check ( void )
{
	static uint16_t Arm_Pos_Tmp1;
	static uint16_t Arm_Pos_Tmp2;

	Arm_Pos_Tmp1 = Arm_Pos;
   0:	4b2e      	ldr	r3, [pc, #184]	(bc <Forward_Check+0xbc>)
   2:	482f      	ldr	r0, [pc, #188]	(c0 <Forward_Check+0xc0>)
   4:	881b      	ldrh	r3, [r3, #0]
C:\tien\PROJEKTY\procesory\STM\T104_V100a_GASTOP\sources/control.c:962
* Input          : None
* Output         : None
* Return         : Nono
*******************************************************************************/
static void Forward_Check ( void )
{
   6:	b570      	push	{r4, r5, r6, lr}
C:\tien\PROJEKTY\procesory\STM\T104_V100a_GASTOP\sources/control.c:966
	static uint16_t Arm_Pos_Tmp1;
	static uint16_t Arm_Pos_Tmp2;

	Arm_Pos_Tmp1 = Arm_Pos;
   8:	b29a      	uxth	r2, r3
C:\tien\PROJEKTY\procesory\STM\T104_V100a_GASTOP\sources/control.c:967
	Arm_Pos_Tmp2 = Arm_Mem_Pos;
   a:	4b2e      	ldr	r3, [pc, #184]	(c4 <Forward_Check+0xc4>)
C:\tien\PROJEKTY\procesory\STM\T104_V100a_GASTOP\sources/control.c:966
static void Forward_Check ( void )
{
	static uint16_t Arm_Pos_Tmp1;
	static uint16_t Arm_Pos_Tmp2;

	Arm_Pos_Tmp1 = Arm_Pos;
   c:	81c2      	strh	r2, [r0, #14]
C:\tien\PROJEKTY\procesory\STM\T104_V100a_GASTOP\sources/control.c:967
	Arm_Pos_Tmp2 = Arm_Mem_Pos;
   e:	881b      	ldrh	r3, [r3, #0]
  10:	b299      	uxth	r1, r3
C:\tien\PROJEKTY\procesory\STM\T104_V100a_GASTOP\sources/control.c:969

	if ( (Arm_Pos_Tmp2 - 512) > Arm_Pos_Tmp1 )
  12:	f5a1 7300 	sub.w	r3, r1, #512	; 0x200
  16:	4293      	cmp	r3, r2
C:\tien\PROJEKTY\procesory\STM\T104_V100a_GASTOP\sources/control.c:967
{
	static uint16_t Arm_Pos_Tmp1;
	static uint16_t Arm_Pos_Tmp2;

	Arm_Pos_Tmp1 = Arm_Pos;
	Arm_Pos_Tmp2 = Arm_Mem_Pos;
  18:	8201      	strh	r1, [r0, #16]
C:\tien\PROJEKTY\procesory\STM\T104_V100a_GASTOP\sources/control.c:969

	if ( (Arm_Pos_Tmp2 - 512) > Arm_Pos_Tmp1 )
  1a:	dd03      	ble.n	24 <Forward_Check+0x24>
C:\tien\PROJEKTY\procesory\STM\T104_V100a_GASTOP\sources/control.c:971
	{
		Arm_Pos_Tmp1 += 1023;
  1c:	f502 737e 	add.w	r3, r2, #1016	; 0x3f8
  20:	3307      	adds	r3, #7
  22:	81c3      	strh	r3, [r0, #14]
C:\tien\PROJEKTY\procesory\STM\T104_V100a_GASTOP\sources/control.c:974
	}

	if ( (Arm_Pos_Tmp2 + 512) < Arm_Pos_Tmp1 )
  24:	4826      	ldr	r0, [pc, #152]	(c0 <Forward_Check+0xc0>)
  26:	f501 7300 	add.w	r3, r1, #512	; 0x200
  2a:	89c2      	ldrh	r2, [r0, #14]
  2c:	4293      	cmp	r3, r2
  2e:	da03      	bge.n	38 <Forward_Check+0x38>
C:\tien\PROJEKTY\procesory\STM\T104_V100a_GASTOP\sources/control.c:976
	{
		Arm_Pos_Tmp1 -= 1023;
  30:	f502 437c 	add.w	r3, r2, #64512	; 0xfc00
  34:	3301      	adds	r3, #1
  36:	81c3      	strh	r3, [r0, #14]
C:\tien\PROJEKTY\procesory\STM\T104_V100a_GASTOP\sources/control.c:979
	}

        if ( Service_Variables.Serv_Vars.Sensor_Type == 0 )//ENKODER
  38:	4d23      	ldr	r5, [pc, #140]	(c8 <Forward_Check+0xc8>)
  3a:	f895 306d 	ldrb.w	r3, [r5, #109]
  3e:	b9cb      	cbnz	r3, 74 <Forward_Check+0x74>
C:\tien\PROJEKTY\procesory\STM\T104_V100a_GASTOP\sources/control.c:981
        {
            if ( (Arm_Pos_Tmp2 + Service_Variables.Serv_Vars.Serwis_001) < Arm_Pos_Tmp1 )
  40:	4a1f      	ldr	r2, [pc, #124]	(c0 <Forward_Check+0xc0>)
  42:	8d6b      	ldrh	r3, [r5, #42]
  44:	89d2      	ldrh	r2, [r2, #14]
  46:	185b      	adds	r3, r3, r1
  48:	4293      	cmp	r3, r2
  4a:	da35      	bge.n	b8 <Forward_Check+0xb8>
C:\tien\PROJEKTY\procesory\STM\T104_V100a_GASTOP\sources/control.c:983
            {
                Arm_Window_Pos = Arm_Pos;
  4c:	4b1b      	ldr	r3, [pc, #108]	(bc <Forward_Check+0xbc>)
  4e:	4a1f      	ldr	r2, [pc, #124]	(cc <Forward_Check+0xcc>)
  50:	881b      	ldrh	r3, [r3, #0]
C:\tien\PROJEKTY\procesory\STM\T104_V100a_GASTOP\sources/control.c:984
                Machine_State = Control_Variables[Machine_State].Motor_Enc_Ptr->Next[0];
  52:	481f      	ldr	r0, [pc, #124]	(d0 <Forward_Check+0xd0>)
C:\tien\PROJEKTY\procesory\STM\T104_V100a_GASTOP\sources/control.c:983

        if ( Service_Variables.Serv_Vars.Sensor_Type == 0 )//ENKODER
        {
            if ( (Arm_Pos_Tmp2 + Service_Variables.Serv_Vars.Serwis_001) < Arm_Pos_Tmp1 )
            {
                Arm_Window_Pos = Arm_Pos;
  54:	b29b      	uxth	r3, r3
  56:	8013      	strh	r3, [r2, #0]
C:\tien\PROJEKTY\procesory\STM\T104_V100a_GASTOP\sources/control.c:984
                Machine_State = Control_Variables[Machine_State].Motor_Enc_Ptr->Next[0];
  58:	7803      	ldrb	r3, [r0, #0]
  5a:	4a1e      	ldr	r2, [pc, #120]	(d4 <Forward_Check+0xd4>)
  5c:	2114      	movs	r1, #20
  5e:	fb01 2303 	mla	r3, r1, r3, r2
  62:	68db      	ldr	r3, [r3, #12]
C:\tien\PROJEKTY\procesory\STM\T104_V100a_GASTOP\sources/control.c:985
                System_Timer_Setting ( &Arm_Window_Timer.Timer, Service_Variables.Serv_Vars.Serwis_005, T_10msec );
  64:	8e69      	ldrh	r1, [r5, #50]
C:\tien\PROJEKTY\procesory\STM\T104_V100a_GASTOP\sources/control.c:984
        if ( Service_Variables.Serv_Vars.Sensor_Type == 0 )//ENKODER
        {
            if ( (Arm_Pos_Tmp2 + Service_Variables.Serv_Vars.Serwis_001) < Arm_Pos_Tmp1 )
            {
                Arm_Window_Pos = Arm_Pos;
                Machine_State = Control_Variables[Machine_State].Motor_Enc_Ptr->Next[0];
  66:	791b      	ldrb	r3, [r3, #4]
C:\tien\PROJEKTY\procesory\STM\T104_V100a_GASTOP\sources/control.c:985
                System_Timer_Setting ( &Arm_Window_Timer.Timer, Service_Variables.Serv_Vars.Serwis_005, T_10msec );
  68:	2201      	movs	r2, #1
C:\tien\PROJEKTY\procesory\STM\T104_V100a_GASTOP\sources/control.c:984
        if ( Service_Variables.Serv_Vars.Sensor_Type == 0 )//ENKODER
        {
            if ( (Arm_Pos_Tmp2 + Service_Variables.Serv_Vars.Serwis_001) < Arm_Pos_Tmp1 )
            {
                Arm_Window_Pos = Arm_Pos;
                Machine_State = Control_Variables[Machine_State].Motor_Enc_Ptr->Next[0];
  6a:	7003      	strb	r3, [r0, #0]
C:\tien\PROJEKTY\procesory\STM\T104_V100a_GASTOP\sources/control.c:985
                System_Timer_Setting ( &Arm_Window_Timer.Timer, Service_Variables.Serv_Vars.Serwis_005, T_10msec );
  6c:	481a      	ldr	r0, [pc, #104]	(d8 <Forward_Check+0xd8>)
  6e:	f7ff fffe 	bl	0 <System_Timer_Setting>
  72:	e021      	b.n	b8 <Forward_Check+0xb8>
C:\tien\PROJEKTY\procesory\STM\T104_V100a_GASTOP\sources/control.c:990
            }
        }
        else//Inductive
        {
            if ( !(Inputs_Level & IND_SENSOR1) )
  74:	4b19      	ldr	r3, [pc, #100]	(dc <Forward_Check+0xdc>)
  76:	881b      	ldrh	r3, [r3, #0]
  78:	f013 0f04 	tst.w	r3, #4	; 0x4
  7c:	d11c      	bne.n	b8 <Forward_Check+0xb8>
C:\tien\PROJEKTY\procesory\STM\T104_V100a_GASTOP\sources/control.c:992
            {
                if ( Controller_Variables.Controller_Vars.Sensor_Counter >= (IND_OFFSET+Service_Variables.Serv_Vars.Sensor_Counter_Move) )
  7e:	4c18      	ldr	r4, [pc, #96]	(e0 <Forward_Check+0xe0>)
  80:	f895 306f 	ldrb.w	r3, [r5, #111]
  84:	7922      	ldrb	r2, [r4, #4]
  86:	3363      	adds	r3, #99
  88:	4293      	cmp	r3, r2
  8a:	da15      	bge.n	b8 <Forward_Check+0xb8>
C:\tien\PROJEKTY\procesory\STM\T104_V100a_GASTOP\sources/control.c:994
                {
                    Machine_State = Control_Variables[Machine_State].Motor_Enc_Ptr->Next[0];
  8c:	4810      	ldr	r0, [pc, #64]	(d0 <Forward_Check+0xd0>)
  8e:	4a11      	ldr	r2, [pc, #68]	(d4 <Forward_Check+0xd4>)
  90:	7803      	ldrb	r3, [r0, #0]
  92:	2114      	movs	r1, #20
  94:	fb01 2303 	mla	r3, r1, r3, r2
  98:	68db      	ldr	r3, [r3, #12]
C:\tien\PROJEKTY\procesory\STM\T104_V100a_GASTOP\sources/control.c:995
                    System_Timer_Setting ( &Arm_Window_Timer.Timer, Service_Variables.Serv_Vars.Serwis_005, T_10msec );
  9a:	8e69      	ldrh	r1, [r5, #50]
C:\tien\PROJEKTY\procesory\STM\T104_V100a_GASTOP\sources/control.c:994
        {
            if ( !(Inputs_Level & IND_SENSOR1) )
            {
                if ( Controller_Variables.Controller_Vars.Sensor_Counter >= (IND_OFFSET+Service_Variables.Serv_Vars.Sensor_Counter_Move) )
                {
                    Machine_State = Control_Variables[Machine_State].Motor_Enc_Ptr->Next[0];
  9c:	791b      	ldrb	r3, [r3, #4]
C:\tien\PROJEKTY\procesory\STM\T104_V100a_GASTOP\sources/control.c:995
                    System_Timer_Setting ( &Arm_Window_Timer.Timer, Service_Variables.Serv_Vars.Serwis_005, T_10msec );
  9e:	2201      	movs	r2, #1
C:\tien\PROJEKTY\procesory\STM\T104_V100a_GASTOP\sources/control.c:994
        {
            if ( !(Inputs_Level & IND_SENSOR1) )
            {
                if ( Controller_Variables.Controller_Vars.Sensor_Counter >= (IND_OFFSET+Service_Variables.Serv_Vars.Sensor_Counter_Move) )
                {
                    Machine_State = Control_Variables[Machine_State].Motor_Enc_Ptr->Next[0];
  a0:	7003      	strb	r3, [r0, #0]
C:\tien\PROJEKTY\procesory\STM\T104_V100a_GASTOP\sources/control.c:995
                    System_Timer_Setting ( &Arm_Window_Timer.Timer, Service_Variables.Serv_Vars.Serwis_005, T_10msec );
  a2:	480d      	ldr	r0, [pc, #52]	(d8 <Forward_Check+0xd8>)
  a4:	f7ff fffe 	bl	0 <System_Timer_Setting>
C:\tien\PROJEKTY\procesory\STM\T104_V100a_GASTOP\sources/control.c:996
                    System_Timer_Setting ( &Transition_Timer.Timer, Controlling_Variables.Ctrl_Vars.Transition_time, T_100msec );
  a8:	4b0e      	ldr	r3, [pc, #56]	(e4 <Forward_Check+0xe4>)
  aa:	480f      	ldr	r0, [pc, #60]	(e8 <Forward_Check+0xe8>)
  ac:	8a99      	ldrh	r1, [r3, #20]
  ae:	2202      	movs	r2, #2
  b0:	f7ff fffe 	bl	0 <System_Timer_Setting>
C:\tien\PROJEKTY\procesory\STM\T104_V100a_GASTOP\sources/control.c:997
                    Controller_Variables.Controller_Vars.Sensor_Counter_Copy = Controller_Variables.Controller_Vars.Sensor_Counter;            
  b4:	7923      	ldrb	r3, [r4, #4]
  b6:	71a3      	strb	r3, [r4, #6]
C:\tien\PROJEKTY\procesory\STM\T104_V100a_GASTOP\sources/control.c:1001
                }
            }
        }
}
  b8:	bd70      	pop	{r4, r5, r6, pc}
  ba:	46c0      	nop			(mov r8, r8)
	...
Disassembly of section .text.Enc_Positioning:

00000000 <Enc_Positioning>:
Enc_Positioning():
C:\tien\PROJEKTY\procesory\STM\T104_V100a_GASTOP\sources/control.c:911
* Input          : None
* Output         : None
* Return         : None
*******************************************************************************/
static void Enc_Positioning ( void )
{
   0:	b570      	push	{r4, r5, r6, lr}
C:\tien\PROJEKTY\procesory\STM\T104_V100a_GASTOP\sources/control.c:912
    if ( FORCING_ONCE_FLAG == TRUE )
   2:	4c15      	ldr	r4, [pc, #84]	(58 <Enc_Positioning+0x58>)
   4:	f894 53c0 	ldrb.w	r5, [r4, #960]
   8:	2d01      	cmp	r5, #1
   a:	d124      	bne.n	56 <Enc_Positioning+0x56>
C:\tien\PROJEKTY\procesory\STM\T104_V100a_GASTOP\sources/control.c:914
    {
        if ( Service_Variables.Serv_Vars.Sensor_Type == 0 )//ENKODER
   c:	4e13      	ldr	r6, [pc, #76]	(5c <Enc_Positioning+0x5c>)
   e:	f896 306d 	ldrb.w	r3, [r6, #109]
  12:	b92b      	cbnz	r3, 20 <Enc_Positioning+0x20>
C:\tien\PROJEKTY\procesory\STM\T104_V100a_GASTOP\sources/control.c:916
        {
            if ( Position_Check(Service_Variables.Serv_Vars.Serwis_004) == FALSE )
  14:	8e30      	ldrh	r0, [r6, #48]
  16:	f7ff fffe 	bl	0 <Enc_Positioning>
  1a:	4603      	mov	r3, r0
  1c:	b9d8      	cbnz	r0, 56 <Enc_Positioning+0x56>
  1e:	e00a      	b.n	36 <Enc_Positioning+0x36>
C:\tien\PROJEKTY\procesory\STM\T104_V100a_GASTOP\sources/control.c:925
                System_Timer_Setting ( &Forcing_Timer.Timer, Service_Variables.Serv_Vars.Serwis_013, T_10msec );
            }
        }
        else
        {
            if ( Controller_Variables.Controller_Vars.Sensor_Counter < (IND_OFFSET - 1) ||
  20:	4b0f      	ldr	r3, [pc, #60]	(60 <Enc_Positioning+0x60>)
  22:	791b      	ldrb	r3, [r3, #4]
  24:	3b63      	subs	r3, #99
  26:	b2db      	uxtb	r3, r3
  28:	2b02      	cmp	r3, #2
  2a:	d914      	bls.n	56 <Enc_Positioning+0x56>
C:\tien\PROJEKTY\procesory\STM\T104_V100a_GASTOP\sources/control.c:928
                 Controller_Variables.Controller_Vars.Sensor_Counter > (IND_OFFSET + 1) )
            {
                if ( !(Inputs_Level & IND_SENSOR1) )
  2c:	4b0d      	ldr	r3, [pc, #52]	(64 <Enc_Positioning+0x64>)
  2e:	881b      	ldrh	r3, [r3, #0]
  30:	f013 0304 	ands.w	r3, r3, #4	; 0x4
  34:	d10f      	bne.n	56 <Enc_Positioning+0x56>
C:\tien\PROJEKTY\procesory\STM\T104_V100a_GASTOP\sources/control.c:931
                {
                    FORCING_ONCE_FLAG = FALSE;
                    Machine_State = Control_Variables[Machine_State].Motor_Enc_Ptr->Next[0];
  36:	490c      	ldr	r1, [pc, #48]	(68 <Enc_Positioning+0x68>)
C:\tien\PROJEKTY\procesory\STM\T104_V100a_GASTOP\sources/control.c:930
            if ( Controller_Variables.Controller_Vars.Sensor_Counter < (IND_OFFSET - 1) ||
                 Controller_Variables.Controller_Vars.Sensor_Counter > (IND_OFFSET + 1) )
            {
                if ( !(Inputs_Level & IND_SENSOR1) )
                {
                    FORCING_ONCE_FLAG = FALSE;
  38:	f884 33c0 	strb.w	r3, [r4, #960]
C:\tien\PROJEKTY\procesory\STM\T104_V100a_GASTOP\sources/control.c:931
                    Machine_State = Control_Variables[Machine_State].Motor_Enc_Ptr->Next[0];
  3c:	780b      	ldrb	r3, [r1, #0]
  3e:	2214      	movs	r2, #20
  40:	fb02 4303 	mla	r3, r2, r3, r4
  44:	68db      	ldr	r3, [r3, #12]
C:\tien\PROJEKTY\procesory\STM\T104_V100a_GASTOP\sources/control.c:932
                    System_Timer_Setting ( &Forcing_Timer.Timer, Service_Variables.Serv_Vars.Serwis_013, T_10msec );
  46:	4809      	ldr	r0, [pc, #36]	(6c <Enc_Positioning+0x6c>)
C:\tien\PROJEKTY\procesory\STM\T104_V100a_GASTOP\sources/control.c:931
                 Controller_Variables.Controller_Vars.Sensor_Counter > (IND_OFFSET + 1) )
            {
                if ( !(Inputs_Level & IND_SENSOR1) )
                {
                    FORCING_ONCE_FLAG = FALSE;
                    Machine_State = Control_Variables[Machine_State].Motor_Enc_Ptr->Next[0];
  48:	791b      	ldrb	r3, [r3, #4]
C:\tien\PROJEKTY\procesory\STM\T104_V100a_GASTOP\sources/control.c:932
                    System_Timer_Setting ( &Forcing_Timer.Timer, Service_Variables.Serv_Vars.Serwis_013, T_10msec );
  4a:	462a      	mov	r2, r5
C:\tien\PROJEKTY\procesory\STM\T104_V100a_GASTOP\sources/control.c:931
                 Controller_Variables.Controller_Vars.Sensor_Counter > (IND_OFFSET + 1) )
            {
                if ( !(Inputs_Level & IND_SENSOR1) )
                {
                    FORCING_ONCE_FLAG = FALSE;
                    Machine_State = Control_Variables[Machine_State].Motor_Enc_Ptr->Next[0];
  4c:	700b      	strb	r3, [r1, #0]
C:\tien\PROJEKTY\procesory\STM\T104_V100a_GASTOP\sources/control.c:932
                    System_Timer_Setting ( &Forcing_Timer.Timer, Service_Variables.Serv_Vars.Serwis_013, T_10msec );
  4e:	f8b6 1042 	ldrh.w	r1, [r6, #66]
  52:	f7ff fffe 	bl	0 <System_Timer_Setting>
C:\tien\PROJEKTY\procesory\STM\T104_V100a_GASTOP\sources/control.c:937
                }
            }
        }
    }
}
  56:	bd70      	pop	{r4, r5, r6, pc}
	...
Disassembly of section .text.Keyboard_Stand_by:

00000000 <Keyboard_Stand_by>:
Keyboard_Stand_by():
C:\tien\PROJEKTY\procesory\STM\T104_V100a_GASTOP\sources/control.c:1694
* Input          : None
* Output         : None
* Return         : None
*******************************************************************************/
static void Keyboard_Stand_by ( void )
{
   0:	b570      	push	{r4, r5, r6, lr}
C:\tien\PROJEKTY\procesory\STM\T104_V100a_GASTOP\sources/control.c:1695
if ( Controlling_Variables.Ctrl_Vars.Exit_Var == 1 ) //Input on edge detection
   2:	4d85      	ldr	r5, [pc, #532]	(218 <Keyboard_Stand_by+0x218>)
   4:	7eab      	ldrb	r3, [r5, #26]
   6:	2b01      	cmp	r3, #1
   8:	d153      	bne.n	b2 <Keyboard_Stand_by+0xb2>
C:\tien\PROJEKTY\procesory\STM\T104_V100a_GASTOP\sources/control.c:1697
{
    if ( Inputs.Keyboard_Memory != 0 && Inputs.Keyboard_Flag == 1 )
   a:	4b84      	ldr	r3, [pc, #528]	(21c <Keyboard_Stand_by+0x21c>)
   c:	7819      	ldrb	r1, [r3, #0]
   e:	2900      	cmp	r1, #0
  10:	d049      	beq.n	a6 <Keyboard_Stand_by+0xa6>
  12:	7898      	ldrb	r0, [r3, #2]
  14:	2801      	cmp	r0, #1
  16:	d146      	bne.n	a6 <Keyboard_Stand_by+0xa6>
C:\tien\PROJEKTY\procesory\STM\T104_V100a_GASTOP\sources/control.c:1699
    {
        switch ( Inputs.Keyboard_Memory )
  18:	2902      	cmp	r1, #2
  1a:	d016      	beq.n	4a <Keyboard_Stand_by+0x4a>
  1c:	2904      	cmp	r1, #4
  1e:	d02c      	beq.n	7a <Keyboard_Stand_by+0x7a>
  20:	2901      	cmp	r1, #1
  22:	d13d      	bne.n	a0 <Keyboard_Stand_by+0xa0>
C:\tien\PROJEKTY\procesory\STM\T104_V100a_GASTOP\sources/control.c:1702
        {
            case INPUT_FORWARD:
				Machine_State = STANDBY_ZWORA_FWD;
  24:	4b7e      	ldr	r3, [pc, #504]	(220 <Keyboard_Stand_by+0x220>)
  26:	2205      	movs	r2, #5
  28:	701a      	strb	r2, [r3, #0]
C:\tien\PROJEKTY\procesory\STM\T104_V100a_GASTOP\sources/control.c:1703
				Persons_Counter_Fwd++;
  2a:	4a7e      	ldr	r2, [pc, #504]	(224 <Keyboard_Stand_by+0x224>)
  2c:	8813      	ldrh	r3, [r2, #0]
  2e:	3301      	adds	r3, #1
  30:	8013      	strh	r3, [r2, #0]
C:\tien\PROJEKTY\procesory\STM\T104_V100a_GASTOP\sources/control.c:1704
				Arm_Mem_Pos = Arm_Pos;
  32:	4b7d      	ldr	r3, [pc, #500]	(228 <Keyboard_Stand_by+0x228>)
  34:	4a7d      	ldr	r2, [pc, #500]	(22c <Keyboard_Stand_by+0x22c>)
  36:	881b      	ldrh	r3, [r3, #0]
  38:	b29b      	uxth	r3, r3
  3a:	8013      	strh	r3, [r2, #0]
C:\tien\PROJEKTY\procesory\STM\T104_V100a_GASTOP\sources/control.c:1707
                //Controller_Variables.Controller_Vars.Sensor_Counter = IND_OFFSET;
                //Controller_Variables.Controller_Vars.Sensor_Counter_Copy = IND_OFFSET;
                Controller_Variables.Controller_Vars.Sensor_Direction_Detect = 0;
  3c:	4b7c      	ldr	r3, [pc, #496]	(230 <Keyboard_Stand_by+0x230>)
  3e:	2200      	movs	r2, #0
  40:	71da      	strb	r2, [r3, #7]
C:\tien\PROJEKTY\procesory\STM\T104_V100a_GASTOP\sources/control.c:1708
                FORCING_ONCE_FLAG = TRUE;
  42:	4b7c      	ldr	r3, [pc, #496]	(234 <Keyboard_Stand_by+0x234>)
  44:	f883 13c0 	strb.w	r1, [r3, #960]
  48:	e011      	b.n	6e <Keyboard_Stand_by+0x6e>
C:\tien\PROJEKTY\procesory\STM\T104_V100a_GASTOP\sources/control.c:1714

                System_Timer_Setting ( &Trans_Timer.Timer, Controlling_Variables.Ctrl_Vars.Trans_time, T_1sec );
            break;

            case INPUT_BACK:
 				Machine_State = STANDBY_ZWORA_BCK;
  4a:	4b75      	ldr	r3, [pc, #468]	(220 <Keyboard_Stand_by+0x220>)
  4c:	2206      	movs	r2, #6
  4e:	701a      	strb	r2, [r3, #0]
C:\tien\PROJEKTY\procesory\STM\T104_V100a_GASTOP\sources/control.c:1715
				Persons_Counter_Bck++;
  50:	4a74      	ldr	r2, [pc, #464]	(224 <Keyboard_Stand_by+0x224>)
  52:	8853      	ldrh	r3, [r2, #2]
  54:	3301      	adds	r3, #1
  56:	8053      	strh	r3, [r2, #2]
C:\tien\PROJEKTY\procesory\STM\T104_V100a_GASTOP\sources/control.c:1716
				Arm_Mem_Pos = Arm_Pos;
  58:	4b73      	ldr	r3, [pc, #460]	(228 <Keyboard_Stand_by+0x228>)
  5a:	4a74      	ldr	r2, [pc, #464]	(22c <Keyboard_Stand_by+0x22c>)
  5c:	881b      	ldrh	r3, [r3, #0]
  5e:	b29b      	uxth	r3, r3
  60:	8013      	strh	r3, [r2, #0]
C:\tien\PROJEKTY\procesory\STM\T104_V100a_GASTOP\sources/control.c:1719
                //Controller_Variables.Controller_Vars.Sensor_Counter = IND_OFFSET;
                //Controller_Variables.Controller_Vars.Sensor_Counter_Copy = IND_OFFSET;
                Controller_Variables.Controller_Vars.Sensor_Direction_Detect = 0;
  62:	4b73      	ldr	r3, [pc, #460]	(230 <Keyboard_Stand_by+0x230>)
  64:	2200      	movs	r2, #0
  66:	71da      	strb	r2, [r3, #7]
C:\tien\PROJEKTY\procesory\STM\T104_V100a_GASTOP\sources/control.c:1720
                FORCING_ONCE_FLAG = TRUE;
  68:	4b72      	ldr	r3, [pc, #456]	(234 <Keyboard_Stand_by+0x234>)
  6a:	f883 03c0 	strb.w	r0, [r3, #960]
C:\tien\PROJEKTY\procesory\STM\T104_V100a_GASTOP\sources/control.c:1722

                System_Timer_Setting ( &Trans_Timer.Timer, Controlling_Variables.Ctrl_Vars.Trans_time, T_1sec );
  6e:	4872      	ldr	r0, [pc, #456]	(238 <Keyboard_Stand_by+0x238>)
  70:	8ba9      	ldrh	r1, [r5, #28]
  72:	3203      	adds	r2, #3
  74:	f7ff fffe 	bl	0 <System_Timer_Setting>
  78:	e012      	b.n	a0 <Keyboard_Stand_by+0xa0>
C:\tien\PROJEKTY\procesory\STM\T104_V100a_GASTOP\sources/control.c:1726
            break;
           
            case INPUT_TEST:
                Test_String_Mask = TEST_STARTED;
  7a:	4b70      	ldr	r3, [pc, #448]	(23c <Keyboard_Stand_by+0x23c>)
  7c:	221f      	movs	r2, #31
  7e:	601a      	str	r2, [r3, #0]
C:\tien\PROJEKTY\procesory\STM\T104_V100a_GASTOP\sources/control.c:1727
                Test_Cntr = 0;
  80:	4b6f      	ldr	r3, [pc, #444]	(240 <Keyboard_Stand_by+0x240>)
  82:	2100      	movs	r1, #0
  84:	7019      	strb	r1, [r3, #0]
C:\tien\PROJEKTY\procesory\STM\T104_V100a_GASTOP\sources/control.c:1728
                Machine_State = TEST_START;
  86:	4b66      	ldr	r3, [pc, #408]	(220 <Keyboard_Stand_by+0x220>)
  88:	220f      	movs	r2, #15
  8a:	701a      	strb	r2, [r3, #0]
C:\tien\PROJEKTY\procesory\STM\T104_V100a_GASTOP\sources/control.c:1729
                TEST_ENABLE = TRUE;
  8c:	4b6d      	ldr	r3, [pc, #436]	(244 <Keyboard_Stand_by+0x244>)
C:\tien\PROJEKTY\procesory\STM\T104_V100a_GASTOP\sources/control.c:1730
                Screen_Number = ODCZYT_SERWISOWY;//PROG_TESTOWY;
  8e:	3218      	adds	r2, #24
C:\tien\PROJEKTY\procesory\STM\T104_V100a_GASTOP\sources/control.c:1729
           
            case INPUT_TEST:
                Test_String_Mask = TEST_STARTED;
                Test_Cntr = 0;
                Machine_State = TEST_START;
                TEST_ENABLE = TRUE;
  90:	7018      	strb	r0, [r3, #0]
C:\tien\PROJEKTY\procesory\STM\T104_V100a_GASTOP\sources/control.c:1730
                Screen_Number = ODCZYT_SERWISOWY;//PROG_TESTOWY;
  92:	4b6d      	ldr	r3, [pc, #436]	(248 <Keyboard_Stand_by+0x248>)
  94:	701a      	strb	r2, [r3, #0]
C:\tien\PROJEKTY\procesory\STM\T104_V100a_GASTOP\sources/control.c:1731
                Reload_Screen = TRUE; 
  96:	4b6d      	ldr	r3, [pc, #436]	(24c <Keyboard_Stand_by+0x24c>)
  98:	7018      	strb	r0, [r3, #0]
C:\tien\PROJEKTY\procesory\STM\T104_V100a_GASTOP\sources/control.c:1732
                Counters_Variables.Counters_Vars.No_Goin_Test = 0;
  9a:	4b6d      	ldr	r3, [pc, #436]	(250 <Keyboard_Stand_by+0x250>)
  9c:	6099      	str	r1, [r3, #8]
C:\tien\PROJEKTY\procesory\STM\T104_V100a_GASTOP\sources/control.c:1733
                Counters_Variables.Counters_Vars.No_Goout_Test = 0;            
  9e:	60d9      	str	r1, [r3, #12]
C:\tien\PROJEKTY\procesory\STM\T104_V100a_GASTOP\sources/control.c:1736
            break;
        }
        Inputs.Keyboard_Flag = 0;
  a0:	4b5e      	ldr	r3, [pc, #376]	(21c <Keyboard_Stand_by+0x21c>)
  a2:	2200      	movs	r2, #0
  a4:	709a      	strb	r2, [r3, #2]
C:\tien\PROJEKTY\procesory\STM\T104_V100a_GASTOP\sources/control.c:1739
    }

    if ( Inputs.Keyboard_State == 0 )
  a6:	4a5d      	ldr	r2, [pc, #372]	(21c <Keyboard_Stand_by+0x21c>)
  a8:	7853      	ldrb	r3, [r2, #1]
  aa:	2b00      	cmp	r3, #0
  ac:	f040 80b3 	bne.w	216 <Keyboard_Stand_by+0x216>
  b0:	e0b0      	b.n	214 <Keyboard_Stand_by+0x214>
C:\tien\PROJEKTY\procesory\STM\T104_V100a_GASTOP\sources/control.c:1746
        Inputs.Keyboard_Memory = 0;
    }
}
else
{
        if ( EXIT_VAR_FLAG == FALSE )
  b2:	4c5c      	ldr	r4, [pc, #368]	(224 <Keyboard_Stand_by+0x224>)
  b4:	4a67      	ldr	r2, [pc, #412]	(254 <Keyboard_Stand_by+0x254>)
  b6:	7963      	ldrb	r3, [r4, #5]
  b8:	bb1b      	cbnz	r3, 102 <Keyboard_Stand_by+0x102>
C:\tien\PROJEKTY\procesory\STM\T104_V100a_GASTOP\sources/control.c:1748
        {
            if ( Inputs_Level & FORWARD_ENABLE )
  ba:	8813      	ldrh	r3, [r2, #0]
  bc:	f013 0f20 	tst.w	r3, #32	; 0x20
  c0:	d00c      	beq.n	dc <Keyboard_Stand_by+0xdc>
C:\tien\PROJEKTY\procesory\STM\T104_V100a_GASTOP\sources/control.c:1750
            {
                System_Timer_Setting ( &Normal_Exit_Timer.Timer, Controlling_Variables.Ctrl_Vars.Normal_Exit_Time , T_100msec );
  c2:	4865      	ldr	r0, [pc, #404]	(258 <Keyboard_Stand_by+0x258>)
  c4:	8b29      	ldrh	r1, [r5, #24]
  c6:	2202      	movs	r2, #2
  c8:	f7ff fffe 	bl	0 <System_Timer_Setting>
C:\tien\PROJEKTY\procesory\STM\T104_V100a_GASTOP\sources/control.c:1751
                System_Timer_Setting ( &Free_Exit_Timer.Timer, Controlling_Variables.Ctrl_Vars.Free_Exit_Time , T_100msec );
  cc:	4863      	ldr	r0, [pc, #396]	(25c <Keyboard_Stand_by+0x25c>)
  ce:	8ae9      	ldrh	r1, [r5, #22]
  d0:	2202      	movs	r2, #2
  d2:	f7ff fffe 	bl	0 <System_Timer_Setting>
C:\tien\PROJEKTY\procesory\STM\T104_V100a_GASTOP\sources/control.c:1752
                FORWARD_ENABLE_FLAG = TRUE;
  d6:	2301      	movs	r3, #1
  d8:	74a3      	strb	r3, [r4, #18]
  da:	e010      	b.n	fe <Keyboard_Stand_by+0xfe>
C:\tien\PROJEKTY\procesory\STM\T104_V100a_GASTOP\sources/control.c:1755
                EXIT_VAR_FLAG = TRUE;
            }
            else if ( Inputs_Level & BACK_ENABLE )
  dc:	8813      	ldrh	r3, [r2, #0]
  de:	f013 0f40 	tst.w	r3, #64	; 0x40
  e2:	f000 8094 	beq.w	20e <Keyboard_Stand_by+0x20e>
C:\tien\PROJEKTY\procesory\STM\T104_V100a_GASTOP\sources/control.c:1757
            {
                System_Timer_Setting ( &Normal_Exit_Timer.Timer, Controlling_Variables.Ctrl_Vars.Normal_Exit_Time , T_100msec );
  e6:	485c      	ldr	r0, [pc, #368]	(258 <Keyboard_Stand_by+0x258>)
  e8:	8b29      	ldrh	r1, [r5, #24]
  ea:	2202      	movs	r2, #2
  ec:	f7ff fffe 	bl	0 <System_Timer_Setting>
C:\tien\PROJEKTY\procesory\STM\T104_V100a_GASTOP\sources/control.c:1758
                System_Timer_Setting ( &Free_Exit_Timer.Timer, Controlling_Variables.Ctrl_Vars.Free_Exit_Time , T_100msec );
  f0:	485a      	ldr	r0, [pc, #360]	(25c <Keyboard_Stand_by+0x25c>)
  f2:	8ae9      	ldrh	r1, [r5, #22]
  f4:	2202      	movs	r2, #2
  f6:	f7ff fffe 	bl	0 <System_Timer_Setting>
C:\tien\PROJEKTY\procesory\STM\T104_V100a_GASTOP\sources/control.c:1759
                BACK_ENABLE_FLAG = TRUE;
  fa:	2301      	movs	r3, #1
  fc:	74e3      	strb	r3, [r4, #19]
C:\tien\PROJEKTY\procesory\STM\T104_V100a_GASTOP\sources/control.c:1760
                EXIT_VAR_FLAG = TRUE;
  fe:	7163      	strb	r3, [r4, #5]
 100:	e085      	b.n	20e <Keyboard_Stand_by+0x20e>
C:\tien\PROJEKTY\procesory\STM\T104_V100a_GASTOP\sources/control.c:1765
            }
        }
        else
        {
            if ( Inputs_Level & FORWARD_ENABLE )
 102:	8813      	ldrh	r3, [r2, #0]
 104:	f013 0f20 	tst.w	r3, #32	; 0x20
 108:	d001      	beq.n	10e <Keyboard_Stand_by+0x10e>
C:\tien\PROJEKTY\procesory\STM\T104_V100a_GASTOP\sources/control.c:1767
            {
               FORWARD_ENABLE_FLAG = TRUE;
 10a:	2301      	movs	r3, #1
 10c:	74a3      	strb	r3, [r4, #18]
C:\tien\PROJEKTY\procesory\STM\T104_V100a_GASTOP\sources/control.c:1770
            }

            if ( Inputs_Level & BACK_ENABLE )
 10e:	4b51      	ldr	r3, [pc, #324]	(254 <Keyboard_Stand_by+0x254>)
 110:	881b      	ldrh	r3, [r3, #0]
 112:	f013 0f40 	tst.w	r3, #64	; 0x40
 116:	d002      	beq.n	11e <Keyboard_Stand_by+0x11e>
C:\tien\PROJEKTY\procesory\STM\T104_V100a_GASTOP\sources/control.c:1772
            {
               BACK_ENABLE_FLAG = TRUE;
 118:	4b42      	ldr	r3, [pc, #264]	(224 <Keyboard_Stand_by+0x224>)
 11a:	2201      	movs	r2, #1
 11c:	74da      	strb	r2, [r3, #19]
C:\tien\PROJEKTY\procesory\STM\T104_V100a_GASTOP\sources/control.c:1775
            }
    
            if ( System_Timer_Check ( &Normal_Exit_Timer.Timer, T_100msec ) == TRUE )
 11e:	2102      	movs	r1, #2
 120:	484d      	ldr	r0, [pc, #308]	(258 <Keyboard_Stand_by+0x258>)
 122:	f7ff fffe 	bl	0 <System_Timer_Check>
 126:	2801      	cmp	r0, #1
 128:	d14b      	bne.n	1c2 <Keyboard_Stand_by+0x1c2>
C:\tien\PROJEKTY\procesory\STM\T104_V100a_GASTOP\sources/control.c:1777
            {
                if ( (FORWARD_ENABLE_FLAG == TRUE) && (BACK_ENABLE_FLAG == FALSE) )
 12a:	4e3e      	ldr	r6, [pc, #248]	(224 <Keyboard_Stand_by+0x224>)
 12c:	7cb5      	ldrb	r5, [r6, #18]
 12e:	2d01      	cmp	r5, #1
 130:	d11f      	bne.n	172 <Keyboard_Stand_by+0x172>
 132:	7cf3      	ldrb	r3, [r6, #19]
 134:	b9eb      	cbnz	r3, 172 <Keyboard_Stand_by+0x172>
C:\tien\PROJEKTY\procesory\STM\T104_V100a_GASTOP\sources/control.c:1779
                {
                    if ( !(Inputs_Level & FORWARD_ENABLE) )
 136:	4b47      	ldr	r3, [pc, #284]	(254 <Keyboard_Stand_by+0x254>)
 138:	881b      	ldrh	r3, [r3, #0]
 13a:	f013 0420 	ands.w	r4, r3, #32	; 0x20
 13e:	d140      	bne.n	1c2 <Keyboard_Stand_by+0x1c2>
C:\tien\PROJEKTY\procesory\STM\T104_V100a_GASTOP\sources/control.c:1781
                    {
                        Machine_State = STANDBY_ZWORA_FWD;
 140:	4b37      	ldr	r3, [pc, #220]	(220 <Keyboard_Stand_by+0x220>)
 142:	2205      	movs	r2, #5
 144:	701a      	strb	r2, [r3, #0]
C:\tien\PROJEKTY\procesory\STM\T104_V100a_GASTOP\sources/control.c:1782
                        Persons_Counter_Fwd++;
 146:	8833      	ldrh	r3, [r6, #0]
C:\tien\PROJEKTY\procesory\STM\T104_V100a_GASTOP\sources/control.c:1783
                        Arm_Mem_Pos = Arm_Pos;
 148:	4a38      	ldr	r2, [pc, #224]	(22c <Keyboard_Stand_by+0x22c>)
C:\tien\PROJEKTY\procesory\STM\T104_V100a_GASTOP\sources/control.c:1782
                if ( (FORWARD_ENABLE_FLAG == TRUE) && (BACK_ENABLE_FLAG == FALSE) )
                {
                    if ( !(Inputs_Level & FORWARD_ENABLE) )
                    {
                        Machine_State = STANDBY_ZWORA_FWD;
                        Persons_Counter_Fwd++;
 14a:	3301      	adds	r3, #1
 14c:	8033      	strh	r3, [r6, #0]
C:\tien\PROJEKTY\procesory\STM\T104_V100a_GASTOP\sources/control.c:1783
                        Arm_Mem_Pos = Arm_Pos;
 14e:	4b36      	ldr	r3, [pc, #216]	(228 <Keyboard_Stand_by+0x228>)
C:\tien\PROJEKTY\procesory\STM\T104_V100a_GASTOP\sources/control.c:1789
                        //Controller_Variables.Controller_Vars.Sensor_Counter = IND_OFFSET;
                        //Controller_Variables.Controller_Vars.Sensor_Counter_Copy = IND_OFFSET;
                        Controller_Variables.Controller_Vars.Sensor_Direction_Detect = 0;
                        FORCING_ONCE_FLAG = TRUE;

                        System_Timer_Setting ( &Trans_Timer.Timer, Controlling_Variables.Ctrl_Vars.Trans_time, T_1sec );
 150:	4839      	ldr	r0, [pc, #228]	(238 <Keyboard_Stand_by+0x238>)
C:\tien\PROJEKTY\procesory\STM\T104_V100a_GASTOP\sources/control.c:1783
                {
                    if ( !(Inputs_Level & FORWARD_ENABLE) )
                    {
                        Machine_State = STANDBY_ZWORA_FWD;
                        Persons_Counter_Fwd++;
                        Arm_Mem_Pos = Arm_Pos;
 152:	881b      	ldrh	r3, [r3, #0]
 154:	b29b      	uxth	r3, r3
 156:	8013      	strh	r3, [r2, #0]
C:\tien\PROJEKTY\procesory\STM\T104_V100a_GASTOP\sources/control.c:1786
                        //Controller_Variables.Controller_Vars.Sensor_Counter = IND_OFFSET;
                        //Controller_Variables.Controller_Vars.Sensor_Counter_Copy = IND_OFFSET;
                        Controller_Variables.Controller_Vars.Sensor_Direction_Detect = 0;
 158:	4b35      	ldr	r3, [pc, #212]	(230 <Keyboard_Stand_by+0x230>)
C:\tien\PROJEKTY\procesory\STM\T104_V100a_GASTOP\sources/control.c:1789
                        FORCING_ONCE_FLAG = TRUE;

                        System_Timer_Setting ( &Trans_Timer.Timer, Controlling_Variables.Ctrl_Vars.Trans_time, T_1sec );
 15a:	2203      	movs	r2, #3
C:\tien\PROJEKTY\procesory\STM\T104_V100a_GASTOP\sources/control.c:1786
                        Machine_State = STANDBY_ZWORA_FWD;
                        Persons_Counter_Fwd++;
                        Arm_Mem_Pos = Arm_Pos;
                        //Controller_Variables.Controller_Vars.Sensor_Counter = IND_OFFSET;
                        //Controller_Variables.Controller_Vars.Sensor_Counter_Copy = IND_OFFSET;
                        Controller_Variables.Controller_Vars.Sensor_Direction_Detect = 0;
 15c:	71dc      	strb	r4, [r3, #7]
C:\tien\PROJEKTY\procesory\STM\T104_V100a_GASTOP\sources/control.c:1787
                        FORCING_ONCE_FLAG = TRUE;
 15e:	4b35      	ldr	r3, [pc, #212]	(234 <Keyboard_Stand_by+0x234>)
 160:	f883 53c0 	strb.w	r5, [r3, #960]
C:\tien\PROJEKTY\procesory\STM\T104_V100a_GASTOP\sources/control.c:1789

                        System_Timer_Setting ( &Trans_Timer.Timer, Controlling_Variables.Ctrl_Vars.Trans_time, T_1sec );
 164:	4b2c      	ldr	r3, [pc, #176]	(218 <Keyboard_Stand_by+0x218>)
 166:	8b99      	ldrh	r1, [r3, #28]
 168:	f7ff fffe 	bl	0 <System_Timer_Setting>
C:\tien\PROJEKTY\procesory\STM\T104_V100a_GASTOP\sources/control.c:1791

                        FORWARD_ENABLE_FLAG = FALSE;
 16c:	74b4      	strb	r4, [r6, #18]
C:\tien\PROJEKTY\procesory\STM\T104_V100a_GASTOP\sources/control.c:1792
                        EXIT_VAR_FLAG = FALSE;
 16e:	7174      	strb	r4, [r6, #5]
 170:	e027      	b.n	1c2 <Keyboard_Stand_by+0x1c2>
C:\tien\PROJEKTY\procesory\STM\T104_V100a_GASTOP\sources/control.c:1796
                    }
                }

                else if ( (BACK_ENABLE_FLAG == TRUE) && (FORWARD_ENABLE_FLAG == FALSE) )
 172:	4c2c      	ldr	r4, [pc, #176]	(224 <Keyboard_Stand_by+0x224>)
 174:	7ce1      	ldrb	r1, [r4, #19]
 176:	2901      	cmp	r1, #1
 178:	d11e      	bne.n	1b8 <Keyboard_Stand_by+0x1b8>
 17a:	b9ed      	cbnz	r5, 1b8 <Keyboard_Stand_by+0x1b8>
C:\tien\PROJEKTY\procesory\STM\T104_V100a_GASTOP\sources/control.c:1798
                {
                    if ( !(Inputs_Level & BACK_ENABLE) )
 17c:	4b35      	ldr	r3, [pc, #212]	(254 <Keyboard_Stand_by+0x254>)
 17e:	881b      	ldrh	r3, [r3, #0]
 180:	f013 0f40 	tst.w	r3, #64	; 0x40
 184:	d11d      	bne.n	1c2 <Keyboard_Stand_by+0x1c2>
C:\tien\PROJEKTY\procesory\STM\T104_V100a_GASTOP\sources/control.c:1800
                    {
                        Machine_State = STANDBY_ZWORA_BCK;
 186:	4b26      	ldr	r3, [pc, #152]	(220 <Keyboard_Stand_by+0x220>)
 188:	2206      	movs	r2, #6
 18a:	701a      	strb	r2, [r3, #0]
C:\tien\PROJEKTY\procesory\STM\T104_V100a_GASTOP\sources/control.c:1801
                        Persons_Counter_Bck++;
 18c:	8863      	ldrh	r3, [r4, #2]
C:\tien\PROJEKTY\procesory\STM\T104_V100a_GASTOP\sources/control.c:1802
                        Arm_Mem_Pos = Arm_Pos;
 18e:	4a27      	ldr	r2, [pc, #156]	(22c <Keyboard_Stand_by+0x22c>)
C:\tien\PROJEKTY\procesory\STM\T104_V100a_GASTOP\sources/control.c:1801
                else if ( (BACK_ENABLE_FLAG == TRUE) && (FORWARD_ENABLE_FLAG == FALSE) )
                {
                    if ( !(Inputs_Level & BACK_ENABLE) )
                    {
                        Machine_State = STANDBY_ZWORA_BCK;
                        Persons_Counter_Bck++;
 190:	3301      	adds	r3, #1
 192:	8063      	strh	r3, [r4, #2]
C:\tien\PROJEKTY\procesory\STM\T104_V100a_GASTOP\sources/control.c:1802
                        Arm_Mem_Pos = Arm_Pos;
 194:	4b24      	ldr	r3, [pc, #144]	(228 <Keyboard_Stand_by+0x228>)
C:\tien\PROJEKTY\procesory\STM\T104_V100a_GASTOP\sources/control.c:1808
                        //Controller_Variables.Controller_Vars.Sensor_Counter = IND_OFFSET;
                        //Controller_Variables.Controller_Vars.Sensor_Counter_Copy = IND_OFFSET;
                        Controller_Variables.Controller_Vars.Sensor_Direction_Detect = 0;
                        FORCING_ONCE_FLAG = TRUE;

                        System_Timer_Setting ( &Trans_Timer.Timer, Controlling_Variables.Ctrl_Vars.Trans_time, T_1sec );
 196:	4828      	ldr	r0, [pc, #160]	(238 <Keyboard_Stand_by+0x238>)
C:\tien\PROJEKTY\procesory\STM\T104_V100a_GASTOP\sources/control.c:1802
                {
                    if ( !(Inputs_Level & BACK_ENABLE) )
                    {
                        Machine_State = STANDBY_ZWORA_BCK;
                        Persons_Counter_Bck++;
                        Arm_Mem_Pos = Arm_Pos;
 198:	881b      	ldrh	r3, [r3, #0]
 19a:	b29b      	uxth	r3, r3
 19c:	8013      	strh	r3, [r2, #0]
C:\tien\PROJEKTY\procesory\STM\T104_V100a_GASTOP\sources/control.c:1805
                        //Controller_Variables.Controller_Vars.Sensor_Counter = IND_OFFSET;
                        //Controller_Variables.Controller_Vars.Sensor_Counter_Copy = IND_OFFSET;
                        Controller_Variables.Controller_Vars.Sensor_Direction_Detect = 0;
 19e:	4b24      	ldr	r3, [pc, #144]	(230 <Keyboard_Stand_by+0x230>)
C:\tien\PROJEKTY\procesory\STM\T104_V100a_GASTOP\sources/control.c:1808
                        FORCING_ONCE_FLAG = TRUE;

                        System_Timer_Setting ( &Trans_Timer.Timer, Controlling_Variables.Ctrl_Vars.Trans_time, T_1sec );
 1a0:	2203      	movs	r2, #3
C:\tien\PROJEKTY\procesory\STM\T104_V100a_GASTOP\sources/control.c:1805
                        Machine_State = STANDBY_ZWORA_BCK;
                        Persons_Counter_Bck++;
                        Arm_Mem_Pos = Arm_Pos;
                        //Controller_Variables.Controller_Vars.Sensor_Counter = IND_OFFSET;
                        //Controller_Variables.Controller_Vars.Sensor_Counter_Copy = IND_OFFSET;
                        Controller_Variables.Controller_Vars.Sensor_Direction_Detect = 0;
 1a2:	71dd      	strb	r5, [r3, #7]
C:\tien\PROJEKTY\procesory\STM\T104_V100a_GASTOP\sources/control.c:1806
                        FORCING_ONCE_FLAG = TRUE;
 1a4:	4b23      	ldr	r3, [pc, #140]	(234 <Keyboard_Stand_by+0x234>)
 1a6:	f883 13c0 	strb.w	r1, [r3, #960]
C:\tien\PROJEKTY\procesory\STM\T104_V100a_GASTOP\sources/control.c:1808

                        System_Timer_Setting ( &Trans_Timer.Timer, Controlling_Variables.Ctrl_Vars.Trans_time, T_1sec );
 1aa:	4b1b      	ldr	r3, [pc, #108]	(218 <Keyboard_Stand_by+0x218>)
 1ac:	8b99      	ldrh	r1, [r3, #28]
 1ae:	f7ff fffe 	bl	0 <System_Timer_Setting>
C:\tien\PROJEKTY\procesory\STM\T104_V100a_GASTOP\sources/control.c:1810

                        BACK_ENABLE_FLAG = FALSE;
 1b2:	74e5      	strb	r5, [r4, #19]
C:\tien\PROJEKTY\procesory\STM\T104_V100a_GASTOP\sources/control.c:1811
                        EXIT_VAR_FLAG = FALSE;
 1b4:	7165      	strb	r5, [r4, #5]
 1b6:	e004      	b.n	1c2 <Keyboard_Stand_by+0x1c2>
C:\tien\PROJEKTY\procesory\STM\T104_V100a_GASTOP\sources/control.c:1816
                    }                
                }
                else
                {
                    FORWARD_ENABLE_FLAG = FALSE;
 1b8:	4a1a      	ldr	r2, [pc, #104]	(224 <Keyboard_Stand_by+0x224>)
 1ba:	2300      	movs	r3, #0
 1bc:	7493      	strb	r3, [r2, #18]
C:\tien\PROJEKTY\procesory\STM\T104_V100a_GASTOP\sources/control.c:1817
                    BACK_ENABLE_FLAG = FALSE;
 1be:	74d3      	strb	r3, [r2, #19]
C:\tien\PROJEKTY\procesory\STM\T104_V100a_GASTOP\sources/control.c:1818
                    EXIT_VAR_FLAG = FALSE;                   
 1c0:	7153      	strb	r3, [r2, #5]
C:\tien\PROJEKTY\procesory\STM\T104_V100a_GASTOP\sources/control.c:1822
                }
            }  

            if ( System_Timer_Check ( &Free_Exit_Timer.Timer, T_100msec ) == TRUE )
 1c2:	2102      	movs	r1, #2
 1c4:	4825      	ldr	r0, [pc, #148]	(25c <Keyboard_Stand_by+0x25c>)
 1c6:	f7ff fffe 	bl	0 <System_Timer_Check>
 1ca:	2801      	cmp	r0, #1
 1cc:	d11f      	bne.n	20e <Keyboard_Stand_by+0x20e>
C:\tien\PROJEKTY\procesory\STM\T104_V100a_GASTOP\sources/control.c:1824
            {
                if ( (FORWARD_ENABLE_FLAG == TRUE) && (BACK_ENABLE_FLAG == FALSE) )
 1ce:	4b15      	ldr	r3, [pc, #84]	(224 <Keyboard_Stand_by+0x224>)
 1d0:	7c99      	ldrb	r1, [r3, #18]
 1d2:	2901      	cmp	r1, #1
 1d4:	d106      	bne.n	1e4 <Keyboard_Stand_by+0x1e4>
 1d6:	7cda      	ldrb	r2, [r3, #19]
 1d8:	b922      	cbnz	r2, 1e4 <Keyboard_Stand_by+0x1e4>
C:\tien\PROJEKTY\procesory\STM\T104_V100a_GASTOP\sources/control.c:1826
                {
                    if ( Inputs_Level & FORWARD_ENABLE )
 1da:	4b1e      	ldr	r3, [pc, #120]	(254 <Keyboard_Stand_by+0x254>)
 1dc:	881b      	ldrh	r3, [r3, #0]
 1de:	f013 0f20 	tst.w	r3, #32	; 0x20
 1e2:	e008      	b.n	1f6 <Keyboard_Stand_by+0x1f6>
C:\tien\PROJEKTY\procesory\STM\T104_V100a_GASTOP\sources/control.c:1832
                    {
                        Free_Exit_Marker = 0;
                    }
                }
            
                else if ( (BACK_ENABLE_FLAG == TRUE) && (FORWARD_ENABLE_FLAG == FALSE) )
 1e4:	4b0f      	ldr	r3, [pc, #60]	(224 <Keyboard_Stand_by+0x224>)
 1e6:	7cda      	ldrb	r2, [r3, #19]
 1e8:	2a01      	cmp	r2, #1
 1ea:	d107      	bne.n	1fc <Keyboard_Stand_by+0x1fc>
 1ec:	b931      	cbnz	r1, 1fc <Keyboard_Stand_by+0x1fc>
C:\tien\PROJEKTY\procesory\STM\T104_V100a_GASTOP\sources/control.c:1834
                {
                    if ( Inputs_Level & BACK_ENABLE )
 1ee:	4b19      	ldr	r3, [pc, #100]	(254 <Keyboard_Stand_by+0x254>)
 1f0:	881b      	ldrh	r3, [r3, #0]
 1f2:	f013 0f40 	tst.w	r3, #64	; 0x40
 1f6:	d005      	beq.n	204 <Keyboard_Stand_by+0x204>
C:\tien\PROJEKTY\procesory\STM\T104_V100a_GASTOP\sources/control.c:1836
                    {
                        Free_Exit_Marker = 1;
 1f8:	4b19      	ldr	r3, [pc, #100]	(260 <Keyboard_Stand_by+0x260>)
 1fa:	e002      	b.n	202 <Keyboard_Stand_by+0x202>
C:\tien\PROJEKTY\procesory\STM\T104_V100a_GASTOP\sources/control.c:1841
                    }                
                }
                else
                {
                        Free_Exit_Marker = 2;                
 1fc:	4b18      	ldr	r3, [pc, #96]	(260 <Keyboard_Stand_by+0x260>)
 1fe:	f04f 0202 	mov.w	r2, #2	; 0x2
 202:	801a      	strh	r2, [r3, #0]
C:\tien\PROJEKTY\procesory\STM\T104_V100a_GASTOP\sources/control.c:1843
                }
                FORWARD_ENABLE_FLAG = FALSE;
 204:	4a07      	ldr	r2, [pc, #28]	(224 <Keyboard_Stand_by+0x224>)
 206:	2300      	movs	r3, #0
 208:	7493      	strb	r3, [r2, #18]
C:\tien\PROJEKTY\procesory\STM\T104_V100a_GASTOP\sources/control.c:1844
                BACK_ENABLE_FLAG = FALSE;
 20a:	74d3      	strb	r3, [r2, #19]
C:\tien\PROJEKTY\procesory\STM\T104_V100a_GASTOP\sources/control.c:1845
                EXIT_VAR_FLAG = FALSE;
 20c:	7153      	strb	r3, [r2, #5]
C:\tien\PROJEKTY\procesory\STM\T104_V100a_GASTOP\sources/control.c:1849
            }  
        }
    
    Inputs.Keyboard_Flag = 0;
 20e:	4a03      	ldr	r2, [pc, #12]	(21c <Keyboard_Stand_by+0x21c>)
 210:	2300      	movs	r3, #0
 212:	7093      	strb	r3, [r2, #2]
C:\tien\PROJEKTY\procesory\STM\T104_V100a_GASTOP\sources/control.c:1850
    Inputs.Keyboard_Memory = 0;    
 214:	7013      	strb	r3, [r2, #0]
C:\tien\PROJEKTY\procesory\STM\T104_V100a_GASTOP\sources/control.c:1854
    }


}
 216:	bd70      	pop	{r4, r5, r6, pc}
	...
Disassembly of section .text.Release_Kbd_Mem:

00000000 <Release_Kbd_Mem>:
Release_Kbd_Mem():
C:\tien\PROJEKTY\procesory\STM\T104_V100a_GASTOP\sources/control.c:1524
* Input          : None
* Output         : None
* Return         : None
*******************************************************************************/
static void Release_Kbd_Mem ( void )
{
   0:	b510      	push	{r4, lr}
C:\tien\PROJEKTY\procesory\STM\T104_V100a_GASTOP\sources/control.c:1525
    if ( Controlling_Variables.Ctrl_Vars.Exit_Var == 1 ) //Input on edge detection
   2:	4939      	ldr	r1, [pc, #228]	(e8 <Release_Kbd_Mem+0xe8>)
   4:	7e8b      	ldrb	r3, [r1, #26]
   6:	2b01      	cmp	r3, #1
   8:	d052      	beq.n	b0 <Release_Kbd_Mem+0xb0>
C:\tien\PROJEKTY\procesory\STM\T104_V100a_GASTOP\sources/control.c:1549
            Inputs.Keyboard_Memory = 0;
        }
    }
    else
    {  
        if ( Free_Exit_Marker == 0 )
   a:	4b38      	ldr	r3, [pc, #224]	(ec <Release_Kbd_Mem+0xec>)
   c:	881a      	ldrh	r2, [r3, #0]
   e:	bb1a      	cbnz	r2, 58 <Release_Kbd_Mem+0x58>
C:\tien\PROJEKTY\procesory\STM\T104_V100a_GASTOP\sources/control.c:1551
        {
            if ( ENABLE_MEMORY_FLAG == FALSE )
  10:	4c37      	ldr	r4, [pc, #220]	(f0 <Release_Kbd_Mem+0xf0>)
  12:	79e3      	ldrb	r3, [r4, #7]
  14:	b9db      	cbnz	r3, 4e <Release_Kbd_Mem+0x4e>
C:\tien\PROJEKTY\procesory\STM\T104_V100a_GASTOP\sources/control.c:1553
            {
                if ( EXIT_FWD_BCK_FLAG == FALSE )
  16:	79a3      	ldrb	r3, [r4, #6]
  18:	b953      	cbnz	r3, 30 <Release_Kbd_Mem+0x30>
C:\tien\PROJEKTY\procesory\STM\T104_V100a_GASTOP\sources/control.c:1555
                {
                    if ( Inputs_Level & BACK_ENABLE )
  1a:	4b36      	ldr	r3, [pc, #216]	(f4 <Release_Kbd_Mem+0xf4>)
  1c:	881b      	ldrh	r3, [r3, #0]
  1e:	f013 0f40 	tst.w	r3, #64	; 0x40
  22:	d060      	beq.n	e6 <Release_Kbd_Mem+0xe6>
C:\tien\PROJEKTY\procesory\STM\T104_V100a_GASTOP\sources/control.c:1557
                    {
                        EXIT_FWD_BCK_FLAG = TRUE;
  24:	2301      	movs	r3, #1
  26:	71a3      	strb	r3, [r4, #6]
C:\tien\PROJEKTY\procesory\STM\T104_V100a_GASTOP\sources/control.c:1558
                        System_Timer_Setting ( &Normal_Exit_Timer.Timer, Controlling_Variables.Ctrl_Vars.Normal_Exit_Time , T_100msec );
  28:	4833      	ldr	r0, [pc, #204]	(f8 <Release_Kbd_Mem+0xf8>)
  2a:	8b09      	ldrh	r1, [r1, #24]
  2c:	3202      	adds	r2, #2
  2e:	e023      	b.n	78 <Release_Kbd_Mem+0x78>
C:\tien\PROJEKTY\procesory\STM\T104_V100a_GASTOP\sources/control.c:1563
                    }
                }
                else
                {
                    if ( System_Timer_Check ( &Normal_Exit_Timer.Timer, T_100msec ) == TRUE )
  30:	2102      	movs	r1, #2
  32:	4831      	ldr	r0, [pc, #196]	(f8 <Release_Kbd_Mem+0xf8>)
  34:	f7ff fffe 	bl	0 <System_Timer_Check>
  38:	2801      	cmp	r0, #1
  3a:	d154      	bne.n	e6 <Release_Kbd_Mem+0xe6>
C:\tien\PROJEKTY\procesory\STM\T104_V100a_GASTOP\sources/control.c:1565
                    {
                        if ( !(Inputs_Level & BACK_ENABLE) )
  3c:	4b2d      	ldr	r3, [pc, #180]	(f4 <Release_Kbd_Mem+0xf4>)
  3e:	881b      	ldrh	r3, [r3, #0]
  40:	f013 0f40 	tst.w	r3, #64	; 0x40
  44:	d129      	bne.n	9a <Release_Kbd_Mem+0x9a>
C:\tien\PROJEKTY\procesory\STM\T104_V100a_GASTOP\sources/control.c:1567
                        {
                            Persons_Counter_Bck++;
  46:	8863      	ldrh	r3, [r4, #2]
  48:	3301      	adds	r3, #1
  4a:	8063      	strh	r3, [r4, #2]
  4c:	e025      	b.n	9a <Release_Kbd_Mem+0x9a>
C:\tien\PROJEKTY\procesory\STM\T104_V100a_GASTOP\sources/control.c:1575
                    }                 
                }
            }
            else
            {
                if ( !(Inputs_Level & BACK_ENABLE) )
  4e:	4b29      	ldr	r3, [pc, #164]	(f4 <Release_Kbd_Mem+0xf4>)
  50:	881b      	ldrh	r3, [r3, #0]
  52:	f013 0340 	ands.w	r3, r3, #64	; 0x40
  56:	e028      	b.n	aa <Release_Kbd_Mem+0xaa>
C:\tien\PROJEKTY\procesory\STM\T104_V100a_GASTOP\sources/control.c:1581
                {
                    ENABLE_MEMORY_FLAG = FALSE;
                }
            }
        }
        else if ( Free_Exit_Marker == 1 )
  58:	2a01      	cmp	r2, #1
  5a:	d129      	bne.n	b0 <Release_Kbd_Mem+0xb0>
C:\tien\PROJEKTY\procesory\STM\T104_V100a_GASTOP\sources/control.c:1583
        {
            if ( ENABLE_MEMORY_FLAG == FALSE )
  5c:	4c24      	ldr	r4, [pc, #144]	(f0 <Release_Kbd_Mem+0xf0>)
  5e:	79e3      	ldrb	r3, [r4, #7]
  60:	b9fb      	cbnz	r3, a2 <Release_Kbd_Mem+0xa2>
C:\tien\PROJEKTY\procesory\STM\T104_V100a_GASTOP\sources/control.c:1585
            {
                if ( EXIT_FWD_BCK_FLAG == FALSE )
  62:	79a3      	ldrb	r3, [r4, #6]
  64:	b95b      	cbnz	r3, 7e <Release_Kbd_Mem+0x7e>
C:\tien\PROJEKTY\procesory\STM\T104_V100a_GASTOP\sources/control.c:1587
                {
                    if ( Inputs_Level & FORWARD_ENABLE )
  66:	4b23      	ldr	r3, [pc, #140]	(f4 <Release_Kbd_Mem+0xf4>)
  68:	881b      	ldrh	r3, [r3, #0]
  6a:	f013 0f20 	tst.w	r3, #32	; 0x20
  6e:	d03a      	beq.n	e6 <Release_Kbd_Mem+0xe6>
C:\tien\PROJEKTY\procesory\STM\T104_V100a_GASTOP\sources/control.c:1590
                    {
                        EXIT_FWD_BCK_FLAG = TRUE;
                        System_Timer_Setting ( &Normal_Exit_Timer.Timer, Controlling_Variables.Ctrl_Vars.Normal_Exit_Time , T_100msec );
  70:	4821      	ldr	r0, [pc, #132]	(f8 <Release_Kbd_Mem+0xf8>)
  72:	8b09      	ldrh	r1, [r1, #24]
C:\tien\PROJEKTY\procesory\STM\T104_V100a_GASTOP\sources/control.c:1589
            {
                if ( EXIT_FWD_BCK_FLAG == FALSE )
                {
                    if ( Inputs_Level & FORWARD_ENABLE )
                    {
                        EXIT_FWD_BCK_FLAG = TRUE;
  74:	71a2      	strb	r2, [r4, #6]
C:\tien\PROJEKTY\procesory\STM\T104_V100a_GASTOP\sources/control.c:1590
                        System_Timer_Setting ( &Normal_Exit_Timer.Timer, Controlling_Variables.Ctrl_Vars.Normal_Exit_Time , T_100msec );
  76:	3201      	adds	r2, #1
  78:	f7ff fffe 	bl	0 <System_Timer_Setting>
  7c:	e033      	b.n	e6 <Release_Kbd_Mem+0xe6>
C:\tien\PROJEKTY\procesory\STM\T104_V100a_GASTOP\sources/control.c:1595
                    }
                }
                else
                {
                    if ( System_Timer_Check ( &Normal_Exit_Timer.Timer, T_100msec ) == TRUE )
  7e:	2102      	movs	r1, #2
  80:	481d      	ldr	r0, [pc, #116]	(f8 <Release_Kbd_Mem+0xf8>)
  82:	f7ff fffe 	bl	0 <System_Timer_Check>
  86:	2801      	cmp	r0, #1
  88:	d12d      	bne.n	e6 <Release_Kbd_Mem+0xe6>
C:\tien\PROJEKTY\procesory\STM\T104_V100a_GASTOP\sources/control.c:1597
                    {
                        if ( !(Inputs_Level & FORWARD_ENABLE) )
  8a:	4b1a      	ldr	r3, [pc, #104]	(f4 <Release_Kbd_Mem+0xf4>)
  8c:	881b      	ldrh	r3, [r3, #0]
  8e:	f013 0f20 	tst.w	r3, #32	; 0x20
  92:	d102      	bne.n	9a <Release_Kbd_Mem+0x9a>
C:\tien\PROJEKTY\procesory\STM\T104_V100a_GASTOP\sources/control.c:1599
                        {
                            Persons_Counter_Fwd++;
  94:	8823      	ldrh	r3, [r4, #0]
  96:	3301      	adds	r3, #1
  98:	8023      	strh	r3, [r4, #0]
C:\tien\PROJEKTY\procesory\STM\T104_V100a_GASTOP\sources/control.c:1601
                        }
                        EXIT_FWD_BCK_FLAG = FALSE;                 
  9a:	4b15      	ldr	r3, [pc, #84]	(f0 <Release_Kbd_Mem+0xf0>)
  9c:	2200      	movs	r2, #0
  9e:	719a      	strb	r2, [r3, #6]
  a0:	e021      	b.n	e6 <Release_Kbd_Mem+0xe6>
C:\tien\PROJEKTY\procesory\STM\T104_V100a_GASTOP\sources/control.c:1607
                    }                 
                }
            }
            else
            {
                if ( !(Inputs_Level & FORWARD_ENABLE) )
  a2:	4b14      	ldr	r3, [pc, #80]	(f4 <Release_Kbd_Mem+0xf4>)
  a4:	881b      	ldrh	r3, [r3, #0]
  a6:	f013 0320 	ands.w	r3, r3, #32	; 0x20
  aa:	d11c      	bne.n	e6 <Release_Kbd_Mem+0xe6>
C:\tien\PROJEKTY\procesory\STM\T104_V100a_GASTOP\sources/control.c:1609
                {
                    ENABLE_MEMORY_FLAG = FALSE;
  ac:	71e3      	strb	r3, [r4, #7]
  ae:	e01a      	b.n	e6 <Release_Kbd_Mem+0xe6>
C:\tien\PROJEKTY\procesory\STM\T104_V100a_GASTOP\sources/control.c:1615
                }
            }
        }
        else
        {
            if ( Inputs.Keyboard_Memory != 0 && Inputs.Keyboard_Flag == 1 )
  b0:	4b12      	ldr	r3, [pc, #72]	(fc <Release_Kbd_Mem+0xfc>)
  b2:	781a      	ldrb	r2, [r3, #0]
  b4:	b19a      	cbz	r2, de <Release_Kbd_Mem+0xde>
  b6:	789b      	ldrb	r3, [r3, #2]
  b8:	2b01      	cmp	r3, #1
  ba:	d110      	bne.n	de <Release_Kbd_Mem+0xde>
C:\tien\PROJEKTY\procesory\STM\T104_V100a_GASTOP\sources/control.c:1617
            {
                switch ( Inputs.Keyboard_Memory )
  bc:	2a01      	cmp	r2, #1
  be:	d002      	beq.n	c6 <Release_Kbd_Mem+0xc6>
  c0:	2a02      	cmp	r2, #2
  c2:	d109      	bne.n	d8 <Release_Kbd_Mem+0xd8>
  c4:	e004      	b.n	d0 <Release_Kbd_Mem+0xd0>
C:\tien\PROJEKTY\procesory\STM\T104_V100a_GASTOP\sources/control.c:1620
                {
                    case INPUT_FORWARD:
                        Persons_Counter_Fwd++;
  c6:	4a0a      	ldr	r2, [pc, #40]	(f0 <Release_Kbd_Mem+0xf0>)
  c8:	8813      	ldrh	r3, [r2, #0]
  ca:	3301      	adds	r3, #1
  cc:	8013      	strh	r3, [r2, #0]
  ce:	e003      	b.n	d8 <Release_Kbd_Mem+0xd8>
C:\tien\PROJEKTY\procesory\STM\T104_V100a_GASTOP\sources/control.c:1624
                    break;

                    case INPUT_BACK:
                        Persons_Counter_Bck++;
  d0:	4a07      	ldr	r2, [pc, #28]	(f0 <Release_Kbd_Mem+0xf0>)
  d2:	8853      	ldrh	r3, [r2, #2]
  d4:	3301      	adds	r3, #1
  d6:	8053      	strh	r3, [r2, #2]
C:\tien\PROJEKTY\procesory\STM\T104_V100a_GASTOP\sources/control.c:1627
                    break;
                }
                Inputs.Keyboard_Flag = 0;
  d8:	4b08      	ldr	r3, [pc, #32]	(fc <Release_Kbd_Mem+0xfc>)
  da:	2200      	movs	r2, #0
  dc:	709a      	strb	r2, [r3, #2]
C:\tien\PROJEKTY\procesory\STM\T104_V100a_GASTOP\sources/control.c:1630
            }

            if ( Inputs.Keyboard_State == 0 )
  de:	4a07      	ldr	r2, [pc, #28]	(fc <Release_Kbd_Mem+0xfc>)
  e0:	7853      	ldrb	r3, [r2, #1]
  e2:	b903      	cbnz	r3, e6 <Release_Kbd_Mem+0xe6>
C:\tien\PROJEKTY\procesory\STM\T104_V100a_GASTOP\sources/control.c:1632
            {
                Inputs.Keyboard_Memory = 0;
  e4:	7013      	strb	r3, [r2, #0]
C:\tien\PROJEKTY\procesory\STM\T104_V100a_GASTOP\sources/control.c:1636
            }
        }
    }
}
  e6:	bd10      	pop	{r4, pc}
	...
Disassembly of section .text.Stop_Ind_Fwd_Fun:

00000000 <Stop_Ind_Fwd_Fun>:
Stop_Ind_Fwd_Fun():
C:\tien\PROJEKTY\procesory\STM\T104_V100a_GASTOP\sources/control.c:2785
	}
}

static void Stop_Ind_Fwd_Fun ( void )
{
	if ( IND_TEST_FLAG == FALSE )
   0:	4b1e      	ldr	r3, [pc, #120]	(7c <Stop_Ind_Fwd_Fun+0x7c>)
C:\tien\PROJEKTY\procesory\STM\T104_V100a_GASTOP\sources/control.c:2784
		}
	}
}

static void Stop_Ind_Fwd_Fun ( void )
{
   2:	b570      	push	{r4, r5, r6, lr}
C:\tien\PROJEKTY\procesory\STM\T104_V100a_GASTOP\sources/control.c:2785
	if ( IND_TEST_FLAG == FALSE )
   4:	7a1b      	ldrb	r3, [r3, #8]
   6:	b9b3      	cbnz	r3, 36 <Stop_Ind_Fwd_Fun+0x36>
C:\tien\PROJEKTY\procesory\STM\T104_V100a_GASTOP\sources/control.c:2787
	{
        if ( Controller_Variables.Controller_Vars.Sensor_Counter > ( IND_OFFSET + IND_TEST_VALUE ) )
   8:	4b1d      	ldr	r3, [pc, #116]	(80 <Stop_Ind_Fwd_Fun+0x80>)
   a:	791b      	ldrb	r3, [r3, #4]
   c:	2b78      	cmp	r3, #120
   e:	d904      	bls.n	1a <Stop_Ind_Fwd_Fun+0x1a>
C:\tien\PROJEKTY\procesory\STM\T104_V100a_GASTOP\sources/control.c:2789
        {
            Ind_Test_Marker |= IND_MARKER_FWD;
  10:	4a1c      	ldr	r2, [pc, #112]	(84 <Stop_Ind_Fwd_Fun+0x84>)
  12:	7813      	ldrb	r3, [r2, #0]
  14:	f043 0301 	orr.w	r3, r3, #1	; 0x1
  18:	7013      	strb	r3, [r2, #0]
C:\tien\PROJEKTY\procesory\STM\T104_V100a_GASTOP\sources/control.c:2792
        }

        Controller_Variables.Controller_Vars.Sensor_Counter = IND_OFFSET;
  1a:	4b19      	ldr	r3, [pc, #100]	(80 <Stop_Ind_Fwd_Fun+0x80>)
  1c:	2264      	movs	r2, #100
  1e:	711a      	strb	r2, [r3, #4]
C:\tien\PROJEKTY\procesory\STM\T104_V100a_GASTOP\sources/control.c:2794

		System_Timer_Setting ( &Ind_Timer.Timer, Service_Variables.Serv_Vars.Serwis_015, T_10msec );
  20:	4b19      	ldr	r3, [pc, #100]	(88 <Stop_Ind_Fwd_Fun+0x88>)
  22:	2201      	movs	r2, #1
  24:	f8b3 1046 	ldrh.w	r1, [r3, #70]
  28:	4818      	ldr	r0, [pc, #96]	(64 <System_Timer_Setting+0x64>)
  2a:	f7ff fffe 	bl	0 <System_Timer_Setting>
C:\tien\PROJEKTY\procesory\STM\T104_V100a_GASTOP\sources/control.c:2795
		IND_TEST_FLAG = TRUE;
  2e:	4b13      	ldr	r3, [pc, #76]	(7c <Stop_Ind_Fwd_Fun+0x7c>)
  30:	2201      	movs	r2, #1
  32:	721a      	strb	r2, [r3, #8]
  34:	e020      	b.n	78 <Stop_Ind_Fwd_Fun+0x78>
C:\tien\PROJEKTY\procesory\STM\T104_V100a_GASTOP\sources/control.c:2799
	}
	else
	{
		if ( System_Timer_Check ( &Ind_Timer.Timer, T_10msec ) == TRUE )
  36:	2101      	movs	r1, #1
  38:	4814      	ldr	r0, [pc, #80]	(8c <Stop_Ind_Fwd_Fun+0x8c>)
  3a:	f7ff fffe 	bl	0 <System_Timer_Check>
  3e:	2801      	cmp	r0, #1
  40:	d11a      	bne.n	78 <Stop_Ind_Fwd_Fun+0x78>
C:\tien\PROJEKTY\procesory\STM\T104_V100a_GASTOP\sources/control.c:2801
		{
            Machine_State = Control_Variables[Machine_State].Motor_Enc_Ptr->Next[0];
  42:	4913      	ldr	r1, [pc, #76]	(90 <Stop_Ind_Fwd_Fun+0x90>)
  44:	4c13      	ldr	r4, [pc, #76]	(94 <Stop_Ind_Fwd_Fun+0x94>)
  46:	780b      	ldrb	r3, [r1, #0]
  48:	3013      	adds	r0, #19
  4a:	fb00 4303 	mla	r3, r0, r3, r4
  4e:	68db      	ldr	r3, [r3, #12]
  50:	791b      	ldrb	r3, [r3, #4]
  52:	700b      	strb	r3, [r1, #0]
C:\tien\PROJEKTY\procesory\STM\T104_V100a_GASTOP\sources/control.c:2803

            System_Timer_Setting (  &Control_Variables[Machine_State].Time_Connection_Ptr->Tmr_Cntr_Ptr->Timer,
  54:	780b      	ldrb	r3, [r1, #0]
  56:	780a      	ldrb	r2, [r1, #0]
  58:	fb00 4303 	mla	r3, r0, r3, r4
  5c:	fb00 4202 	mla	r2, r0, r2, r4
  60:	7809      	ldrb	r1, [r1, #0]
  62:	689d      	ldr	r5, [r3, #8]
  64:	fb00 4101 	mla	r1, r0, r1, r4
  68:	6893      	ldr	r3, [r2, #8]
  6a:	68a8      	ldr	r0, [r5, #8]
  6c:	681a      	ldr	r2, [r3, #0]
  6e:	688b      	ldr	r3, [r1, #8]
  70:	8811      	ldrh	r1, [r2, #0]
  72:	791a      	ldrb	r2, [r3, #4]
  74:	f7ff fffe 	bl	0 <System_Timer_Setting>
C:\tien\PROJEKTY\procesory\STM\T104_V100a_GASTOP\sources/control.c:2808
                                    *Control_Variables[Machine_State].Time_Connection_Ptr->Time_Value,
                                    Control_Variables[Machine_State].Time_Connection_Ptr->Resolution );
        }
    }
}
  78:	bd70      	pop	{r4, r5, r6, pc}
  7a:	46c0      	nop			(mov r8, r8)
	...
Disassembly of section .text.Standby_Zwora_Bck_Fun:

00000000 <Standby_Zwora_Bck_Fun>:
Standby_Zwora_Bck_Fun():
C:\tien\PROJEKTY\procesory\STM\T104_V100a_GASTOP\sources/control.c:2654
* Input          : None
* Output         : None
* Return         : None
*******************************************************************************/
static void Standby_Zwora_Bck_Fun ( void )
{
   0:	b570      	push	{r4, r5, r6, lr}
C:\tien\PROJEKTY\procesory\STM\T104_V100a_GASTOP\sources/control.c:2655
	if ( STANDBY_PWM_WAIT == FALSE )
   2:	4c1b      	ldr	r4, [pc, #108]	(70 <Standby_Zwora_Bck_Fun+0x70>)
   4:	7923      	ldrb	r3, [r4, #4]
   6:	b94b      	cbnz	r3, 1c <Standby_Zwora_Bck_Fun+0x1c>
C:\tien\PROJEKTY\procesory\STM\T104_V100a_GASTOP\sources/control.c:2657
	{
		System_Timer_Setting ( &Standby_Pwm_Timer.Timer, Service_Variables.Serv_Vars.Serwis_012, T_10msec );
   8:	4b1a      	ldr	r3, [pc, #104]	(74 <Standby_Zwora_Bck_Fun+0x74>)
   a:	481b      	ldr	r0, [pc, #108]	(78 <Standby_Zwora_Bck_Fun+0x78>)
   c:	f8b3 1040 	ldrh.w	r1, [r3, #64]
  10:	2201      	movs	r2, #1
  12:	f7ff fffe 	bl	0 <System_Timer_Setting>
C:\tien\PROJEKTY\procesory\STM\T104_V100a_GASTOP\sources/control.c:2658
		STANDBY_PWM_WAIT = TRUE;
  16:	2301      	movs	r3, #1
  18:	7123      	strb	r3, [r4, #4]
  1a:	e027      	b.n	6c <Standby_Zwora_Bck_Fun+0x6c>
C:\tien\PROJEKTY\procesory\STM\T104_V100a_GASTOP\sources/control.c:2662
	}
	else
	{
		if ( System_Timer_Check ( &Standby_Pwm_Timer.Timer, T_10msec ) == TRUE )
  1c:	2101      	movs	r1, #1
  1e:	4816      	ldr	r0, [pc, #88]	(78 <Standby_Zwora_Bck_Fun+0x78>)
  20:	f7ff fffe 	bl	0 <System_Timer_Check>
  24:	2801      	cmp	r0, #1
  26:	d121      	bne.n	6c <Standby_Zwora_Bck_Fun+0x6c>
C:\tien\PROJEKTY\procesory\STM\T104_V100a_GASTOP\sources/control.c:2664
		{
			STANDBY_PWM_WAIT = FALSE;
  28:	2300      	movs	r3, #0
  2a:	7123      	strb	r3, [r4, #4]
C:\tien\PROJEKTY\procesory\STM\T104_V100a_GASTOP\sources/control.c:2665
			Arm_Mem_Pos = Arm_Pos;
  2c:	4b13      	ldr	r3, [pc, #76]	(7c <Standby_Zwora_Bck_Fun+0x7c>)
  2e:	4a14      	ldr	r2, [pc, #80]	(80 <Standby_Zwora_Bck_Fun+0x80>)
  30:	881b      	ldrh	r3, [r3, #0]
C:\tien\PROJEKTY\procesory\STM\T104_V100a_GASTOP\sources/control.c:2667

			Machine_State = Control_Variables[Machine_State].Motor_Enc_Ptr->Next[0];
  32:	4914      	ldr	r1, [pc, #80]	(84 <Standby_Zwora_Bck_Fun+0x84>)
C:\tien\PROJEKTY\procesory\STM\T104_V100a_GASTOP\sources/control.c:2665
	else
	{
		if ( System_Timer_Check ( &Standby_Pwm_Timer.Timer, T_10msec ) == TRUE )
		{
			STANDBY_PWM_WAIT = FALSE;
			Arm_Mem_Pos = Arm_Pos;
  34:	b29b      	uxth	r3, r3
  36:	8013      	strh	r3, [r2, #0]
C:\tien\PROJEKTY\procesory\STM\T104_V100a_GASTOP\sources/control.c:2667

			Machine_State = Control_Variables[Machine_State].Motor_Enc_Ptr->Next[0];
  38:	780b      	ldrb	r3, [r1, #0]
  3a:	4c13      	ldr	r4, [pc, #76]	(88 <Standby_Zwora_Bck_Fun+0x88>)
  3c:	3013      	adds	r0, #19
  3e:	fb00 4303 	mla	r3, r0, r3, r4
  42:	68db      	ldr	r3, [r3, #12]
  44:	791b      	ldrb	r3, [r3, #4]
  46:	700b      	strb	r3, [r1, #0]
C:\tien\PROJEKTY\procesory\STM\T104_V100a_GASTOP\sources/control.c:2669

			System_Timer_Setting (  &Control_Variables[Machine_State].Time_Connection_Ptr->Tmr_Cntr_Ptr->Timer,
  48:	780b      	ldrb	r3, [r1, #0]
  4a:	780a      	ldrb	r2, [r1, #0]
  4c:	fb00 4303 	mla	r3, r0, r3, r4
  50:	fb00 4202 	mla	r2, r0, r2, r4
  54:	7809      	ldrb	r1, [r1, #0]
  56:	689d      	ldr	r5, [r3, #8]
  58:	fb00 4101 	mla	r1, r0, r1, r4
  5c:	6893      	ldr	r3, [r2, #8]
  5e:	68a8      	ldr	r0, [r5, #8]
  60:	681a      	ldr	r2, [r3, #0]
  62:	688b      	ldr	r3, [r1, #8]
  64:	8811      	ldrh	r1, [r2, #0]
  66:	791a      	ldrb	r2, [r3, #4]
  68:	f7ff fffe 	bl	0 <System_Timer_Setting>
C:\tien\PROJEKTY\procesory\STM\T104_V100a_GASTOP\sources/control.c:2674
									*Control_Variables[Machine_State].Time_Connection_Ptr->Time_Value,
									Control_Variables[Machine_State].Time_Connection_Ptr->Resolution );
		}
	}
}
  6c:	bd70      	pop	{r4, r5, r6, pc}
  6e:	46c0      	nop			(mov r8, r8)
	...
Disassembly of section .text.Standby_Zwora_Fwd_Fun:

00000000 <Standby_Zwora_Fwd_Fun>:
Standby_Zwora_Fwd_Fun():
C:\tien\PROJEKTY\procesory\STM\T104_V100a_GASTOP\sources/control.c:2624
* Input          : None
* Output         : None
* Return         : None
*******************************************************************************/
static void Standby_Zwora_Fwd_Fun ( void )
{
   0:	b570      	push	{r4, r5, r6, lr}
C:\tien\PROJEKTY\procesory\STM\T104_V100a_GASTOP\sources/control.c:2625
	if ( STANDBY_PWM_WAIT == FALSE )
   2:	4c1b      	ldr	r4, [pc, #108]	(70 <Standby_Zwora_Fwd_Fun+0x70>)
   4:	7923      	ldrb	r3, [r4, #4]
   6:	b94b      	cbnz	r3, 1c <Standby_Zwora_Fwd_Fun+0x1c>
C:\tien\PROJEKTY\procesory\STM\T104_V100a_GASTOP\sources/control.c:2627
	{
		System_Timer_Setting ( &Standby_Pwm_Timer.Timer, Service_Variables.Serv_Vars.Serwis_012, T_10msec );
   8:	4b1a      	ldr	r3, [pc, #104]	(74 <Standby_Zwora_Fwd_Fun+0x74>)
   a:	481b      	ldr	r0, [pc, #108]	(78 <Standby_Zwora_Fwd_Fun+0x78>)
   c:	f8b3 1040 	ldrh.w	r1, [r3, #64]
  10:	2201      	movs	r2, #1
  12:	f7ff fffe 	bl	0 <System_Timer_Setting>
C:\tien\PROJEKTY\procesory\STM\T104_V100a_GASTOP\sources/control.c:2628
		STANDBY_PWM_WAIT = TRUE;
  16:	2301      	movs	r3, #1
  18:	7123      	strb	r3, [r4, #4]
  1a:	e027      	b.n	6c <Standby_Zwora_Fwd_Fun+0x6c>
C:\tien\PROJEKTY\procesory\STM\T104_V100a_GASTOP\sources/control.c:2632
	}
	else
	{
		if ( System_Timer_Check ( &Standby_Pwm_Timer.Timer, T_10msec ) == TRUE )
  1c:	2101      	movs	r1, #1
  1e:	4816      	ldr	r0, [pc, #88]	(78 <Standby_Zwora_Fwd_Fun+0x78>)
  20:	f7ff fffe 	bl	0 <System_Timer_Check>
  24:	2801      	cmp	r0, #1
  26:	d121      	bne.n	6c <Standby_Zwora_Fwd_Fun+0x6c>
C:\tien\PROJEKTY\procesory\STM\T104_V100a_GASTOP\sources/control.c:2634
		{
			STANDBY_PWM_WAIT = FALSE;
  28:	2300      	movs	r3, #0
  2a:	7123      	strb	r3, [r4, #4]
C:\tien\PROJEKTY\procesory\STM\T104_V100a_GASTOP\sources/control.c:2635
			Arm_Mem_Pos = Arm_Pos;
  2c:	4b13      	ldr	r3, [pc, #76]	(7c <Standby_Zwora_Fwd_Fun+0x7c>)
  2e:	4a14      	ldr	r2, [pc, #80]	(80 <Standby_Zwora_Fwd_Fun+0x80>)
  30:	881b      	ldrh	r3, [r3, #0]
C:\tien\PROJEKTY\procesory\STM\T104_V100a_GASTOP\sources/control.c:2637

			Machine_State = Control_Variables[Machine_State].Motor_Enc_Ptr->Next[0];
  32:	4914      	ldr	r1, [pc, #80]	(84 <Standby_Zwora_Fwd_Fun+0x84>)
C:\tien\PROJEKTY\procesory\STM\T104_V100a_GASTOP\sources/control.c:2635
	else
	{
		if ( System_Timer_Check ( &Standby_Pwm_Timer.Timer, T_10msec ) == TRUE )
		{
			STANDBY_PWM_WAIT = FALSE;
			Arm_Mem_Pos = Arm_Pos;
  34:	b29b      	uxth	r3, r3
  36:	8013      	strh	r3, [r2, #0]
C:\tien\PROJEKTY\procesory\STM\T104_V100a_GASTOP\sources/control.c:2637

			Machine_State = Control_Variables[Machine_State].Motor_Enc_Ptr->Next[0];
  38:	780b      	ldrb	r3, [r1, #0]
  3a:	4c13      	ldr	r4, [pc, #76]	(88 <Standby_Zwora_Fwd_Fun+0x88>)
  3c:	3013      	adds	r0, #19
  3e:	fb00 4303 	mla	r3, r0, r3, r4
  42:	68db      	ldr	r3, [r3, #12]
  44:	791b      	ldrb	r3, [r3, #4]
  46:	700b      	strb	r3, [r1, #0]
C:\tien\PROJEKTY\procesory\STM\T104_V100a_GASTOP\sources/control.c:2639

			System_Timer_Setting (  &Control_Variables[Machine_State].Time_Connection_Ptr->Tmr_Cntr_Ptr->Timer,
  48:	780b      	ldrb	r3, [r1, #0]
  4a:	780a      	ldrb	r2, [r1, #0]
  4c:	fb00 4303 	mla	r3, r0, r3, r4
  50:	fb00 4202 	mla	r2, r0, r2, r4
  54:	7809      	ldrb	r1, [r1, #0]
  56:	689d      	ldr	r5, [r3, #8]
  58:	fb00 4101 	mla	r1, r0, r1, r4
  5c:	6893      	ldr	r3, [r2, #8]
  5e:	68a8      	ldr	r0, [r5, #8]
  60:	681a      	ldr	r2, [r3, #0]
  62:	688b      	ldr	r3, [r1, #8]
  64:	8811      	ldrh	r1, [r2, #0]
  66:	791a      	ldrb	r2, [r3, #4]
  68:	f7ff fffe 	bl	0 <System_Timer_Setting>
C:\tien\PROJEKTY\procesory\STM\T104_V100a_GASTOP\sources/control.c:2644
									*Control_Variables[Machine_State].Time_Connection_Ptr->Time_Value,
									Control_Variables[Machine_State].Time_Connection_Ptr->Resolution );
		}
	}
}
  6c:	bd70      	pop	{r4, r5, r6, pc}
  6e:	46c0      	nop			(mov r8, r8)
	...
Disassembly of section .text.Standby_Time_Wait:

00000000 <Standby_Time_Wait>:
Standby_Time_Wait():
C:\tien\PROJEKTY\procesory\STM\T104_V100a_GASTOP\sources/control.c:2241
* Input          : None
* Output         : None
* Return         : None
*******************************************************************************/
static void Standby_Time_Wait ( void )
{
   0:	b570      	push	{r4, r5, r6, lr}
C:\tien\PROJEKTY\procesory\STM\T104_V100a_GASTOP\sources/control.c:2242
	if ( STANDBY_PWM_WAIT == FALSE )
   2:	4c58      	ldr	r4, [pc, #352]	(164 <Standby_Time_Wait+0x164>)
   4:	7923      	ldrb	r3, [r4, #4]
   6:	b943      	cbnz	r3, 1a <Standby_Time_Wait+0x1a>
C:\tien\PROJEKTY\procesory\STM\T104_V100a_GASTOP\sources/control.c:2244
	{
		System_Timer_Setting ( &Standby_Pwm_Timer.Timer, Service_Variables.Serv_Vars.Serwis_011, T_10msec );
   8:	4b57      	ldr	r3, [pc, #348]	(168 <Standby_Time_Wait+0x168>)
   a:	4858      	ldr	r0, [pc, #352]	(16c <Standby_Time_Wait+0x16c>)
   c:	8fd9      	ldrh	r1, [r3, #62]
   e:	2201      	movs	r2, #1
  10:	f7ff fffe 	bl	0 <System_Timer_Setting>
C:\tien\PROJEKTY\procesory\STM\T104_V100a_GASTOP\sources/control.c:2245
		STANDBY_PWM_WAIT = TRUE;
  14:	2301      	movs	r3, #1
  16:	7123      	strb	r3, [r4, #4]
  18:	e09e      	b.n	158 <Standby_Time_Wait+0x158>
C:\tien\PROJEKTY\procesory\STM\T104_V100a_GASTOP\sources/control.c:2249
	}
	else
	{
		if ( System_Timer_Check ( &Standby_Pwm_Timer.Timer, T_10msec ) == TRUE )
  1a:	2101      	movs	r1, #1
  1c:	4853      	ldr	r0, [pc, #332]	(16c <Standby_Time_Wait+0x16c>)
  1e:	f7ff fffe 	bl	0 <System_Timer_Check>
  22:	2801      	cmp	r0, #1
  24:	f040 8098 	bne.w	158 <Standby_Time_Wait+0x158>
C:\tien\PROJEKTY\procesory\STM\T104_V100a_GASTOP\sources/control.c:2251
		{
            if ( Service_Variables.Serv_Vars.Szybkie_wejscie == 0 || Fast_Pass_Marker == 0 )
  28:	4a4f      	ldr	r2, [pc, #316]	(168 <Standby_Time_Wait+0x168>)
  2a:	7ed3      	ldrb	r3, [r2, #27]
  2c:	b11b      	cbz	r3, 36 <Standby_Time_Wait+0x36>
  2e:	4b50      	ldr	r3, [pc, #320]	(170 <Standby_Time_Wait+0x170>)
  30:	881b      	ldrh	r3, [r3, #0]
  32:	2b00      	cmp	r3, #0
  34:	d145      	bne.n	c2 <Standby_Time_Wait+0xc2>
C:\tien\PROJEKTY\procesory\STM\T104_V100a_GASTOP\sources/control.c:2253
            {
                if ( Service_Variables.Serv_Vars.W_wyjscie == 0 || Free_Exit_Marker == 0 )
  36:	4b4c      	ldr	r3, [pc, #304]	(168 <Standby_Time_Wait+0x168>)
  38:	7e9a      	ldrb	r2, [r3, #26]
  3a:	b112      	cbz	r2, 42 <Standby_Time_Wait+0x42>
  3c:	4b4d      	ldr	r3, [pc, #308]	(174 <Standby_Time_Wait+0x174>)
  3e:	881b      	ldrh	r3, [r3, #0]
  40:	b94b      	cbnz	r3, 56 <Standby_Time_Wait+0x56>
C:\tien\PROJEKTY\procesory\STM\T104_V100a_GASTOP\sources/control.c:2255
                {
                    Persons_Counter_Fwd = 0;
  42:	4b48      	ldr	r3, [pc, #288]	(164 <Standby_Time_Wait+0x164>)
  44:	f04f 0200 	mov.w	r2, #0	; 0x0
  48:	801a      	strh	r2, [r3, #0]
C:\tien\PROJEKTY\procesory\STM\T104_V100a_GASTOP\sources/control.c:2257
        
                    if ( Persons_Counter_Bck != 0 )
  4a:	885b      	ldrh	r3, [r3, #2]
  4c:	4a4a      	ldr	r2, [pc, #296]	(178 <Standby_Time_Wait+0x178>)
  4e:	2b00      	cmp	r3, #0
  50:	d12e      	bne.n	b0 <Standby_Time_Wait+0xb0>
C:\tien\PROJEKTY\procesory\STM\T104_V100a_GASTOP\sources/control.c:2263
                    {
                        Machine_State = STANDBY_ZWORA_BCK;             
                    }
                    else
                    {
                        Machine_State = ZWORA_FWD;
  52:	2303      	movs	r3, #3
  54:	e063      	b.n	11e <Standby_Time_Wait+0x11e>
C:\tien\PROJEKTY\procesory\STM\T104_V100a_GASTOP\sources/control.c:2269
                        System_Timer_Setting (  &Control_Variables[Machine_State].Time_Connection_Ptr->Tmr_Cntr_Ptr->Timer,
                                                *Control_Variables[Machine_State].Time_Connection_Ptr->Time_Value,
                                                Control_Variables[Machine_State].Time_Connection_Ptr->Resolution );
                    } 
                }
                else if ( Service_Variables.Serv_Vars.W_wyjscie == 1 || Free_Exit_Marker == 1 )
  56:	2a01      	cmp	r2, #1
  58:	d001      	beq.n	5e <Standby_Time_Wait+0x5e>
  5a:	2b01      	cmp	r3, #1
  5c:	d10a      	bne.n	74 <Standby_Time_Wait+0x74>
C:\tien\PROJEKTY\procesory\STM\T104_V100a_GASTOP\sources/control.c:2271
                {
                    Persons_Counter_Bck = 0;
  5e:	4b41      	ldr	r3, [pc, #260]	(164 <Standby_Time_Wait+0x164>)
  60:	f04f 0200 	mov.w	r2, #0	; 0x0
  64:	805a      	strh	r2, [r3, #2]
C:\tien\PROJEKTY\procesory\STM\T104_V100a_GASTOP\sources/control.c:2273
                
                    if ( Persons_Counter_Fwd != 0 )
  66:	881b      	ldrh	r3, [r3, #0]
  68:	4a43      	ldr	r2, [pc, #268]	(178 <Standby_Time_Wait+0x178>)
  6a:	b10b      	cbz	r3, 70 <Standby_Time_Wait+0x70>
C:\tien\PROJEKTY\procesory\STM\T104_V100a_GASTOP\sources/control.c:2275
                    {
                        Machine_State = STANDBY_ZWORA_FWD;             
  6c:	2305      	movs	r3, #5
  6e:	e026      	b.n	be <Standby_Time_Wait+0xbe>
C:\tien\PROJEKTY\procesory\STM\T104_V100a_GASTOP\sources/control.c:2279
                    }
                    else
                    {
                        Machine_State = ZWORA_BCK;
  70:	2304      	movs	r3, #4
  72:	e054      	b.n	11e <Standby_Time_Wait+0x11e>
C:\tien\PROJEKTY\procesory\STM\T104_V100a_GASTOP\sources/control.c:2285
                        System_Timer_Setting (  &Control_Variables[Machine_State].Time_Connection_Ptr->Tmr_Cntr_Ptr->Timer,
                                                *Control_Variables[Machine_State].Time_Connection_Ptr->Time_Value,
                                                Control_Variables[Machine_State].Time_Connection_Ptr->Resolution );
                    } 
                }
                else if ( Service_Variables.Serv_Vars.W_wyjscie == 2 || Free_Exit_Marker == 2 )
  74:	2a02      	cmp	r2, #2
  76:	d001      	beq.n	7c <Standby_Time_Wait+0x7c>
  78:	2b02      	cmp	r3, #2
  7a:	d165      	bne.n	148 <Standby_Time_Wait+0x148>
C:\tien\PROJEKTY\procesory\STM\T104_V100a_GASTOP\sources/control.c:2287
                {                
                    if ( Persons_Counter_Fwd != 0 && Persons_Counter_Bck == 0 )
  7c:	4b39      	ldr	r3, [pc, #228]	(164 <Standby_Time_Wait+0x164>)
  7e:	8819      	ldrh	r1, [r3, #0]
  80:	b121      	cbz	r1, 8c <Standby_Time_Wait+0x8c>
  82:	885b      	ldrh	r3, [r3, #2]
  84:	b913      	cbnz	r3, 8c <Standby_Time_Wait+0x8c>
C:\tien\PROJEKTY\procesory\STM\T104_V100a_GASTOP\sources/control.c:2289
                    {
                        Machine_State = STANDBY_ZWORA_FWD;
  86:	4b3c      	ldr	r3, [pc, #240]	(178 <Standby_Time_Wait+0x178>)
  88:	2205      	movs	r2, #5
  8a:	701a      	strb	r2, [r3, #0]
C:\tien\PROJEKTY\procesory\STM\T104_V100a_GASTOP\sources/control.c:2292
                    }
          
                    if ( Persons_Counter_Bck != 0 && Persons_Counter_Fwd == 0 )
  8c:	4b35      	ldr	r3, [pc, #212]	(164 <Standby_Time_Wait+0x164>)
  8e:	885b      	ldrh	r3, [r3, #2]
  90:	b123      	cbz	r3, 9c <Standby_Time_Wait+0x9c>
  92:	b931      	cbnz	r1, a2 <Standby_Time_Wait+0xa2>
C:\tien\PROJEKTY\procesory\STM\T104_V100a_GASTOP\sources/control.c:2294
                    {
                        Machine_State = STANDBY_ZWORA_BCK;
  94:	4b38      	ldr	r3, [pc, #224]	(178 <Standby_Time_Wait+0x178>)
  96:	2206      	movs	r2, #6
  98:	701a      	strb	r2, [r3, #0]
  9a:	e055      	b.n	148 <Standby_Time_Wait+0x148>
C:\tien\PROJEKTY\procesory\STM\T104_V100a_GASTOP\sources/control.c:2297
                    }
        
                    if ( Persons_Counter_Fwd != 0 && Persons_Counter_Bck != 0 )
  9c:	2900      	cmp	r1, #0
  9e:	d153      	bne.n	148 <Standby_Time_Wait+0x148>
  a0:	e008      	b.n	b4 <Standby_Time_Wait+0xb4>
C:\tien\PROJEKTY\procesory\STM\T104_V100a_GASTOP\sources/control.c:2299
                    {
                        if ( Service_Variables.Serv_Vars.Priority == 0 )
  a2:	4b31      	ldr	r3, [pc, #196]	(168 <Standby_Time_Wait+0x168>)
  a4:	4a34      	ldr	r2, [pc, #208]	(178 <Standby_Time_Wait+0x178>)
  a6:	f893 3066 	ldrb.w	r3, [r3, #102]
  aa:	b90b      	cbnz	r3, b0 <Standby_Time_Wait+0xb0>
C:\tien\PROJEKTY\procesory\STM\T104_V100a_GASTOP\sources/control.c:2301
                        {
                            Machine_State = STANDBY_ZWORA_FWD;
  ac:	3305      	adds	r3, #5
  ae:	e006      	b.n	be <Standby_Time_Wait+0xbe>
C:\tien\PROJEKTY\procesory\STM\T104_V100a_GASTOP\sources/control.c:2305
                        }
                        else
                        {
                            Machine_State = STANDBY_ZWORA_BCK;                       
  b0:	2306      	movs	r3, #6
  b2:	e004      	b.n	be <Standby_Time_Wait+0xbe>
C:\tien\PROJEKTY\procesory\STM\T104_V100a_GASTOP\sources/control.c:2311
                        }
                    }

                    if ( Persons_Counter_Fwd == 0 && Persons_Counter_Bck == 0 )
                    {
                        if ( Machine_State == STANDBY )
  b4:	4a30      	ldr	r2, [pc, #192]	(178 <Standby_Time_Wait+0x178>)
  b6:	7813      	ldrb	r3, [r2, #0]
  b8:	2b00      	cmp	r3, #0
  ba:	d12c      	bne.n	116 <Standby_Time_Wait+0x116>
C:\tien\PROJEKTY\procesory\STM\T104_V100a_GASTOP\sources/control.c:2313
                        {
                            Machine_State = STANDBY_PWM;
  bc:	3301      	adds	r3, #1
  be:	7013      	strb	r3, [r2, #0]
  c0:	e042      	b.n	148 <Standby_Time_Wait+0x148>
C:\tien\PROJEKTY\procesory\STM\T104_V100a_GASTOP\sources/control.c:2331
            else
            {
                Persons_Counter_Fwd = 0;
                Persons_Counter_Bck = 0;
            
                if ( Service_Variables.Serv_Vars.W_wyjscie == 0 || Free_Exit_Marker == 0 )
  c2:	7e92      	ldrb	r2, [r2, #26]
C:\tien\PROJEKTY\procesory\STM\T104_V100a_GASTOP\sources/control.c:2328
                    }
                }
			}
            else
            {
                Persons_Counter_Fwd = 0;
  c4:	f04f 0300 	mov.w	r3, #0	; 0x0
  c8:	8023      	strh	r3, [r4, #0]
C:\tien\PROJEKTY\procesory\STM\T104_V100a_GASTOP\sources/control.c:2329
                Persons_Counter_Bck = 0;
  ca:	8063      	strh	r3, [r4, #2]
C:\tien\PROJEKTY\procesory\STM\T104_V100a_GASTOP\sources/control.c:2331
            
                if ( Service_Variables.Serv_Vars.W_wyjscie == 0 || Free_Exit_Marker == 0 )
  cc:	b112      	cbz	r2, d4 <Standby_Time_Wait+0xd4>
  ce:	4b29      	ldr	r3, [pc, #164]	(174 <Standby_Time_Wait+0x174>)
  d0:	881b      	ldrh	r3, [r3, #0]
  d2:	b913      	cbnz	r3, da <Standby_Time_Wait+0xda>
C:\tien\PROJEKTY\procesory\STM\T104_V100a_GASTOP\sources/control.c:2333
                {
                    Machine_State = ZWORA_FWD;
  d4:	4b28      	ldr	r3, [pc, #160]	(178 <Standby_Time_Wait+0x178>)
  d6:	2203      	movs	r2, #3
  d8:	e005      	b.n	e6 <Standby_Time_Wait+0xe6>
C:\tien\PROJEKTY\procesory\STM\T104_V100a_GASTOP\sources/control.c:2339
                    System_Timer_Setting (  &Control_Variables[Machine_State].Time_Connection_Ptr->Tmr_Cntr_Ptr->Timer,
                                            *Control_Variables[Machine_State].Time_Connection_Ptr->Time_Value,
                                            Control_Variables[Machine_State].Time_Connection_Ptr->Resolution );

                }
                else if ( Service_Variables.Serv_Vars.W_wyjscie == 1 || Free_Exit_Marker == 1 )
  da:	2a01      	cmp	r2, #1
  dc:	d001      	beq.n	e2 <Standby_Time_Wait+0xe2>
  de:	2b01      	cmp	r3, #1
  e0:	d114      	bne.n	10c <Standby_Time_Wait+0x10c>
C:\tien\PROJEKTY\procesory\STM\T104_V100a_GASTOP\sources/control.c:2341
                {
                    Machine_State = ZWORA_BCK;
  e2:	4b25      	ldr	r3, [pc, #148]	(178 <Standby_Time_Wait+0x178>)
  e4:	2204      	movs	r2, #4
  e6:	701a      	strb	r2, [r3, #0]
C:\tien\PROJEKTY\procesory\STM\T104_V100a_GASTOP\sources/control.c:2342
                    System_Timer_Setting (  &Control_Variables[Machine_State].Time_Connection_Ptr->Tmr_Cntr_Ptr->Timer,
  e8:	781a      	ldrb	r2, [r3, #0]
  ea:	4c24      	ldr	r4, [pc, #144]	(17c <Standby_Time_Wait+0x17c>)
  ec:	7818      	ldrb	r0, [r3, #0]
  ee:	2114      	movs	r1, #20
  f0:	fb01 4000 	mla	r0, r1, r0, r4
  f4:	fb01 4202 	mla	r2, r1, r2, r4
  f8:	781d      	ldrb	r5, [r3, #0]
  fa:	6883      	ldr	r3, [r0, #8]
  fc:	fb01 4505 	mla	r5, r1, r5, r4
 100:	6896      	ldr	r6, [r2, #8]
 102:	681a      	ldr	r2, [r3, #0]
 104:	68b0      	ldr	r0, [r6, #8]
 106:	68ab      	ldr	r3, [r5, #8]
 108:	8811      	ldrh	r1, [r2, #0]
 10a:	e01a      	b.n	142 <Standby_Time_Wait+0x142>
C:\tien\PROJEKTY\procesory\STM\T104_V100a_GASTOP\sources/control.c:2347
                                            *Control_Variables[Machine_State].Time_Connection_Ptr->Time_Value,
                                            Control_Variables[Machine_State].Time_Connection_Ptr->Resolution );

                }
                else if ( Service_Variables.Serv_Vars.W_wyjscie == 2 || Free_Exit_Marker == 2 )
 10c:	2a02      	cmp	r2, #2
 10e:	d0d1      	beq.n	b4 <Standby_Time_Wait+0xb4>
 110:	2b02      	cmp	r3, #2
 112:	d119      	bne.n	148 <Standby_Time_Wait+0x148>
 114:	e7ce      	b.n	b4 <Standby_Time_Wait+0xb4>
C:\tien\PROJEKTY\procesory\STM\T104_V100a_GASTOP\sources/control.c:2353
                {
                    if ( Machine_State == STANDBY )
                    {
                        Machine_State = STANDBY_PWM;
                    }
                    else if ( Machine_State == STANDBY_NOBRAKE )
 116:	7813      	ldrb	r3, [r2, #0]
 118:	2b23      	cmp	r3, #35
 11a:	d115      	bne.n	148 <Standby_Time_Wait+0x148>
C:\tien\PROJEKTY\procesory\STM\T104_V100a_GASTOP\sources/control.c:2355
                    {
                        Machine_State = STANDBY_WAIT_NB;
 11c:	3303      	adds	r3, #3
 11e:	7013      	strb	r3, [r2, #0]
C:\tien\PROJEKTY\procesory\STM\T104_V100a_GASTOP\sources/control.c:2356
                        System_Timer_Setting (  &Control_Variables[Machine_State].Time_Connection_Ptr->Tmr_Cntr_Ptr->Timer,
 120:	7813      	ldrb	r3, [r2, #0]
 122:	4816      	ldr	r0, [pc, #88]	(17c <Standby_Time_Wait+0x17c>)
 124:	7811      	ldrb	r1, [r2, #0]
 126:	7814      	ldrb	r4, [r2, #0]
 128:	2214      	movs	r2, #20
 12a:	fb02 0303 	mla	r3, r2, r3, r0
 12e:	fb02 0101 	mla	r1, r2, r1, r0
 132:	689d      	ldr	r5, [r3, #8]
 134:	fb02 0404 	mla	r4, r2, r4, r0
 138:	688b      	ldr	r3, [r1, #8]
 13a:	68a8      	ldr	r0, [r5, #8]
 13c:	6819      	ldr	r1, [r3, #0]
 13e:	68a3      	ldr	r3, [r4, #8]
 140:	8809      	ldrh	r1, [r1, #0]
 142:	791a      	ldrb	r2, [r3, #4]
 144:	f7ff fffe 	bl	0 <System_Timer_Setting>
C:\tien\PROJEKTY\procesory\STM\T104_V100a_GASTOP\sources/control.c:2364

                    }
                }
            }
            
            Controller_Variables.Controller_Vars.Sensor_Counter = IND_OFFSET;
 148:	4a0d      	ldr	r2, [pc, #52]	(180 <Standby_Time_Wait+0x180>)
 14a:	2364      	movs	r3, #100
 14c:	7113      	strb	r3, [r2, #4]
C:\tien\PROJEKTY\procesory\STM\T104_V100a_GASTOP\sources/control.c:2365
            Controller_Variables.Controller_Vars.Sensor_Counter_Copy = IND_OFFSET;
 14e:	7193      	strb	r3, [r2, #6]
C:\tien\PROJEKTY\procesory\STM\T104_V100a_GASTOP\sources/control.c:2368
       
        
			STANDBY_PWM_WAIT = FALSE;
 150:	4a04      	ldr	r2, [pc, #16]	(164 <Standby_Time_Wait+0x164>)
 152:	2300      	movs	r3, #0
 154:	7113      	strb	r3, [r2, #4]
C:\tien\PROJEKTY\procesory\STM\T104_V100a_GASTOP\sources/control.c:2369
            EXIT_VAR_FLAG = FALSE;
 156:	7153      	strb	r3, [r2, #5]
C:\tien\PROJEKTY\procesory\STM\T104_V100a_GASTOP\sources/control.c:2375

		}
	}


    Arm_Mem_Pos = Arm_Pos;
 158:	4b0a      	ldr	r3, [pc, #40]	(184 <Standby_Time_Wait+0x184>)
 15a:	4a0b      	ldr	r2, [pc, #44]	(188 <Standby_Time_Wait+0x188>)
 15c:	881b      	ldrh	r3, [r3, #0]
 15e:	b29b      	uxth	r3, r3
 160:	8013      	strh	r3, [r2, #0]
C:\tien\PROJEKTY\procesory\STM\T104_V100a_GASTOP\sources/control.c:2376
}
 162:	bd70      	pop	{r4, r5, r6, pc}
	...
Disassembly of section .text.Forcing_Loop:

00000000 <Forcing_Loop>:
Forcing_Loop():
C:\tien\PROJEKTY\procesory\STM\T104_V100a_GASTOP\sources/control.c:2208
* Output         : None
* Return         : None
*******************************************************************************/
static void Forcing_Loop ( void )
{
	if ( System_Timer_Check ( &Forcing_Timer.Timer, T_10msec ) == TRUE )
   0:	2101      	movs	r1, #1
C:\tien\PROJEKTY\procesory\STM\T104_V100a_GASTOP\sources/control.c:2207
* Input          : None
* Output         : None
* Return         : None
*******************************************************************************/
static void Forcing_Loop ( void )
{
   2:	b510      	push	{r4, lr}
C:\tien\PROJEKTY\procesory\STM\T104_V100a_GASTOP\sources/control.c:2208
	if ( System_Timer_Check ( &Forcing_Timer.Timer, T_10msec ) == TRUE )
   4:	4813      	ldr	r0, [pc, #76]	(54 <Forcing_Loop+0x54>)
   6:	f7ff fffe 	bl	0 <System_Timer_Check>
   a:	2801      	cmp	r0, #1
   c:	d108      	bne.n	20 <Forcing_Loop+0x20>
C:\tien\PROJEKTY\procesory\STM\T104_V100a_GASTOP\sources/control.c:2214
	{
//Dla ponownego pozycjonowania
//		Machine_State = Control_Variables[Machine_State].Motor_Enc_Ptr->Next[0];
//		System_Timer_Setting ( &Forcing_Timer.Timer, Service_Variables.Serv_Vars.Serwis_013, T_10msec );

   		Machine_State = Control_Variables[Machine_State].Motor_Enc_Ptr->Next[1];
   e:	4812      	ldr	r0, [pc, #72]	(58 <Forcing_Loop+0x58>)
  10:	4a12      	ldr	r2, [pc, #72]	(5c <Forcing_Loop+0x5c>)
  12:	7803      	ldrb	r3, [r0, #0]
  14:	2114      	movs	r1, #20
  16:	fb01 2303 	mla	r3, r1, r3, r2
  1a:	68db      	ldr	r3, [r3, #12]
  1c:	795b      	ldrb	r3, [r3, #5]
  1e:	7003      	strb	r3, [r0, #0]
C:\tien\PROJEKTY\procesory\STM\T104_V100a_GASTOP\sources/control.c:2218

	}

    if ( Service_Variables.Serv_Vars.Sensor_Type == 0 )//ENKODER
  20:	4a0f      	ldr	r2, [pc, #60]	(60 <Forcing_Loop+0x60>)
  22:	f892 306d 	ldrb.w	r3, [r2, #109]
  26:	b92b      	cbnz	r3, 34 <Forcing_Loop+0x34>
C:\tien\PROJEKTY\procesory\STM\T104_V100a_GASTOP\sources/control.c:2220
    {
        if ( Position_Check(Service_Variables.Serv_Vars.Serwis_003) == TRUE )
  28:	8dd0      	ldrh	r0, [r2, #46]
  2a:	f7ff fffe 	bl	0 <Forcing_Loop>
  2e:	2801      	cmp	r0, #1
  30:	d10e      	bne.n	50 <Forcing_Loop+0x50>
  32:	e004      	b.n	3e <Forcing_Loop+0x3e>
C:\tien\PROJEKTY\procesory\STM\T104_V100a_GASTOP\sources/control.c:2227
            Machine_State = Control_Variables[Machine_State].Motor_Enc_Ptr->Next[1];
        }
    }
    else//INDUCTIVE
    {
        if ( Inputs_Level & IND_SENSOR1 )
  34:	4b0b      	ldr	r3, [pc, #44]	(64 <Forcing_Loop+0x64>)
  36:	881b      	ldrh	r3, [r3, #0]
  38:	f013 0f04 	tst.w	r3, #4	; 0x4
  3c:	d008      	beq.n	50 <Forcing_Loop+0x50>
C:\tien\PROJEKTY\procesory\STM\T104_V100a_GASTOP\sources/control.c:2229
        {
            Machine_State = Control_Variables[Machine_State].Motor_Enc_Ptr->Next[1];
  3e:	4806      	ldr	r0, [pc, #24]	(58 <Forcing_Loop+0x58>)
  40:	4a06      	ldr	r2, [pc, #24]	(5c <Forcing_Loop+0x5c>)
  42:	7803      	ldrb	r3, [r0, #0]
  44:	2114      	movs	r1, #20
  46:	fb01 2303 	mla	r3, r1, r3, r2
  4a:	68db      	ldr	r3, [r3, #12]
  4c:	795b      	ldrb	r3, [r3, #5]
  4e:	7003      	strb	r3, [r0, #0]
C:\tien\PROJEKTY\procesory\STM\T104_V100a_GASTOP\sources/control.c:2232
        }
    }
}
  50:	bd10      	pop	{r4, pc}
  52:	46c0      	nop			(mov r8, r8)
	...
Disassembly of section .text.Forcing_Wait:

00000000 <Forcing_Wait>:
Forcing_Wait():
C:\tien\PROJEKTY\procesory\STM\T104_V100a_GASTOP\sources/control.c:2114
* Input          : None
* Output         : None
* Return         : None
*******************************************************************************/
static void Forcing_Wait ( void )
{
   0:	b570      	push	{r4, r5, r6, lr}
C:\tien\PROJEKTY\procesory\STM\T104_V100a_GASTOP\sources/control.c:2118
	static uint16_t Arm_Pos_Temp;
	static uint16_t Half_Cycle;

    if ( Service_Variables.Serv_Vars.Sensor_Type == 0 )//ENKODER
   2:	4a58      	ldr	r2, [pc, #352]	(164 <Forcing_Wait+0x164>)
   4:	f892 306d 	ldrb.w	r3, [r2, #109]
   8:	2b00      	cmp	r3, #0
   a:	d163      	bne.n	d4 <Forcing_Wait+0xd4>
C:\tien\PROJEKTY\procesory\STM\T104_V100a_GASTOP\sources/control.c:2120
    {
        if ( Service_Variables.Serv_Vars.KOlowrotek == 0 )
   c:	7d93      	ldrb	r3, [r2, #22]
   e:	4a56      	ldr	r2, [pc, #344]	(168 <Forcing_Wait+0x168>)
  10:	b913      	cbnz	r3, 18 <Forcing_Wait+0x18>
C:\tien\PROJEKTY\procesory\STM\T104_V100a_GASTOP\sources/control.c:2122
        {
            Half_Cycle = 170;
  12:	f04f 03aa 	mov.w	r3, #170	; 0xaa
  16:	e001      	b.n	1c <Forcing_Wait+0x1c>
C:\tien\PROJEKTY\procesory\STM\T104_V100a_GASTOP\sources/control.c:2126
        }
        else
        {
            Half_Cycle = 130;
  18:	f04f 0382 	mov.w	r3, #130	; 0x82
C:\tien\PROJEKTY\procesory\STM\T104_V100a_GASTOP\sources/control.c:2129
        }

        if ( System_Timer_Check ( &Forcing_Timer.Timer, T_10msec ) == TRUE )
  1c:	2101      	movs	r1, #1
C:\tien\PROJEKTY\procesory\STM\T104_V100a_GASTOP\sources/control.c:2126
        {
            Half_Cycle = 170;
        }
        else
        {
            Half_Cycle = 130;
  1e:	8293      	strh	r3, [r2, #20]
C:\tien\PROJEKTY\procesory\STM\T104_V100a_GASTOP\sources/control.c:2129
        }

        if ( System_Timer_Check ( &Forcing_Timer.Timer, T_10msec ) == TRUE )
  20:	4852      	ldr	r0, [pc, #328]	(16c <Forcing_Wait+0x16c>)
  22:	f7ff fffe 	bl	0 <System_Timer_Check>
  26:	2801      	cmp	r0, #1
  28:	f040 809a 	bne.w	160 <Forcing_Wait+0x160>
C:\tien\PROJEKTY\procesory\STM\T104_V100a_GASTOP\sources/control.c:2131
        {
            Arm_Pos_Temp = Arm_Pos;
  2c:	4b50      	ldr	r3, [pc, #320]	(170 <Forcing_Wait+0x170>)
  2e:	494e      	ldr	r1, [pc, #312]	(168 <Forcing_Wait+0x168>)
  30:	881b      	ldrh	r3, [r3, #0]
  32:	b29a      	uxth	r2, r3
C:\tien\PROJEKTY\procesory\STM\T104_V100a_GASTOP\sources/control.c:2133

            if ( Arm_Pos_Temp < Arms_Stop_Pos.Min_Pos1 )
  34:	4b4f      	ldr	r3, [pc, #316]	(174 <Forcing_Wait+0x174>)
C:\tien\PROJEKTY\procesory\STM\T104_V100a_GASTOP\sources/control.c:2131
            Half_Cycle = 130;
        }

        if ( System_Timer_Check ( &Forcing_Timer.Timer, T_10msec ) == TRUE )
        {
            Arm_Pos_Temp = Arm_Pos;
  36:	82ca      	strh	r2, [r1, #22]
C:\tien\PROJEKTY\procesory\STM\T104_V100a_GASTOP\sources/control.c:2133

            if ( Arm_Pos_Temp < Arms_Stop_Pos.Min_Pos1 )
  38:	881b      	ldrh	r3, [r3, #0]
  3a:	b29b      	uxth	r3, r3
  3c:	429a      	cmp	r2, r3
  3e:	d203      	bcs.n	48 <Forcing_Wait+0x48>
C:\tien\PROJEKTY\procesory\STM\T104_V100a_GASTOP\sources/control.c:2135
            {
                Arm_Pos_Temp += 1023;
  40:	f502 737e 	add.w	r3, r2, #1016	; 0x3f8
  44:	3307      	adds	r3, #7
  46:	82cb      	strh	r3, [r1, #22]
C:\tien\PROJEKTY\procesory\STM\T104_V100a_GASTOP\sources/control.c:2138
            }

            if ( Position_Check(Service_Variables.Serv_Vars.Serwis_004) == FALSE )
  48:	4b46      	ldr	r3, [pc, #280]	(164 <Forcing_Wait+0x164>)
  4a:	8e18      	ldrh	r0, [r3, #48]
  4c:	f7ff fffe 	bl	0 <Forcing_Wait>
  50:	2800      	cmp	r0, #0
  52:	d17e      	bne.n	152 <Forcing_Wait+0x152>
C:\tien\PROJEKTY\procesory\STM\T104_V100a_GASTOP\sources/control.c:2140
            {
                if ( Arm_Pos_Temp > Arms_Stop_Pos.Max_Pos1 && Arm_Pos_Temp < (Arms_Stop_Pos.Max_Pos1 + Half_Cycle) )
  54:	4a47      	ldr	r2, [pc, #284]	(174 <Forcing_Wait+0x174>)
  56:	4844      	ldr	r0, [pc, #272]	(168 <Forcing_Wait+0x168>)
  58:	8853      	ldrh	r3, [r2, #2]
  5a:	8ac1      	ldrh	r1, [r0, #22]
  5c:	b29b      	uxth	r3, r3
  5e:	4299      	cmp	r1, r3
  60:	d905      	bls.n	6e <Forcing_Wait+0x6e>
  62:	8852      	ldrh	r2, [r2, #2]
  64:	8a83      	ldrh	r3, [r0, #20]
  66:	b292      	uxth	r2, r2
  68:	189b      	adds	r3, r3, r2
  6a:	4299      	cmp	r1, r3
  6c:	db41      	blt.n	f2 <Forcing_Wait+0xf2>
C:\tien\PROJEKTY\procesory\STM\T104_V100a_GASTOP\sources/control.c:2144
                {
                    Machine_State = Control_Variables[Machine_State].Motor_Enc_Ptr->Next[0];
                }
                else if ( Arm_Pos_Temp > Arms_Stop_Pos.Max_Pos2 && Arm_Pos_Temp < (Arms_Stop_Pos.Max_Pos2 + Half_Cycle) )
  6e:	4a41      	ldr	r2, [pc, #260]	(174 <Forcing_Wait+0x174>)
  70:	88d3      	ldrh	r3, [r2, #6]
  72:	b29b      	uxth	r3, r3
  74:	4299      	cmp	r1, r3
  76:	d906      	bls.n	86 <Forcing_Wait+0x86>
  78:	88d3      	ldrh	r3, [r2, #6]
  7a:	4a3b      	ldr	r2, [pc, #236]	(168 <Forcing_Wait+0x168>)
  7c:	b29b      	uxth	r3, r3
  7e:	8a92      	ldrh	r2, [r2, #20]
  80:	18d2      	adds	r2, r2, r3
  82:	4291      	cmp	r1, r2
  84:	db35      	blt.n	f2 <Forcing_Wait+0xf2>
C:\tien\PROJEKTY\procesory\STM\T104_V100a_GASTOP\sources/control.c:2148
                {
                    Machine_State = Control_Variables[Machine_State].Motor_Enc_Ptr->Next[0];
                }
                else if ( Arm_Pos_Temp > Arms_Stop_Pos.Max_Pos3 && Arm_Pos_Temp < (Arms_Stop_Pos.Max_Pos3 + Half_Cycle) )
  86:	4a3b      	ldr	r2, [pc, #236]	(174 <Forcing_Wait+0x174>)
  88:	8953      	ldrh	r3, [r2, #10]
  8a:	b29b      	uxth	r3, r3
  8c:	4299      	cmp	r1, r3
  8e:	d906      	bls.n	9e <Forcing_Wait+0x9e>
  90:	8953      	ldrh	r3, [r2, #10]
  92:	4a35      	ldr	r2, [pc, #212]	(168 <Forcing_Wait+0x168>)
  94:	b29b      	uxth	r3, r3
  96:	8a92      	ldrh	r2, [r2, #20]
  98:	18d2      	adds	r2, r2, r3
  9a:	4291      	cmp	r1, r2
  9c:	db29      	blt.n	f2 <Forcing_Wait+0xf2>
C:\tien\PROJEKTY\procesory\STM\T104_V100a_GASTOP\sources/control.c:2152
                {
                    Machine_State = Control_Variables[Machine_State].Motor_Enc_Ptr->Next[0];
                }
                else if ( Arm_Pos_Temp > Arms_Stop_Pos.Max_Pos4 && Arm_Pos_Temp < (Arms_Stop_Pos.Max_Pos4 + Half_Cycle) )
  9e:	4a35      	ldr	r2, [pc, #212]	(174 <Forcing_Wait+0x174>)
  a0:	89d3      	ldrh	r3, [r2, #14]
  a2:	b29b      	uxth	r3, r3
  a4:	4299      	cmp	r1, r3
  a6:	d90b      	bls.n	c0 <Forcing_Wait+0xc0>
  a8:	89d3      	ldrh	r3, [r2, #14]
  aa:	4a2f      	ldr	r2, [pc, #188]	(168 <Forcing_Wait+0x168>)
  ac:	b29b      	uxth	r3, r3
  ae:	8a92      	ldrh	r2, [r2, #20]
  b0:	18d2      	adds	r2, r2, r3
  b2:	4291      	cmp	r1, r2
  b4:	da04      	bge.n	c0 <Forcing_Wait+0xc0>
C:\tien\PROJEKTY\procesory\STM\T104_V100a_GASTOP\sources/control.c:2154
                {
                    if ( Service_Variables.Serv_Vars.KOlowrotek == 1 )
  b6:	4b2b      	ldr	r3, [pc, #172]	(164 <Forcing_Wait+0x164>)
  b8:	7d9b      	ldrb	r3, [r3, #22]
  ba:	2b01      	cmp	r3, #1
  bc:	d134      	bne.n	128 <Forcing_Wait+0x128>
  be:	e018      	b.n	f2 <Forcing_Wait+0xf2>
C:\tien\PROJEKTY\procesory\STM\T104_V100a_GASTOP\sources/control.c:2161
                        Machine_State = Control_Variables[Machine_State].Motor_Enc_Ptr->Next[0];
                    }
                }
                else
                {
                    Machine_State = Control_Variables[Machine_State].Motor_Enc_Ptr->Next[1];
  c0:	482d      	ldr	r0, [pc, #180]	(178 <Forcing_Wait+0x178>)
  c2:	4a2e      	ldr	r2, [pc, #184]	(17c <Forcing_Wait+0x17c>)
  c4:	7803      	ldrb	r3, [r0, #0]
  c6:	2114      	movs	r1, #20
  c8:	fb01 2303 	mla	r3, r1, r3, r2
  cc:	68db      	ldr	r3, [r3, #12]
  ce:	795b      	ldrb	r3, [r3, #5]
  d0:	7003      	strb	r3, [r0, #0]
  d2:	e029      	b.n	128 <Forcing_Wait+0x128>
C:\tien\PROJEKTY\procesory\STM\T104_V100a_GASTOP\sources/control.c:2173
            System_Timer_Setting ( &Forcing_Timer.Timer, Service_Variables.Serv_Vars.Serwis_022, T_10msec );
        }
    }
    else//INDUCTIVE
    {
        if ( System_Timer_Check ( &Forcing_Timer.Timer, T_10msec ) == TRUE )
  d4:	2101      	movs	r1, #1
  d6:	4825      	ldr	r0, [pc, #148]	(16c <Forcing_Wait+0x16c>)
  d8:	f7ff fffe 	bl	0 <System_Timer_Check>
  dc:	2801      	cmp	r0, #1
  de:	d13f      	bne.n	160 <Forcing_Wait+0x160>
C:\tien\PROJEKTY\procesory\STM\T104_V100a_GASTOP\sources/control.c:2175
        {
            if ( !(Inputs_Level & IND_SENSOR1) )
  e0:	4b27      	ldr	r3, [pc, #156]	(180 <Forcing_Wait+0x180>)
  e2:	881b      	ldrh	r3, [r3, #0]
  e4:	f013 0f04 	tst.w	r3, #4	; 0x4
  e8:	d133      	bne.n	152 <Forcing_Wait+0x152>
C:\tien\PROJEKTY\procesory\STM\T104_V100a_GASTOP\sources/control.c:2177
            {
                if ( Controller_Variables.Controller_Vars.Sensor_Direction_Detect == 1)
  ea:	4b26      	ldr	r3, [pc, #152]	(184 <Forcing_Wait+0x184>)
  ec:	79db      	ldrb	r3, [r3, #7]
  ee:	2b01      	cmp	r3, #1
  f0:	d108      	bne.n	104 <Forcing_Wait+0x104>
C:\tien\PROJEKTY\procesory\STM\T104_V100a_GASTOP\sources/control.c:2179
                {
                    Machine_State = Control_Variables[Machine_State].Motor_Enc_Ptr->Next[0];
  f2:	4821      	ldr	r0, [pc, #132]	(178 <Forcing_Wait+0x178>)
  f4:	4a21      	ldr	r2, [pc, #132]	(17c <Forcing_Wait+0x17c>)
  f6:	7803      	ldrb	r3, [r0, #0]
  f8:	2114      	movs	r1, #20
  fa:	fb01 2303 	mla	r3, r1, r3, r2
  fe:	68db      	ldr	r3, [r3, #12]
 100:	791b      	ldrb	r3, [r3, #4]
 102:	e7e5      	b.n	d0 <Forcing_Wait+0xd0>
C:\tien\PROJEKTY\procesory\STM\T104_V100a_GASTOP\sources/control.c:2181
                }
                else if ( Controller_Variables.Controller_Vars.Sensor_Direction_Detect == 2 )
 104:	2b02      	cmp	r3, #2
 106:	491c      	ldr	r1, [pc, #112]	(178 <Forcing_Wait+0x178>)
 108:	481c      	ldr	r0, [pc, #112]	(17c <Forcing_Wait+0x17c>)
 10a:	d106      	bne.n	11a <Forcing_Wait+0x11a>
C:\tien\PROJEKTY\procesory\STM\T104_V100a_GASTOP\sources/control.c:2183
                {
                    Machine_State = Control_Variables[Machine_State].Motor_Enc_Ptr->Next[1];
 10c:	780b      	ldrb	r3, [r1, #0]
 10e:	2214      	movs	r2, #20
 110:	fb02 0303 	mla	r3, r2, r3, r0
 114:	68db      	ldr	r3, [r3, #12]
 116:	795b      	ldrb	r3, [r3, #5]
 118:	e005      	b.n	126 <Forcing_Wait+0x126>
C:\tien\PROJEKTY\procesory\STM\T104_V100a_GASTOP\sources/control.c:2187
                }
                else 
                {
                    Machine_State = Control_Variables[Machine_State].Motor_Enc_Ptr->Next[0];
 11a:	780b      	ldrb	r3, [r1, #0]
 11c:	2214      	movs	r2, #20
 11e:	fb02 0303 	mla	r3, r2, r3, r0
 122:	68db      	ldr	r3, [r3, #12]
 124:	791b      	ldrb	r3, [r3, #4]
 126:	700b      	strb	r3, [r1, #0]
C:\tien\PROJEKTY\procesory\STM\T104_V100a_GASTOP\sources/control.c:2190
                }
            
                System_Timer_Setting (  &Control_Variables[Machine_State].Time_Connection_Ptr->Tmr_Cntr_Ptr->Timer,
 128:	4b13      	ldr	r3, [pc, #76]	(178 <Forcing_Wait+0x178>)
 12a:	4c14      	ldr	r4, [pc, #80]	(17c <Forcing_Wait+0x17c>)
 12c:	781a      	ldrb	r2, [r3, #0]
 12e:	7818      	ldrb	r0, [r3, #0]
 130:	2114      	movs	r1, #20
 132:	fb01 4000 	mla	r0, r1, r0, r4
 136:	781d      	ldrb	r5, [r3, #0]
 138:	fb01 4202 	mla	r2, r1, r2, r4
 13c:	fb01 4505 	mla	r5, r1, r5, r4
 140:	6883      	ldr	r3, [r0, #8]
 142:	6896      	ldr	r6, [r2, #8]
 144:	681a      	ldr	r2, [r3, #0]
 146:	68ab      	ldr	r3, [r5, #8]
 148:	8811      	ldrh	r1, [r2, #0]
 14a:	68b0      	ldr	r0, [r6, #8]
 14c:	791a      	ldrb	r2, [r3, #4]
 14e:	f7ff fffe 	bl	0 <System_Timer_Setting>
C:\tien\PROJEKTY\procesory\STM\T104_V100a_GASTOP\sources/control.c:2194
                                        *Control_Variables[Machine_State].Time_Connection_Ptr->Time_Value,
                                        Control_Variables[Machine_State].Time_Connection_Ptr->Resolution );
            }
            System_Timer_Setting ( &Forcing_Timer.Timer, Service_Variables.Serv_Vars.Serwis_022, T_10msec );
 152:	4b04      	ldr	r3, [pc, #16]	(164 <Forcing_Wait+0x164>)
 154:	4805      	ldr	r0, [pc, #20]	(16c <Forcing_Wait+0x16c>)
 156:	f8b3 1078 	ldrh.w	r1, [r3, #120]
 15a:	2201      	movs	r2, #1
 15c:	f7ff fffe 	bl	0 <System_Timer_Setting>
C:\tien\PROJEKTY\procesory\STM\T104_V100a_GASTOP\sources/control.c:2197
        }        
    }
}
 160:	bd70      	pop	{r4, r5, r6, pc}
 162:	46c0      	nop			(mov r8, r8)
	...
Disassembly of section .text.Test_Interval_Fun:

00000000 <Test_Interval_Fun>:
Test_Interval_Fun():
C:\tien\PROJEKTY\procesory\STM\T104_V100a_GASTOP\sources/control.c:2767
* Input          : None
* Output         : None
* Return         : None
*******************************************************************************/
static void Test_Interval_Fun ( void )
{
   0:	b510      	push	{r4, lr}
C:\tien\PROJEKTY\procesory\STM\T104_V100a_GASTOP\sources/control.c:2768
	if ( TEST_INTERVAL_FLAG == FALSE )
   2:	4c0f      	ldr	r4, [pc, #60]	(40 <Test_Interval_Fun+0x40>)
   4:	7e23      	ldrb	r3, [r4, #24]
   6:	b943      	cbnz	r3, 1a <Test_Interval_Fun+0x1a>
C:\tien\PROJEKTY\procesory\STM\T104_V100a_GASTOP\sources/control.c:2770
	{
		System_Timer_Setting ( &Test_Interval_Timer.Timer, Service_Variables.Serv_Vars.Serwis_015, T_10msec );
   8:	4b0e      	ldr	r3, [pc, #56]	(44 <Test_Interval_Fun+0x44>)
   a:	480f      	ldr	r0, [pc, #60]	(48 <Test_Interval_Fun+0x48>)
   c:	f8b3 1046 	ldrh.w	r1, [r3, #70]
  10:	2201      	movs	r2, #1
  12:	f7ff fffe 	bl	0 <System_Timer_Setting>
C:\tien\PROJEKTY\procesory\STM\T104_V100a_GASTOP\sources/control.c:2771
		TEST_INTERVAL_FLAG= TRUE;
  16:	2301      	movs	r3, #1
  18:	e00f      	b.n	3a <Test_Interval_Fun+0x3a>
C:\tien\PROJEKTY\procesory\STM\T104_V100a_GASTOP\sources/control.c:2775
	}
	else
	{
		if ( System_Timer_Check ( &Test_Interval_Timer.Timer, T_10msec ) == TRUE )
  1a:	2101      	movs	r1, #1
  1c:	480a      	ldr	r0, [pc, #40]	(48 <Test_Interval_Fun+0x48>)
  1e:	f7ff fffe 	bl	0 <System_Timer_Check>
  22:	2801      	cmp	r0, #1
  24:	d10a      	bne.n	3c <Test_Interval_Fun+0x3c>
C:\tien\PROJEKTY\procesory\STM\T104_V100a_GASTOP\sources/control.c:2777
		{
            Machine_State = Control_Variables[Machine_State].Motor_Enc_Ptr->Next[0];
  26:	4809      	ldr	r0, [pc, #36]	(4c <Test_Interval_Fun+0x4c>)
  28:	4a09      	ldr	r2, [pc, #36]	(50 <Test_Interval_Fun+0x50>)
  2a:	7803      	ldrb	r3, [r0, #0]
  2c:	2114      	movs	r1, #20
  2e:	fb01 2303 	mla	r3, r1, r3, r2
  32:	68db      	ldr	r3, [r3, #12]
  34:	791b      	ldrb	r3, [r3, #4]
  36:	7003      	strb	r3, [r0, #0]
C:\tien\PROJEKTY\procesory\STM\T104_V100a_GASTOP\sources/control.c:2778
			TEST_INTERVAL_FLAG = FALSE;
  38:	2300      	movs	r3, #0
  3a:	7623      	strb	r3, [r4, #24]
C:\tien\PROJEKTY\procesory\STM\T104_V100a_GASTOP\sources/control.c:2781
		}
	}
}
  3c:	bd10      	pop	{r4, pc}
  3e:	46c0      	nop			(mov r8, r8)
	...
Disassembly of section .text.Stop_Bck_Fun:

00000000 <Stop_Bck_Fun>:
Stop_Bck_Fun():
C:\tien\PROJEKTY\procesory\STM\T104_V100a_GASTOP\sources/control.c:2498
* Input          : None
* Output         : None
* Return         : None
*******************************************************************************/
static void Stop_Bck_Fun ( void )
{
   0:	b570      	push	{r4, r5, r6, lr}
C:\tien\PROJEKTY\procesory\STM\T104_V100a_GASTOP\sources/control.c:2501
    uint16_t Arm_Pos_Tmp_Bck_Fun;

    if ( Service_Variables.Serv_Vars.Sensor_Type == 0 )//ENKODER
   2:	4960      	ldr	r1, [pc, #384]	(184 <Stop_Bck_Fun+0x184>)
   4:	f891 306d 	ldrb.w	r3, [r1, #109]
   8:	2b00      	cmp	r3, #0
   a:	d166      	bne.n	da <Stop_Bck_Fun+0xda>
C:\tien\PROJEKTY\procesory\STM\T104_V100a_GASTOP\sources/control.c:2503
    {
        if ( Position_Check(Service_Variables.Serv_Vars.Serwis_003) == TRUE )
   c:	8dc8      	ldrh	r0, [r1, #46]
   e:	f7ff fffe 	bl	0 <Stop_Bck_Fun>
  12:	2801      	cmp	r0, #1
  14:	d10f      	bne.n	36 <Stop_Bck_Fun+0x36>
C:\tien\PROJEKTY\procesory\STM\T104_V100a_GASTOP\sources/control.c:2505
        {
            if ( Encoder_Angle != Actual_Angle )
  16:	4b5c      	ldr	r3, [pc, #368]	(188 <Stop_Bck_Fun+0x188>)
  18:	781a      	ldrb	r2, [r3, #0]
  1a:	4b5c      	ldr	r3, [pc, #368]	(18c <Stop_Bck_Fun+0x18c>)
  1c:	781b      	ldrb	r3, [r3, #0]
  1e:	429a      	cmp	r2, r3
  20:	f000 80af 	beq.w	182 <Stop_Bck_Fun+0x182>
C:\tien\PROJEKTY\procesory\STM\T104_V100a_GASTOP\sources/control.c:2507
            {     
                Machine_State = Control_Variables[Machine_State].Motor_Enc_Ptr->Next[1];
  24:	485a      	ldr	r0, [pc, #360]	(190 <Stop_Bck_Fun+0x190>)
  26:	4a5b      	ldr	r2, [pc, #364]	(194 <Stop_Bck_Fun+0x194>)
  28:	7803      	ldrb	r3, [r0, #0]
  2a:	2114      	movs	r1, #20
  2c:	fb01 2303 	mla	r3, r1, r3, r2
  30:	68db      	ldr	r3, [r3, #12]
  32:	795b      	ldrb	r3, [r3, #5]
  34:	e066      	b.n	104 <Stop_Bck_Fun+0x104>
C:\tien\PROJEKTY\procesory\STM\T104_V100a_GASTOP\sources/control.c:2512
            }
        }
        else
        {
            Arm_Pos_Tmp_Bck_Fun = Arm_Pos;
  36:	4b58      	ldr	r3, [pc, #352]	(198 <Stop_Bck_Fun+0x198>)
  38:	881a      	ldrh	r2, [r3, #0]
C:\tien\PROJEKTY\procesory\STM\T104_V100a_GASTOP\sources/control.c:2513
            if ( Arm_Pos_Tmp_Bck_Fun > Arms_Stop_Pos.Max_Pos4 )
  3a:	4b58      	ldr	r3, [pc, #352]	(19c <Stop_Bck_Fun+0x19c>)
  3c:	b290      	uxth	r0, r2
  3e:	89db      	ldrh	r3, [r3, #14]
  40:	4293      	cmp	r3, r2
  42:	d203      	bcs.n	4c <Stop_Bck_Fun+0x4c>
C:\tien\PROJEKTY\procesory\STM\T104_V100a_GASTOP\sources/control.c:2515
            {
                Arm_Pos_Tmp_Bck_Fun -= 1023;
  44:	f500 437c 	add.w	r3, r0, #64512	; 0xfc00
  48:	3301      	adds	r3, #1
  4a:	b298      	uxth	r0, r3
C:\tien\PROJEKTY\procesory\STM\T104_V100a_GASTOP\sources/control.c:2518
            }

            if ( Arm_Window_Pos > Arms_Stop_Pos.Max_Pos4 )
  4c:	4954      	ldr	r1, [pc, #336]	(1a0 <Stop_Bck_Fun+0x1a0>)
  4e:	4a53      	ldr	r2, [pc, #332]	(19c <Stop_Bck_Fun+0x19c>)
  50:	880b      	ldrh	r3, [r1, #0]
  52:	89d2      	ldrh	r2, [r2, #14]
  54:	429a      	cmp	r2, r3
  56:	d205      	bcs.n	64 <Stop_Bck_Fun+0x64>
C:\tien\PROJEKTY\procesory\STM\T104_V100a_GASTOP\sources/control.c:2520
            {
                Arm_Window_Pos -= 1023;
  58:	880b      	ldrh	r3, [r1, #0]
  5a:	f5a3 737e 	sub.w	r3, r3, #1016	; 0x3f8
  5e:	3b07      	subs	r3, #7
  60:	b29b      	uxth	r3, r3
  62:	800b      	strh	r3, [r1, #0]
C:\tien\PROJEKTY\procesory\STM\T104_V100a_GASTOP\sources/control.c:2523
            }
    
            if ( Service_Variables.Serv_Vars.Rygle_var == 1 )
  64:	4947      	ldr	r1, [pc, #284]	(184 <Stop_Bck_Fun+0x184>)
  66:	7dcc      	ldrb	r4, [r1, #23]
  68:	2c01      	cmp	r4, #1
  6a:	d11f      	bne.n	ac <Stop_Bck_Fun+0xac>
C:\tien\PROJEKTY\procesory\STM\T104_V100a_GASTOP\sources/control.c:2525
            {
                if ( STOP_FWD_BCK_FLAG == FALSE )
  6c:	4d4d      	ldr	r5, [pc, #308]	(1a4 <Stop_Bck_Fun+0x1a4>)
  6e:	7e6b      	ldrb	r3, [r5, #25]
  70:	b933      	cbnz	r3, 80 <Stop_Bck_Fun+0x80>
C:\tien\PROJEKTY\procesory\STM\T104_V100a_GASTOP\sources/control.c:2527
                {
                    System_Timer_Setting ( &Stop_Fwd_Bck_Timer.Timer, 100, T_10msec );
  72:	484d      	ldr	r0, [pc, #308]	(1a8 <Stop_Bck_Fun+0x1a8>)
  74:	2164      	movs	r1, #100
  76:	4622      	mov	r2, r4
  78:	f7ff fffe 	bl	0 <System_Timer_Setting>
C:\tien\PROJEKTY\procesory\STM\T104_V100a_GASTOP\sources/control.c:2528
                    STOP_FWD_BCK_FLAG = TRUE;
  7c:	766c      	strb	r4, [r5, #25]
  7e:	e080      	b.n	182 <Stop_Bck_Fun+0x182>
C:\tien\PROJEKTY\procesory\STM\T104_V100a_GASTOP\sources/control.c:2532
                }
                else
                {
                    if ( System_Timer_Check ( &Stop_Fwd_Bck_Timer.Timer, T_10msec ) == TRUE )
  80:	4621      	mov	r1, r4
  82:	4849      	ldr	r0, [pc, #292]	(1a8 <Stop_Bck_Fun+0x1a8>)
  84:	f7ff fffe 	bl	0 <System_Timer_Check>
  88:	2801      	cmp	r0, #1
  8a:	4604      	mov	r4, r0
  8c:	d179      	bne.n	182 <Stop_Bck_Fun+0x182>
C:\tien\PROJEKTY\procesory\STM\T104_V100a_GASTOP\sources/control.c:2534
                    {
                        Machine_State = MOVE_BACK;
  8e:	4b40      	ldr	r3, [pc, #256]	(190 <Stop_Bck_Fun+0x190>)
  90:	220c      	movs	r2, #12
  92:	701a      	strb	r2, [r3, #0]
C:\tien\PROJEKTY\procesory\STM\T104_V100a_GASTOP\sources/control.c:2535
                        STOP_FWD_BCK_FLAG = FALSE;
  94:	2300      	movs	r3, #0
  96:	766b      	strb	r3, [r5, #25]
C:\tien\PROJEKTY\procesory\STM\T104_V100a_GASTOP\sources/control.c:2536
                        Arm_Window_Pos = Arm_Pos;
  98:	4b3f      	ldr	r3, [pc, #252]	(198 <Stop_Bck_Fun+0x198>)
  9a:	4a41      	ldr	r2, [pc, #260]	(1a0 <Stop_Bck_Fun+0x1a0>)
  9c:	881b      	ldrh	r3, [r3, #0]
C:\tien\PROJEKTY\procesory\STM\T104_V100a_GASTOP\sources/control.c:2537
                        System_Timer_Setting ( &Arm_Window_Timer.Timer, 300, T_10msec );
  9e:	4843      	ldr	r0, [pc, #268]	(1ac <Stop_Bck_Fun+0x1ac>)
C:\tien\PROJEKTY\procesory\STM\T104_V100a_GASTOP\sources/control.c:2536
                {
                    if ( System_Timer_Check ( &Stop_Fwd_Bck_Timer.Timer, T_10msec ) == TRUE )
                    {
                        Machine_State = MOVE_BACK;
                        STOP_FWD_BCK_FLAG = FALSE;
                        Arm_Window_Pos = Arm_Pos;
  a0:	b29b      	uxth	r3, r3
  a2:	8013      	strh	r3, [r2, #0]
C:\tien\PROJEKTY\procesory\STM\T104_V100a_GASTOP\sources/control.c:2537
                        System_Timer_Setting ( &Arm_Window_Timer.Timer, 300, T_10msec );
  a4:	f44f 7196 	mov.w	r1, #300	; 0x12c
  a8:	4622      	mov	r2, r4
  aa:	e013      	b.n	d4 <Stop_Bck_Fun+0xd4>
C:\tien\PROJEKTY\procesory\STM\T104_V100a_GASTOP\sources/control.c:2543
                    }
                }
            }
            else
            {
                if ( (Arm_Window_Pos - Service_Variables.Serv_Vars.Serwis_006) > Arm_Pos_Tmp_Bck_Fun )
  ac:	4c3c      	ldr	r4, [pc, #240]	(1a0 <Stop_Bck_Fun+0x1a0>)
  ae:	8e8a      	ldrh	r2, [r1, #52]
  b0:	8823      	ldrh	r3, [r4, #0]
  b2:	b29b      	uxth	r3, r3
  b4:	1a9b      	subs	r3, r3, r2
  b6:	4283      	cmp	r3, r0
  b8:	dd63      	ble.n	182 <Stop_Bck_Fun+0x182>
C:\tien\PROJEKTY\procesory\STM\T104_V100a_GASTOP\sources/control.c:2545
                {
                    Machine_State = MOVE_BACK;
  ba:	4b35      	ldr	r3, [pc, #212]	(190 <Stop_Bck_Fun+0x190>)
  bc:	220c      	movs	r2, #12
  be:	701a      	strb	r2, [r3, #0]
C:\tien\PROJEKTY\procesory\STM\T104_V100a_GASTOP\sources/control.c:2546
                    STOP_FWD_BCK_FLAG = FALSE;
  c0:	4b38      	ldr	r3, [pc, #224]	(1a4 <Stop_Bck_Fun+0x1a4>)
  c2:	2200      	movs	r2, #0
  c4:	765a      	strb	r2, [r3, #25]
C:\tien\PROJEKTY\procesory\STM\T104_V100a_GASTOP\sources/control.c:2547
                    Arm_Window_Pos = Arm_Pos;
  c6:	4b34      	ldr	r3, [pc, #208]	(198 <Stop_Bck_Fun+0x198>)
C:\tien\PROJEKTY\procesory\STM\T104_V100a_GASTOP\sources/control.c:2548
                    System_Timer_Setting ( &Arm_Window_Timer.Timer, Service_Variables.Serv_Vars.Serwis_005, T_10msec );
  c8:	4838      	ldr	r0, [pc, #224]	(1ac <Stop_Bck_Fun+0x1ac>)
C:\tien\PROJEKTY\procesory\STM\T104_V100a_GASTOP\sources/control.c:2547
            {
                if ( (Arm_Window_Pos - Service_Variables.Serv_Vars.Serwis_006) > Arm_Pos_Tmp_Bck_Fun )
                {
                    Machine_State = MOVE_BACK;
                    STOP_FWD_BCK_FLAG = FALSE;
                    Arm_Window_Pos = Arm_Pos;
  ca:	881b      	ldrh	r3, [r3, #0]
C:\tien\PROJEKTY\procesory\STM\T104_V100a_GASTOP\sources/control.c:2548
                    System_Timer_Setting ( &Arm_Window_Timer.Timer, Service_Variables.Serv_Vars.Serwis_005, T_10msec );
  cc:	8e49      	ldrh	r1, [r1, #50]
C:\tien\PROJEKTY\procesory\STM\T104_V100a_GASTOP\sources/control.c:2547
            {
                if ( (Arm_Window_Pos - Service_Variables.Serv_Vars.Serwis_006) > Arm_Pos_Tmp_Bck_Fun )
                {
                    Machine_State = MOVE_BACK;
                    STOP_FWD_BCK_FLAG = FALSE;
                    Arm_Window_Pos = Arm_Pos;
  ce:	b29b      	uxth	r3, r3
  d0:	8023      	strh	r3, [r4, #0]
C:\tien\PROJEKTY\procesory\STM\T104_V100a_GASTOP\sources/control.c:2548
                    System_Timer_Setting ( &Arm_Window_Timer.Timer, Service_Variables.Serv_Vars.Serwis_005, T_10msec );
  d2:	3201      	adds	r2, #1
  d4:	f7ff fffe 	bl	0 <System_Timer_Setting>
  d8:	e053      	b.n	182 <Stop_Bck_Fun+0x182>
C:\tien\PROJEKTY\procesory\STM\T104_V100a_GASTOP\sources/control.c:2555
            }
        }
    }
    else//INDUCTIVE
    {
        if ( Inputs_Level & IND_SENSOR1 )
  da:	4b35      	ldr	r3, [pc, #212]	(1b0 <Stop_Bck_Fun+0x1b0>)
  dc:	881b      	ldrh	r3, [r3, #0]
  de:	f013 0604 	ands.w	r6, r3, #4	; 0x4
  e2:	d011      	beq.n	108 <Stop_Bck_Fun+0x108>
C:\tien\PROJEKTY\procesory\STM\T104_V100a_GASTOP\sources/control.c:2557
        {     
            if ( Controller_Variables.Controller_Vars.Sensor_Counter < (IND_OFFSET-Service_Variables.Serv_Vars.Serwis_021) )
  e4:	4b33      	ldr	r3, [pc, #204]	(1b4 <Stop_Bck_Fun+0x1b4>)
  e6:	791a      	ldrb	r2, [r3, #4]
  e8:	f8b1 3076 	ldrh.w	r3, [r1, #118]
  ec:	f1c3 0364 	rsb	r3, r3, #100	; 0x64
  f0:	429a      	cmp	r2, r3
  f2:	da46      	bge.n	182 <Stop_Bck_Fun+0x182>
C:\tien\PROJEKTY\procesory\STM\T104_V100a_GASTOP\sources/control.c:2559
            {
                Machine_State = Control_Variables[Machine_State].Motor_Enc_Ptr->Next[0];
  f4:	4826      	ldr	r0, [pc, #152]	(190 <Stop_Bck_Fun+0x190>)
  f6:	4a27      	ldr	r2, [pc, #156]	(194 <Stop_Bck_Fun+0x194>)
  f8:	7803      	ldrb	r3, [r0, #0]
  fa:	2114      	movs	r1, #20
  fc:	fb01 2303 	mla	r3, r1, r3, r2
 100:	68db      	ldr	r3, [r3, #12]
 102:	791b      	ldrb	r3, [r3, #4]
 104:	7003      	strb	r3, [r0, #0]
 106:	e03c      	b.n	182 <Stop_Bck_Fun+0x182>
C:\tien\PROJEKTY\procesory\STM\T104_V100a_GASTOP\sources/control.c:2564
            }
        }
        else
        {
            if ( Service_Variables.Serv_Vars.Rygle_var == 1 )
 108:	7dcc      	ldrb	r4, [r1, #23]
 10a:	2c01      	cmp	r4, #1
 10c:	d11b      	bne.n	146 <Stop_Bck_Fun+0x146>
C:\tien\PROJEKTY\procesory\STM\T104_V100a_GASTOP\sources/control.c:2566
            {
                if ( STOP_FWD_BCK_FLAG == FALSE )
 10e:	4d25      	ldr	r5, [pc, #148]	(1a4 <Stop_Bck_Fun+0x1a4>)
 110:	7e6b      	ldrb	r3, [r5, #25]
 112:	b933      	cbnz	r3, 122 <Stop_Bck_Fun+0x122>
C:\tien\PROJEKTY\procesory\STM\T104_V100a_GASTOP\sources/control.c:2568
                {
                    System_Timer_Setting ( &Stop_Fwd_Bck_Timer.Timer, 100, T_10msec );
 114:	4824      	ldr	r0, [pc, #144]	(1a8 <Stop_Bck_Fun+0x1a8>)
 116:	2164      	movs	r1, #100
 118:	4622      	mov	r2, r4
 11a:	f7ff fffe 	bl	0 <System_Timer_Setting>
C:\tien\PROJEKTY\procesory\STM\T104_V100a_GASTOP\sources/control.c:2569
                    STOP_FWD_BCK_FLAG = TRUE;
 11e:	766c      	strb	r4, [r5, #25]
 120:	e026      	b.n	170 <Stop_Bck_Fun+0x170>
C:\tien\PROJEKTY\procesory\STM\T104_V100a_GASTOP\sources/control.c:2573
                }
                else
                {
                    if ( System_Timer_Check ( &Stop_Fwd_Bck_Timer.Timer, T_10msec ) == TRUE )
 122:	4621      	mov	r1, r4
 124:	4820      	ldr	r0, [pc, #128]	(1a8 <Stop_Bck_Fun+0x1a8>)
 126:	f7ff fffe 	bl	0 <System_Timer_Check>
 12a:	2801      	cmp	r0, #1
 12c:	4604      	mov	r4, r0
 12e:	d11f      	bne.n	170 <Stop_Bck_Fun+0x170>
C:\tien\PROJEKTY\procesory\STM\T104_V100a_GASTOP\sources/control.c:2575
                    {
                        Machine_State = MOVE_FORWARD;
 130:	4b17      	ldr	r3, [pc, #92]	(190 <Stop_Bck_Fun+0x190>)
 132:	220a      	movs	r2, #10
 134:	701a      	strb	r2, [r3, #0]
C:\tien\PROJEKTY\procesory\STM\T104_V100a_GASTOP\sources/control.c:2577
                        STOP_FWD_BCK_FLAG = FALSE;
                        System_Timer_Setting ( &Arm_Window_Timer.Timer, 300, T_10msec );
 136:	481d      	ldr	r0, [pc, #116]	(1ac <Stop_Bck_Fun+0x1ac>)
 138:	f44f 7196 	mov.w	r1, #300	; 0x12c
 13c:	4622      	mov	r2, r4
C:\tien\PROJEKTY\procesory\STM\T104_V100a_GASTOP\sources/control.c:2576
                else
                {
                    if ( System_Timer_Check ( &Stop_Fwd_Bck_Timer.Timer, T_10msec ) == TRUE )
                    {
                        Machine_State = MOVE_FORWARD;
                        STOP_FWD_BCK_FLAG = FALSE;
 13e:	766e      	strb	r6, [r5, #25]
C:\tien\PROJEKTY\procesory\STM\T104_V100a_GASTOP\sources/control.c:2577
                        System_Timer_Setting ( &Arm_Window_Timer.Timer, 300, T_10msec );
 140:	f7ff fffe 	bl	0 <System_Timer_Setting>
 144:	e014      	b.n	170 <Stop_Bck_Fun+0x170>
C:\tien\PROJEKTY\procesory\STM\T104_V100a_GASTOP\sources/control.c:2583
                    }
                }
            }
            else
            {
                if ( (Controller_Variables.Controller_Vars.Sensor_Counter_Copy-Service_Variables.Serv_Vars.Serwis_020) >= Controller_Variables.Controller_Vars.Sensor_Counter )
 146:	4c1b      	ldr	r4, [pc, #108]	(1b4 <Stop_Bck_Fun+0x1b4>)
 148:	f8b1 2074 	ldrh.w	r2, [r1, #116]
 14c:	79a3      	ldrb	r3, [r4, #6]
 14e:	1a9b      	subs	r3, r3, r2
 150:	7922      	ldrb	r2, [r4, #4]
 152:	4293      	cmp	r3, r2
 154:	db0c      	blt.n	170 <Stop_Bck_Fun+0x170>
C:\tien\PROJEKTY\procesory\STM\T104_V100a_GASTOP\sources/control.c:2585
                {
                    Machine_State = MOVE_BACK;
 156:	4b0e      	ldr	r3, [pc, #56]	(190 <Stop_Bck_Fun+0x190>)
 158:	220c      	movs	r2, #12
 15a:	701a      	strb	r2, [r3, #0]
C:\tien\PROJEKTY\procesory\STM\T104_V100a_GASTOP\sources/control.c:2586
                    STOP_FWD_BCK_FLAG = FALSE;
 15c:	4b11      	ldr	r3, [pc, #68]	(1a4 <Stop_Bck_Fun+0x1a4>)
C:\tien\PROJEKTY\procesory\STM\T104_V100a_GASTOP\sources/control.c:2587
                    System_Timer_Setting ( &Arm_Window_Timer.Timer, Service_Variables.Serv_Vars.Serwis_019, T_10msec );
 15e:	4813      	ldr	r0, [pc, #76]	(1ac <Stop_Bck_Fun+0x1ac>)
C:\tien\PROJEKTY\procesory\STM\T104_V100a_GASTOP\sources/control.c:2586
            else
            {
                if ( (Controller_Variables.Controller_Vars.Sensor_Counter_Copy-Service_Variables.Serv_Vars.Serwis_020) >= Controller_Variables.Controller_Vars.Sensor_Counter )
                {
                    Machine_State = MOVE_BACK;
                    STOP_FWD_BCK_FLAG = FALSE;
 160:	765e      	strb	r6, [r3, #25]
C:\tien\PROJEKTY\procesory\STM\T104_V100a_GASTOP\sources/control.c:2587
                    System_Timer_Setting ( &Arm_Window_Timer.Timer, Service_Variables.Serv_Vars.Serwis_019, T_10msec );
 162:	f8b1 1072 	ldrh.w	r1, [r1, #114]
 166:	2201      	movs	r2, #1
 168:	f7ff fffe 	bl	0 <System_Timer_Setting>
C:\tien\PROJEKTY\procesory\STM\T104_V100a_GASTOP\sources/control.c:2588
                    Controller_Variables.Controller_Vars.Sensor_Counter_Copy = Controller_Variables.Controller_Vars.Sensor_Counter;            
 16c:	7923      	ldrb	r3, [r4, #4]
 16e:	71a3      	strb	r3, [r4, #6]
C:\tien\PROJEKTY\procesory\STM\T104_V100a_GASTOP\sources/control.c:2592
                }
            }
        
            if ( System_Timer_Check ( &Transition_Timer.Timer, T_100msec ) == TRUE )
 170:	2102      	movs	r1, #2
 172:	4811      	ldr	r0, [pc, #68]	(1b8 <Stop_Bck_Fun+0x1b8>)
 174:	f7ff fffe 	bl	0 <System_Timer_Check>
 178:	2801      	cmp	r0, #1
 17a:	d102      	bne.n	182 <Stop_Bck_Fun+0x182>
C:\tien\PROJEKTY\procesory\STM\T104_V100a_GASTOP\sources/control.c:2594
            {
                Machine_State = GO_BACK;
 17c:	4b04      	ldr	r3, [pc, #16]	(190 <Stop_Bck_Fun+0x190>)
 17e:	2228      	movs	r2, #40
 180:	701a      	strb	r2, [r3, #0]
C:\tien\PROJEKTY\procesory\STM\T104_V100a_GASTOP\sources/control.c:2599
            }

        }    
    }
}
 182:	bd70      	pop	{r4, r5, r6, pc}
	...
Disassembly of section .text.Stop_Fwd_Fun:

00000000 <Stop_Fwd_Fun>:
Stop_Fwd_Fun():
C:\tien\PROJEKTY\procesory\STM\T104_V100a_GASTOP\sources/control.c:2386
* Input          : None
* Output         : None
* Return         : None
*******************************************************************************/
static void Stop_Fwd_Fun ( void )
{
   0:	b570      	push	{r4, r5, r6, lr}
C:\tien\PROJEKTY\procesory\STM\T104_V100a_GASTOP\sources/control.c:2389
    uint16_t Arm_Pos_Tmp_Fwd_Fun;

    if ( Service_Variables.Serv_Vars.Sensor_Type == 0 )//ENKODER
   2:	4960      	ldr	r1, [pc, #384]	(184 <Stop_Fwd_Fun+0x184>)
   4:	f891 306d 	ldrb.w	r3, [r1, #109]
   8:	2b00      	cmp	r3, #0
   a:	d166      	bne.n	da <Stop_Fwd_Fun+0xda>
C:\tien\PROJEKTY\procesory\STM\T104_V100a_GASTOP\sources/control.c:2391
    {
        if ( Position_Check(Service_Variables.Serv_Vars.Serwis_003) == TRUE )
   c:	8dc8      	ldrh	r0, [r1, #46]
   e:	f7ff fffe 	bl	0 <Stop_Fwd_Fun>
  12:	2801      	cmp	r0, #1
  14:	d10f      	bne.n	36 <Stop_Fwd_Fun+0x36>
C:\tien\PROJEKTY\procesory\STM\T104_V100a_GASTOP\sources/control.c:2393
        { 
            if ( Encoder_Angle != Actual_Angle )
  16:	4b5c      	ldr	r3, [pc, #368]	(188 <Stop_Fwd_Fun+0x188>)
  18:	781a      	ldrb	r2, [r3, #0]
  1a:	4b5c      	ldr	r3, [pc, #368]	(18c <Stop_Fwd_Fun+0x18c>)
  1c:	781b      	ldrb	r3, [r3, #0]
  1e:	429a      	cmp	r2, r3
  20:	f000 80ae 	beq.w	180 <Stop_Fwd_Fun+0x180>
C:\tien\PROJEKTY\procesory\STM\T104_V100a_GASTOP\sources/control.c:2395
            {      
                Machine_State = Control_Variables[Machine_State].Motor_Enc_Ptr->Next[1];
  24:	485a      	ldr	r0, [pc, #360]	(190 <Stop_Fwd_Fun+0x190>)
  26:	4a5b      	ldr	r2, [pc, #364]	(194 <Stop_Fwd_Fun+0x194>)
  28:	7803      	ldrb	r3, [r0, #0]
  2a:	2114      	movs	r1, #20
  2c:	fb01 2303 	mla	r3, r1, r3, r2
  30:	68db      	ldr	r3, [r3, #12]
  32:	795b      	ldrb	r3, [r3, #5]
  34:	e065      	b.n	102 <Stop_Fwd_Fun+0x102>
C:\tien\PROJEKTY\procesory\STM\T104_V100a_GASTOP\sources/control.c:2401
            }
        }
        else
        {
//..............................................
            Arm_Pos_Tmp_Fwd_Fun = Arm_Pos;
  36:	4b58      	ldr	r3, [pc, #352]	(198 <Stop_Fwd_Fun+0x198>)
  38:	881a      	ldrh	r2, [r3, #0]
C:\tien\PROJEKTY\procesory\STM\T104_V100a_GASTOP\sources/control.c:2402
            if ( Arm_Pos_Tmp_Fwd_Fun < Arms_Stop_Pos.Min_Pos1 )
  3a:	4b58      	ldr	r3, [pc, #352]	(19c <Stop_Fwd_Fun+0x19c>)
  3c:	b290      	uxth	r0, r2
  3e:	881b      	ldrh	r3, [r3, #0]
  40:	4293      	cmp	r3, r2
  42:	d903      	bls.n	4c <Stop_Fwd_Fun+0x4c>
C:\tien\PROJEKTY\procesory\STM\T104_V100a_GASTOP\sources/control.c:2404
            {
                Arm_Pos_Tmp_Fwd_Fun += 1023;
  44:	f500 737e 	add.w	r3, r0, #1016	; 0x3f8
  48:	3307      	adds	r3, #7
  4a:	b298      	uxth	r0, r3
C:\tien\PROJEKTY\procesory\STM\T104_V100a_GASTOP\sources/control.c:2407
            }

            if ( Arm_Window_Pos < Arms_Stop_Pos.Min_Pos1 )
  4c:	4954      	ldr	r1, [pc, #336]	(1a0 <Stop_Fwd_Fun+0x1a0>)
  4e:	4a53      	ldr	r2, [pc, #332]	(19c <Stop_Fwd_Fun+0x19c>)
  50:	880b      	ldrh	r3, [r1, #0]
  52:	8812      	ldrh	r2, [r2, #0]
  54:	429a      	cmp	r2, r3
  56:	d905      	bls.n	64 <Stop_Fwd_Fun+0x64>
C:\tien\PROJEKTY\procesory\STM\T104_V100a_GASTOP\sources/control.c:2409
            {
                Arm_Window_Pos += 1023;
  58:	880b      	ldrh	r3, [r1, #0]
  5a:	f503 737e 	add.w	r3, r3, #1016	; 0x3f8
  5e:	3307      	adds	r3, #7
  60:	b29b      	uxth	r3, r3
  62:	800b      	strh	r3, [r1, #0]
C:\tien\PROJEKTY\procesory\STM\T104_V100a_GASTOP\sources/control.c:2412
            }
    
            if ( Service_Variables.Serv_Vars.Rygle_var == 1 )
  64:	4947      	ldr	r1, [pc, #284]	(184 <Stop_Fwd_Fun+0x184>)
  66:	7dcc      	ldrb	r4, [r1, #23]
  68:	2c01      	cmp	r4, #1
  6a:	d11f      	bne.n	ac <Stop_Fwd_Fun+0xac>
C:\tien\PROJEKTY\procesory\STM\T104_V100a_GASTOP\sources/control.c:2414
            {
                if ( STOP_FWD_BCK_FLAG == FALSE )
  6c:	4d4d      	ldr	r5, [pc, #308]	(1a4 <Stop_Fwd_Fun+0x1a4>)
  6e:	7e6b      	ldrb	r3, [r5, #25]
  70:	b933      	cbnz	r3, 80 <Stop_Fwd_Fun+0x80>
C:\tien\PROJEKTY\procesory\STM\T104_V100a_GASTOP\sources/control.c:2416
                {
                    System_Timer_Setting ( &Stop_Fwd_Bck_Timer.Timer, 100, T_10msec );
  72:	484d      	ldr	r0, [pc, #308]	(1a8 <Stop_Fwd_Fun+0x1a8>)
  74:	2164      	movs	r1, #100
  76:	4622      	mov	r2, r4
  78:	f7ff fffe 	bl	0 <System_Timer_Setting>
C:\tien\PROJEKTY\procesory\STM\T104_V100a_GASTOP\sources/control.c:2417
                    STOP_FWD_BCK_FLAG = TRUE;
  7c:	766c      	strb	r4, [r5, #25]
  7e:	e07f      	b.n	180 <Stop_Fwd_Fun+0x180>
C:\tien\PROJEKTY\procesory\STM\T104_V100a_GASTOP\sources/control.c:2421
                }
                else
                {
                    if ( System_Timer_Check ( &Stop_Fwd_Bck_Timer.Timer, T_10msec ) == TRUE )
  80:	4621      	mov	r1, r4
  82:	4849      	ldr	r0, [pc, #292]	(1a8 <Stop_Fwd_Fun+0x1a8>)
  84:	f7ff fffe 	bl	0 <System_Timer_Check>
  88:	2801      	cmp	r0, #1
  8a:	4604      	mov	r4, r0
  8c:	d178      	bne.n	180 <Stop_Fwd_Fun+0x180>
C:\tien\PROJEKTY\procesory\STM\T104_V100a_GASTOP\sources/control.c:2423
                    {
                        Machine_State = MOVE_FORWARD;
  8e:	4b40      	ldr	r3, [pc, #256]	(190 <Stop_Fwd_Fun+0x190>)
  90:	220a      	movs	r2, #10
  92:	701a      	strb	r2, [r3, #0]
C:\tien\PROJEKTY\procesory\STM\T104_V100a_GASTOP\sources/control.c:2424
                        STOP_FWD_BCK_FLAG = FALSE;
  94:	2300      	movs	r3, #0
  96:	766b      	strb	r3, [r5, #25]
C:\tien\PROJEKTY\procesory\STM\T104_V100a_GASTOP\sources/control.c:2425
                        Arm_Window_Pos = Arm_Pos;
  98:	4b3f      	ldr	r3, [pc, #252]	(198 <Stop_Fwd_Fun+0x198>)
  9a:	4a41      	ldr	r2, [pc, #260]	(1a0 <Stop_Fwd_Fun+0x1a0>)
  9c:	881b      	ldrh	r3, [r3, #0]
C:\tien\PROJEKTY\procesory\STM\T104_V100a_GASTOP\sources/control.c:2426
                        System_Timer_Setting ( &Arm_Window_Timer.Timer, 300, T_10msec );
  9e:	4843      	ldr	r0, [pc, #268]	(1ac <Stop_Fwd_Fun+0x1ac>)
C:\tien\PROJEKTY\procesory\STM\T104_V100a_GASTOP\sources/control.c:2425
                {
                    if ( System_Timer_Check ( &Stop_Fwd_Bck_Timer.Timer, T_10msec ) == TRUE )
                    {
                        Machine_State = MOVE_FORWARD;
                        STOP_FWD_BCK_FLAG = FALSE;
                        Arm_Window_Pos = Arm_Pos;
  a0:	b29b      	uxth	r3, r3
  a2:	8013      	strh	r3, [r2, #0]
C:\tien\PROJEKTY\procesory\STM\T104_V100a_GASTOP\sources/control.c:2426
                        System_Timer_Setting ( &Arm_Window_Timer.Timer, 300, T_10msec );
  a4:	f44f 7196 	mov.w	r1, #300	; 0x12c
  a8:	4622      	mov	r2, r4
  aa:	e013      	b.n	d4 <Stop_Fwd_Fun+0xd4>
C:\tien\PROJEKTY\procesory\STM\T104_V100a_GASTOP\sources/control.c:2432
                    }
                }
            }
            else
            {
                if ( (Arm_Window_Pos + Service_Variables.Serv_Vars.Serwis_006) < Arm_Pos_Tmp_Fwd_Fun )
  ac:	4c3c      	ldr	r4, [pc, #240]	(1a0 <Stop_Fwd_Fun+0x1a0>)
  ae:	8e8b      	ldrh	r3, [r1, #52]
  b0:	8822      	ldrh	r2, [r4, #0]
  b2:	b292      	uxth	r2, r2
  b4:	189b      	adds	r3, r3, r2
  b6:	4283      	cmp	r3, r0
  b8:	da62      	bge.n	180 <Stop_Fwd_Fun+0x180>
C:\tien\PROJEKTY\procesory\STM\T104_V100a_GASTOP\sources/control.c:2434
                {
                    Machine_State = MOVE_FORWARD;
  ba:	4b35      	ldr	r3, [pc, #212]	(190 <Stop_Fwd_Fun+0x190>)
  bc:	220a      	movs	r2, #10
  be:	701a      	strb	r2, [r3, #0]
C:\tien\PROJEKTY\procesory\STM\T104_V100a_GASTOP\sources/control.c:2435
                    STOP_FWD_BCK_FLAG = FALSE;
  c0:	4b38      	ldr	r3, [pc, #224]	(1a4 <Stop_Fwd_Fun+0x1a4>)
  c2:	2200      	movs	r2, #0
  c4:	765a      	strb	r2, [r3, #25]
C:\tien\PROJEKTY\procesory\STM\T104_V100a_GASTOP\sources/control.c:2436
                    Arm_Window_Pos = Arm_Pos;
  c6:	4b34      	ldr	r3, [pc, #208]	(198 <Stop_Fwd_Fun+0x198>)
C:\tien\PROJEKTY\procesory\STM\T104_V100a_GASTOP\sources/control.c:2437
                    System_Timer_Setting ( &Arm_Window_Timer.Timer, Service_Variables.Serv_Vars.Serwis_005, T_10msec );
  c8:	4838      	ldr	r0, [pc, #224]	(1ac <Stop_Fwd_Fun+0x1ac>)
C:\tien\PROJEKTY\procesory\STM\T104_V100a_GASTOP\sources/control.c:2436
            {
                if ( (Arm_Window_Pos + Service_Variables.Serv_Vars.Serwis_006) < Arm_Pos_Tmp_Fwd_Fun )
                {
                    Machine_State = MOVE_FORWARD;
                    STOP_FWD_BCK_FLAG = FALSE;
                    Arm_Window_Pos = Arm_Pos;
  ca:	881b      	ldrh	r3, [r3, #0]
C:\tien\PROJEKTY\procesory\STM\T104_V100a_GASTOP\sources/control.c:2437
                    System_Timer_Setting ( &Arm_Window_Timer.Timer, Service_Variables.Serv_Vars.Serwis_005, T_10msec );
  cc:	8e49      	ldrh	r1, [r1, #50]
C:\tien\PROJEKTY\procesory\STM\T104_V100a_GASTOP\sources/control.c:2436
            {
                if ( (Arm_Window_Pos + Service_Variables.Serv_Vars.Serwis_006) < Arm_Pos_Tmp_Fwd_Fun )
                {
                    Machine_State = MOVE_FORWARD;
                    STOP_FWD_BCK_FLAG = FALSE;
                    Arm_Window_Pos = Arm_Pos;
  ce:	b29b      	uxth	r3, r3
  d0:	8023      	strh	r3, [r4, #0]
C:\tien\PROJEKTY\procesory\STM\T104_V100a_GASTOP\sources/control.c:2437
                    System_Timer_Setting ( &Arm_Window_Timer.Timer, Service_Variables.Serv_Vars.Serwis_005, T_10msec );
  d2:	3201      	adds	r2, #1
  d4:	f7ff fffe 	bl	0 <System_Timer_Setting>
  d8:	e052      	b.n	180 <Stop_Fwd_Fun+0x180>
C:\tien\PROJEKTY\procesory\STM\T104_V100a_GASTOP\sources/control.c:2445
//...............................................
        }
    }
    else//Inductive
    {
        if ( Inputs_Level & IND_SENSOR1 )
  da:	4b35      	ldr	r3, [pc, #212]	(1b0 <Stop_Fwd_Fun+0x1b0>)
  dc:	881b      	ldrh	r3, [r3, #0]
  de:	f013 0604 	ands.w	r6, r3, #4	; 0x4
  e2:	d010      	beq.n	106 <Stop_Fwd_Fun+0x106>
C:\tien\PROJEKTY\procesory\STM\T104_V100a_GASTOP\sources/control.c:2447
        {     
            if ( Controller_Variables.Controller_Vars.Sensor_Counter > (IND_OFFSET+Service_Variables.Serv_Vars.Serwis_021) )
  e4:	4b33      	ldr	r3, [pc, #204]	(1b4 <Stop_Fwd_Fun+0x1b4>)
  e6:	791a      	ldrb	r2, [r3, #4]
  e8:	f8b1 3076 	ldrh.w	r3, [r1, #118]
  ec:	3364      	adds	r3, #100
  ee:	429a      	cmp	r2, r3
  f0:	dd46      	ble.n	180 <Stop_Fwd_Fun+0x180>
C:\tien\PROJEKTY\procesory\STM\T104_V100a_GASTOP\sources/control.c:2449
            {
                Machine_State = Control_Variables[Machine_State].Motor_Enc_Ptr->Next[0];
  f2:	4827      	ldr	r0, [pc, #156]	(190 <Stop_Fwd_Fun+0x190>)
  f4:	4a27      	ldr	r2, [pc, #156]	(194 <Stop_Fwd_Fun+0x194>)
  f6:	7803      	ldrb	r3, [r0, #0]
  f8:	2114      	movs	r1, #20
  fa:	fb01 2303 	mla	r3, r1, r3, r2
  fe:	68db      	ldr	r3, [r3, #12]
 100:	791b      	ldrb	r3, [r3, #4]
 102:	7003      	strb	r3, [r0, #0]
 104:	e03c      	b.n	180 <Stop_Fwd_Fun+0x180>
C:\tien\PROJEKTY\procesory\STM\T104_V100a_GASTOP\sources/control.c:2454
            }
        }
        else
        {
            if ( Service_Variables.Serv_Vars.Rygle_var == 1 )
 106:	7dcc      	ldrb	r4, [r1, #23]
 108:	2c01      	cmp	r4, #1
 10a:	d11b      	bne.n	144 <Stop_Fwd_Fun+0x144>
C:\tien\PROJEKTY\procesory\STM\T104_V100a_GASTOP\sources/control.c:2456
            {
                if ( STOP_FWD_BCK_FLAG == FALSE )
 10c:	4d25      	ldr	r5, [pc, #148]	(1a4 <Stop_Fwd_Fun+0x1a4>)
 10e:	7e6b      	ldrb	r3, [r5, #25]
 110:	b933      	cbnz	r3, 120 <Stop_Fwd_Fun+0x120>
C:\tien\PROJEKTY\procesory\STM\T104_V100a_GASTOP\sources/control.c:2458
                {
                    System_Timer_Setting ( &Stop_Fwd_Bck_Timer.Timer, 100, T_10msec );
 112:	4825      	ldr	r0, [pc, #148]	(1a8 <Stop_Fwd_Fun+0x1a8>)
 114:	2164      	movs	r1, #100
 116:	4622      	mov	r2, r4
 118:	f7ff fffe 	bl	0 <System_Timer_Setting>
C:\tien\PROJEKTY\procesory\STM\T104_V100a_GASTOP\sources/control.c:2459
                    STOP_FWD_BCK_FLAG = TRUE;
 11c:	766c      	strb	r4, [r5, #25]
 11e:	e026      	b.n	16e <Stop_Fwd_Fun+0x16e>
C:\tien\PROJEKTY\procesory\STM\T104_V100a_GASTOP\sources/control.c:2463
                }
                else
                {
                    if ( System_Timer_Check ( &Stop_Fwd_Bck_Timer.Timer, T_10msec ) == TRUE )
 120:	4621      	mov	r1, r4
 122:	4821      	ldr	r0, [pc, #132]	(1a8 <Stop_Fwd_Fun+0x1a8>)
 124:	f7ff fffe 	bl	0 <System_Timer_Check>
 128:	2801      	cmp	r0, #1
 12a:	4604      	mov	r4, r0
 12c:	d11f      	bne.n	16e <Stop_Fwd_Fun+0x16e>
C:\tien\PROJEKTY\procesory\STM\T104_V100a_GASTOP\sources/control.c:2465
                    {
                        Machine_State = MOVE_FORWARD;
 12e:	4b18      	ldr	r3, [pc, #96]	(190 <Stop_Fwd_Fun+0x190>)
 130:	220a      	movs	r2, #10
 132:	701a      	strb	r2, [r3, #0]
C:\tien\PROJEKTY\procesory\STM\T104_V100a_GASTOP\sources/control.c:2467
                        STOP_FWD_BCK_FLAG = FALSE;
                        System_Timer_Setting ( &Arm_Window_Timer.Timer, 300, T_10msec );
 134:	481d      	ldr	r0, [pc, #116]	(1ac <Stop_Fwd_Fun+0x1ac>)
 136:	f44f 7196 	mov.w	r1, #300	; 0x12c
 13a:	4622      	mov	r2, r4
C:\tien\PROJEKTY\procesory\STM\T104_V100a_GASTOP\sources/control.c:2466
                else
                {
                    if ( System_Timer_Check ( &Stop_Fwd_Bck_Timer.Timer, T_10msec ) == TRUE )
                    {
                        Machine_State = MOVE_FORWARD;
                        STOP_FWD_BCK_FLAG = FALSE;
 13c:	766e      	strb	r6, [r5, #25]
C:\tien\PROJEKTY\procesory\STM\T104_V100a_GASTOP\sources/control.c:2467
                        System_Timer_Setting ( &Arm_Window_Timer.Timer, 300, T_10msec );
 13e:	f7ff fffe 	bl	0 <System_Timer_Setting>
 142:	e014      	b.n	16e <Stop_Fwd_Fun+0x16e>
C:\tien\PROJEKTY\procesory\STM\T104_V100a_GASTOP\sources/control.c:2473
                    }
                }
            }
            else
            {
                if ( (Controller_Variables.Controller_Vars.Sensor_Counter_Copy+Service_Variables.Serv_Vars.Serwis_020) <= Controller_Variables.Controller_Vars.Sensor_Counter )
 144:	4c1b      	ldr	r4, [pc, #108]	(1b4 <Stop_Fwd_Fun+0x1b4>)
 146:	f8b1 3074 	ldrh.w	r3, [r1, #116]
 14a:	79a2      	ldrb	r2, [r4, #6]
 14c:	189b      	adds	r3, r3, r2
 14e:	7922      	ldrb	r2, [r4, #4]
 150:	4293      	cmp	r3, r2
 152:	dc0c      	bgt.n	16e <Stop_Fwd_Fun+0x16e>
C:\tien\PROJEKTY\procesory\STM\T104_V100a_GASTOP\sources/control.c:2475
                {
                    Machine_State = MOVE_FORWARD;
 154:	4b0e      	ldr	r3, [pc, #56]	(190 <Stop_Fwd_Fun+0x190>)
 156:	220a      	movs	r2, #10
 158:	701a      	strb	r2, [r3, #0]
C:\tien\PROJEKTY\procesory\STM\T104_V100a_GASTOP\sources/control.c:2476
                    STOP_FWD_BCK_FLAG = FALSE;
 15a:	4b12      	ldr	r3, [pc, #72]	(1a4 <Stop_Fwd_Fun+0x1a4>)
C:\tien\PROJEKTY\procesory\STM\T104_V100a_GASTOP\sources/control.c:2477
                    System_Timer_Setting ( &Arm_Window_Timer.Timer, Service_Variables.Serv_Vars.Serwis_019, T_10msec );
 15c:	4813      	ldr	r0, [pc, #76]	(1ac <Stop_Fwd_Fun+0x1ac>)
C:\tien\PROJEKTY\procesory\STM\T104_V100a_GASTOP\sources/control.c:2476
            else
            {
                if ( (Controller_Variables.Controller_Vars.Sensor_Counter_Copy+Service_Variables.Serv_Vars.Serwis_020) <= Controller_Variables.Controller_Vars.Sensor_Counter )
                {
                    Machine_State = MOVE_FORWARD;
                    STOP_FWD_BCK_FLAG = FALSE;
 15e:	765e      	strb	r6, [r3, #25]
C:\tien\PROJEKTY\procesory\STM\T104_V100a_GASTOP\sources/control.c:2477
                    System_Timer_Setting ( &Arm_Window_Timer.Timer, Service_Variables.Serv_Vars.Serwis_019, T_10msec );
 160:	f8b1 1072 	ldrh.w	r1, [r1, #114]
 164:	2201      	movs	r2, #1
 166:	f7ff fffe 	bl	0 <System_Timer_Setting>
C:\tien\PROJEKTY\procesory\STM\T104_V100a_GASTOP\sources/control.c:2478
                    Controller_Variables.Controller_Vars.Sensor_Counter_Copy = Controller_Variables.Controller_Vars.Sensor_Counter;            
 16a:	7923      	ldrb	r3, [r4, #4]
 16c:	71a3      	strb	r3, [r4, #6]
C:\tien\PROJEKTY\procesory\STM\T104_V100a_GASTOP\sources/control.c:2482
                }
            }
        
            if ( System_Timer_Check ( &Transition_Timer.Timer, T_100msec ) == TRUE )
 16e:	2102      	movs	r1, #2
 170:	4811      	ldr	r0, [pc, #68]	(1b8 <Stop_Fwd_Fun+0x1b8>)
 172:	f7ff fffe 	bl	0 <System_Timer_Check>
 176:	2801      	cmp	r0, #1
 178:	d102      	bne.n	180 <Stop_Fwd_Fun+0x180>
C:\tien\PROJEKTY\procesory\STM\T104_V100a_GASTOP\sources/control.c:2484
            {
                Machine_State = GO_FORWARD;
 17a:	4b05      	ldr	r3, [pc, #20]	(190 <Stop_Fwd_Fun+0x190>)
 17c:	2227      	movs	r2, #39
 17e:	701a      	strb	r2, [r3, #0]
C:\tien\PROJEKTY\procesory\STM\T104_V100a_GASTOP\sources/control.c:2488
            }
        }
    }
}
 180:	bd70      	pop	{r4, r5, r6, pc}
 182:	46c0      	nop			(mov r8, r8)
	...
Disassembly of section .text.Backwords_Go:

00000000 <Backwords_Go>:
Backwords_Go():
C:\tien\PROJEKTY\procesory\STM\T104_V100a_GASTOP\sources/control.c:2728
* Input          : None
* Output         : None
* Return         : None
*******************************************************************************/
static void Backwords_Go ( void )
{
   0:	b570      	push	{r4, r5, r6, lr}
C:\tien\PROJEKTY\procesory\STM\T104_V100a_GASTOP\sources/control.c:2731
	uint16_t Arm_Pos_Tmp8;

    if ( Service_Variables.Serv_Vars.Sensor_Type == 0 )//ENKODER
   2:	4c20      	ldr	r4, [pc, #128]	(84 <Backwords_Go+0x84>)
   4:	f894 306d 	ldrb.w	r3, [r4, #109]
   8:	2b00      	cmp	r3, #0
   a:	d039      	beq.n	80 <Backwords_Go+0x80>
C:\tien\PROJEKTY\procesory\STM\T104_V100a_GASTOP\sources/control.c:2737
    {

    }
    else//Inductive
    {
        if ( Inputs_Level & IND_SENSOR1 )
   c:	4b1e      	ldr	r3, [pc, #120]	(88 <Backwords_Go+0x88>)
   e:	881b      	ldrh	r3, [r3, #0]
  10:	f013 0f04 	tst.w	r3, #4	; 0x4
  14:	d034      	beq.n	80 <Backwords_Go+0x80>
C:\tien\PROJEKTY\procesory\STM\T104_V100a_GASTOP\sources/control.c:2739
        {
            Counters_Variables.Counters_Vars.No_Goout++;
  16:	4a1d      	ldr	r2, [pc, #116]	(8c <Backwords_Go+0x8c>)
  18:	6853      	ldr	r3, [r2, #4]
  1a:	3301      	adds	r3, #1
  1c:	6053      	str	r3, [r2, #4]
C:\tien\PROJEKTY\procesory\STM\T104_V100a_GASTOP\sources/control.c:2740
            Persons_Counter_Bck--;
  1e:	4a1c      	ldr	r2, [pc, #112]	(90 <Backwords_Go+0x90>)
  20:	8853      	ldrh	r3, [r2, #2]
  22:	3b01      	subs	r3, #1
  24:	8053      	strh	r3, [r2, #2]
C:\tien\PROJEKTY\procesory\STM\T104_V100a_GASTOP\sources/control.c:2741
            Update_Counters();
  26:	f7ff fffe 	bl	0 <Update_Counters>
C:\tien\PROJEKTY\procesory\STM\T104_V100a_GASTOP\sources/control.c:2742
            Reload_Screen = TRUE;
  2a:	4b1a      	ldr	r3, [pc, #104]	(94 <Backwords_Go+0x94>)
  2c:	2201      	movs	r2, #1
  2e:	701a      	strb	r2, [r3, #0]
C:\tien\PROJEKTY\procesory\STM\T104_V100a_GASTOP\sources/control.c:2744
           
            if ( Service_Variables.Serv_Vars.Standby_No_Brake == 0 )
  30:	f894 3063 	ldrb.w	r3, [r4, #99]
  34:	4918      	ldr	r1, [pc, #96]	(98 <Backwords_Go+0x98>)
  36:	4819      	ldr	r0, [pc, #100]	(9c <Backwords_Go+0x9c>)
  38:	b933      	cbnz	r3, 48 <Backwords_Go+0x48>
C:\tien\PROJEKTY\procesory\STM\T104_V100a_GASTOP\sources/control.c:2746
            {
                Machine_State = Control_Variables[Machine_State].Motor_Enc_Ptr->Next[1];
  3a:	780b      	ldrb	r3, [r1, #0]
  3c:	3213      	adds	r2, #19
  3e:	fb02 0303 	mla	r3, r2, r3, r0
  42:	68db      	ldr	r3, [r3, #12]
  44:	795b      	ldrb	r3, [r3, #5]
  46:	e005      	b.n	54 <Backwords_Go+0x54>
C:\tien\PROJEKTY\procesory\STM\T104_V100a_GASTOP\sources/control.c:2750
            }
            else
            {
                Machine_State = Control_Variables[Machine_State].Motor_Enc_Ptr->Next[0];
  48:	780b      	ldrb	r3, [r1, #0]
  4a:	2214      	movs	r2, #20
  4c:	fb02 0303 	mla	r3, r2, r3, r0
  50:	68db      	ldr	r3, [r3, #12]
  52:	791b      	ldrb	r3, [r3, #4]
  54:	700b      	strb	r3, [r1, #0]
C:\tien\PROJEKTY\procesory\STM\T104_V100a_GASTOP\sources/control.c:2753
            }
        
            System_Timer_Setting (  &Control_Variables[Machine_State].Time_Connection_Ptr->Tmr_Cntr_Ptr->Timer,
  56:	4b10      	ldr	r3, [pc, #64]	(98 <Backwords_Go+0x98>)
  58:	4c10      	ldr	r4, [pc, #64]	(9c <Backwords_Go+0x9c>)
  5a:	781a      	ldrb	r2, [r3, #0]
  5c:	7818      	ldrb	r0, [r3, #0]
  5e:	2114      	movs	r1, #20
  60:	fb01 4000 	mla	r0, r1, r0, r4
  64:	781d      	ldrb	r5, [r3, #0]
  66:	fb01 4202 	mla	r2, r1, r2, r4
  6a:	fb01 4505 	mla	r5, r1, r5, r4
  6e:	6883      	ldr	r3, [r0, #8]
  70:	6896      	ldr	r6, [r2, #8]
  72:	681a      	ldr	r2, [r3, #0]
  74:	68ab      	ldr	r3, [r5, #8]
  76:	8811      	ldrh	r1, [r2, #0]
  78:	68b0      	ldr	r0, [r6, #8]
  7a:	791a      	ldrb	r2, [r3, #4]
  7c:	f7ff fffe 	bl	0 <System_Timer_Setting>
C:\tien\PROJEKTY\procesory\STM\T104_V100a_GASTOP\sources/control.c:2758
                                    *Control_Variables[Machine_State].Time_Connection_Ptr->Time_Value,
                                    Control_Variables[Machine_State].Time_Connection_Ptr->Resolution );
        }
    }
}
  80:	bd70      	pop	{r4, r5, r6, pc}
  82:	46c0      	nop			(mov r8, r8)
	...
Disassembly of section .text.Forward_Go:

00000000 <Forward_Go>:
Forward_Go():
C:\tien\PROJEKTY\procesory\STM\T104_V100a_GASTOP\sources/control.c:2686
* Input          : None
* Output         : None
* Return         : None
*******************************************************************************/
static void Forward_Go ( void )
{
   0:	b570      	push	{r4, r5, r6, lr}
C:\tien\PROJEKTY\procesory\STM\T104_V100a_GASTOP\sources/control.c:2689
	uint16_t Arm_Pos_Tmp3;

    if ( Service_Variables.Serv_Vars.Sensor_Type == 0 )//ENKODER
   2:	4c20      	ldr	r4, [pc, #128]	(84 <Forward_Go+0x84>)
   4:	f894 306d 	ldrb.w	r3, [r4, #109]
   8:	2b00      	cmp	r3, #0
   a:	d039      	beq.n	80 <Forward_Go+0x80>
C:\tien\PROJEKTY\procesory\STM\T104_V100a_GASTOP\sources/control.c:2695
    {

    }
    else//Inductive
    {
        if ( Inputs_Level & IND_SENSOR1  )
   c:	4b1e      	ldr	r3, [pc, #120]	(88 <Forward_Go+0x88>)
   e:	881b      	ldrh	r3, [r3, #0]
  10:	f013 0f04 	tst.w	r3, #4	; 0x4
  14:	d034      	beq.n	80 <Forward_Go+0x80>
C:\tien\PROJEKTY\procesory\STM\T104_V100a_GASTOP\sources/control.c:2697
        {
            Counters_Variables.Counters_Vars.No_Goin++;
  16:	4a1d      	ldr	r2, [pc, #116]	(8c <Forward_Go+0x8c>)
  18:	6813      	ldr	r3, [r2, #0]
  1a:	3301      	adds	r3, #1
  1c:	6013      	str	r3, [r2, #0]
C:\tien\PROJEKTY\procesory\STM\T104_V100a_GASTOP\sources/control.c:2698
            Persons_Counter_Fwd--;
  1e:	4a1c      	ldr	r2, [pc, #112]	(90 <Forward_Go+0x90>)
  20:	8813      	ldrh	r3, [r2, #0]
  22:	3b01      	subs	r3, #1
  24:	8013      	strh	r3, [r2, #0]
C:\tien\PROJEKTY\procesory\STM\T104_V100a_GASTOP\sources/control.c:2699
            Update_Counters();
  26:	f7ff fffe 	bl	0 <Update_Counters>
C:\tien\PROJEKTY\procesory\STM\T104_V100a_GASTOP\sources/control.c:2700
            Reload_Screen = TRUE;
  2a:	4b1a      	ldr	r3, [pc, #104]	(94 <Forward_Go+0x94>)
  2c:	2201      	movs	r2, #1
  2e:	701a      	strb	r2, [r3, #0]
C:\tien\PROJEKTY\procesory\STM\T104_V100a_GASTOP\sources/control.c:2702
     
            if ( Service_Variables.Serv_Vars.Standby_No_Brake == 0 )
  30:	f894 3063 	ldrb.w	r3, [r4, #99]
  34:	4918      	ldr	r1, [pc, #96]	(98 <Forward_Go+0x98>)
  36:	4819      	ldr	r0, [pc, #100]	(9c <Forward_Go+0x9c>)
  38:	b933      	cbnz	r3, 48 <Forward_Go+0x48>
C:\tien\PROJEKTY\procesory\STM\T104_V100a_GASTOP\sources/control.c:2704
            {
                Machine_State = Control_Variables[Machine_State].Motor_Enc_Ptr->Next[1];
  3a:	780b      	ldrb	r3, [r1, #0]
  3c:	3213      	adds	r2, #19
  3e:	fb02 0303 	mla	r3, r2, r3, r0
  42:	68db      	ldr	r3, [r3, #12]
  44:	795b      	ldrb	r3, [r3, #5]
  46:	e005      	b.n	54 <Forward_Go+0x54>
C:\tien\PROJEKTY\procesory\STM\T104_V100a_GASTOP\sources/control.c:2708
            }
            else
            {
                Machine_State = Control_Variables[Machine_State].Motor_Enc_Ptr->Next[0];
  48:	780b      	ldrb	r3, [r1, #0]
  4a:	2214      	movs	r2, #20
  4c:	fb02 0303 	mla	r3, r2, r3, r0
  50:	68db      	ldr	r3, [r3, #12]
  52:	791b      	ldrb	r3, [r3, #4]
  54:	700b      	strb	r3, [r1, #0]
C:\tien\PROJEKTY\procesory\STM\T104_V100a_GASTOP\sources/control.c:2711
            }
        
            System_Timer_Setting (  &Control_Variables[Machine_State].Time_Connection_Ptr->Tmr_Cntr_Ptr->Timer,
  56:	4b10      	ldr	r3, [pc, #64]	(98 <Forward_Go+0x98>)
  58:	4c10      	ldr	r4, [pc, #64]	(9c <Forward_Go+0x9c>)
  5a:	781a      	ldrb	r2, [r3, #0]
  5c:	7818      	ldrb	r0, [r3, #0]
  5e:	2114      	movs	r1, #20
  60:	fb01 4000 	mla	r0, r1, r0, r4
  64:	781d      	ldrb	r5, [r3, #0]
  66:	fb01 4202 	mla	r2, r1, r2, r4
  6a:	fb01 4505 	mla	r5, r1, r5, r4
  6e:	6883      	ldr	r3, [r0, #8]
  70:	6896      	ldr	r6, [r2, #8]
  72:	681a      	ldr	r2, [r3, #0]
  74:	68ab      	ldr	r3, [r5, #8]
  76:	8811      	ldrh	r1, [r2, #0]
  78:	68b0      	ldr	r0, [r6, #8]
  7a:	791a      	ldrb	r2, [r3, #4]
  7c:	f7ff fffe 	bl	0 <System_Timer_Setting>
C:\tien\PROJEKTY\procesory\STM\T104_V100a_GASTOP\sources/control.c:2716
                                    *Control_Variables[Machine_State].Time_Connection_Ptr->Time_Value,
                                    Control_Variables[Machine_State].Time_Connection_Ptr->Resolution );
        }
    }
}
  80:	bd70      	pop	{r4, r5, r6, pc}
  82:	46c0      	nop			(mov r8, r8)
	...
Disassembly of section .text.Backwords_Move:

00000000 <Backwords_Move>:
Backwords_Move():
C:\tien\PROJEKTY\procesory\STM\T104_V100a_GASTOP\sources/control.c:1292
* Input          : None
* Output         : None
* Return         : None
*******************************************************************************/
static void Backwords_Move ( void )
{
   0:	b570      	push	{r4, r5, r6, lr}
C:\tien\PROJEKTY\procesory\STM\T104_V100a_GASTOP\sources/control.c:1295
	uint16_t Arm_Pos_Tmp8;

    if ( Service_Variables.Serv_Vars.Sensor_Type == 0 )//ENKODER
   2:	4d83      	ldr	r5, [pc, #524]	(210 <Backwords_Move+0x210>)
   4:	f895 306d 	ldrb.w	r3, [r5, #109]
   8:	2b00      	cmp	r3, #0
   a:	f040 8081 	bne.w	110 <Backwords_Move+0x110>
C:\tien\PROJEKTY\procesory\STM\T104_V100a_GASTOP\sources/control.c:1297
    {
        if ( Position_Check(Service_Variables.Serv_Vars.Serwis_003) == TRUE )
   e:	8de8      	ldrh	r0, [r5, #46]
  10:	f7ff fffe 	bl	0 <Backwords_Move>
  14:	2801      	cmp	r0, #1
  16:	4604      	mov	r4, r0
  18:	d13f      	bne.n	9a <Backwords_Move+0x9a>
C:\tien\PROJEKTY\procesory\STM\T104_V100a_GASTOP\sources/control.c:1299
        {
            if ( Encoder_Angle != Actual_Angle )
  1a:	4b7e      	ldr	r3, [pc, #504]	(214 <Backwords_Move+0x214>)
  1c:	781a      	ldrb	r2, [r3, #0]
  1e:	4b7e      	ldr	r3, [pc, #504]	(218 <Backwords_Move+0x218>)
  20:	781b      	ldrb	r3, [r3, #0]
  22:	429a      	cmp	r2, r3
  24:	f000 80b6 	beq.w	194 <Backwords_Move+0x194>
C:\tien\PROJEKTY\procesory\STM\T104_V100a_GASTOP\sources/control.c:1301
            {
                Counters_Variables.Counters_Vars.No_Goout++;
  28:	4a7c      	ldr	r2, [pc, #496]	(21c <Backwords_Move+0x21c>)
  2a:	6853      	ldr	r3, [r2, #4]
  2c:	3301      	adds	r3, #1
  2e:	6053      	str	r3, [r2, #4]
C:\tien\PROJEKTY\procesory\STM\T104_V100a_GASTOP\sources/control.c:1302
                Persons_Counter_Bck--;
  30:	4a7b      	ldr	r2, [pc, #492]	(220 <Backwords_Move+0x220>)
  32:	8853      	ldrh	r3, [r2, #2]
  34:	3b01      	subs	r3, #1
  36:	8053      	strh	r3, [r2, #2]
C:\tien\PROJEKTY\procesory\STM\T104_V100a_GASTOP\sources/control.c:1303
                Update_Counters();
  38:	f7ff fffe 	bl	0 <Update_Counters>
C:\tien\PROJEKTY\procesory\STM\T104_V100a_GASTOP\sources/control.c:1304
                Reload_Screen = TRUE;       
  3c:	4b79      	ldr	r3, [pc, #484]	(224 <Backwords_Move+0x224>)
  3e:	497a      	ldr	r1, [pc, #488]	(228 <Backwords_Move+0x228>)
  40:	701c      	strb	r4, [r3, #0]
C:\tien\PROJEKTY\procesory\STM\T104_V100a_GASTOP\sources/control.c:1306

                if ( Service_Variables.Serv_Vars.Standby_No_Brake == 0)
  42:	f895 3063 	ldrb.w	r3, [r5, #99]
  46:	4879      	ldr	r0, [pc, #484]	(22c <Backwords_Move+0x22c>)
  48:	b933      	cbnz	r3, 58 <Backwords_Move+0x58>
C:\tien\PROJEKTY\procesory\STM\T104_V100a_GASTOP\sources/control.c:1308
                {
                    Machine_State = Control_Variables[Machine_State].Motor_Enc_Ptr->Next[1];
  4a:	780b      	ldrb	r3, [r1, #0]
  4c:	2214      	movs	r2, #20
  4e:	fb02 0303 	mla	r3, r2, r3, r0
  52:	68db      	ldr	r3, [r3, #12]
  54:	795b      	ldrb	r3, [r3, #5]
  56:	e005      	b.n	64 <Backwords_Move+0x64>
C:\tien\PROJEKTY\procesory\STM\T104_V100a_GASTOP\sources/control.c:1312
                }
                else
                {
                    Machine_State = Control_Variables[Machine_State].Motor_Enc_Ptr->Next[0];
  58:	780b      	ldrb	r3, [r1, #0]
  5a:	2214      	movs	r2, #20
  5c:	fb02 0303 	mla	r3, r2, r3, r0
  60:	68db      	ldr	r3, [r3, #12]
  62:	791b      	ldrb	r3, [r3, #4]
  64:	700b      	strb	r3, [r1, #0]
C:\tien\PROJEKTY\procesory\STM\T104_V100a_GASTOP\sources/control.c:1314
                }
                System_Timer_Setting (  &Control_Variables[Machine_State].Time_Connection_Ptr->Tmr_Cntr_Ptr->Timer,
  66:	4b70      	ldr	r3, [pc, #448]	(228 <Backwords_Move+0x228>)
  68:	4c70      	ldr	r4, [pc, #448]	(22c <Backwords_Move+0x22c>)
  6a:	781a      	ldrb	r2, [r3, #0]
  6c:	7818      	ldrb	r0, [r3, #0]
  6e:	2114      	movs	r1, #20
  70:	781d      	ldrb	r5, [r3, #0]
  72:	fb01 4000 	mla	r0, r1, r0, r4
  76:	fb01 4202 	mla	r2, r1, r2, r4
  7a:	fb01 4505 	mla	r5, r1, r5, r4
  7e:	6883      	ldr	r3, [r0, #8]
  80:	6896      	ldr	r6, [r2, #8]
  82:	681a      	ldr	r2, [r3, #0]
  84:	68ab      	ldr	r3, [r5, #8]
  86:	8811      	ldrh	r1, [r2, #0]
  88:	68b0      	ldr	r0, [r6, #8]
  8a:	791a      	ldrb	r2, [r3, #4]
  8c:	f7ff fffe 	bl	0 <System_Timer_Setting>
C:\tien\PROJEKTY\procesory\STM\T104_V100a_GASTOP\sources/control.c:1318
                                        *Control_Variables[Machine_State].Time_Connection_Ptr->Time_Value,
                                        Control_Variables[Machine_State].Time_Connection_Ptr->Resolution );

                Actual_Angle = Encoder_Angle;
  90:	4b60      	ldr	r3, [pc, #384]	(214 <Backwords_Move+0x214>)
  92:	4a61      	ldr	r2, [pc, #388]	(218 <Backwords_Move+0x218>)
  94:	781b      	ldrb	r3, [r3, #0]
  96:	7013      	strb	r3, [r2, #0]
  98:	e07c      	b.n	194 <Backwords_Move+0x194>
C:\tien\PROJEKTY\procesory\STM\T104_V100a_GASTOP\sources/control.c:1329
            }

        }
        else
        {
            if ( System_Timer_Check ( &Arm_Window_Timer.Timer, T_10msec ) == TRUE )
  9a:	2101      	movs	r1, #1
  9c:	4864      	ldr	r0, [pc, #400]	(230 <Backwords_Move+0x230>)
  9e:	f7ff fffe 	bl	0 <System_Timer_Check>
  a2:	2801      	cmp	r0, #1
  a4:	f040 80b3 	bne.w	20e <Backwords_Move+0x20e>
C:\tien\PROJEKTY\procesory\STM\T104_V100a_GASTOP\sources/control.c:1331
            {
                Arm_Pos_Tmp8 = Arm_Pos;
  a8:	4b62      	ldr	r3, [pc, #392]	(234 <Backwords_Move+0x234>)
  aa:	881a      	ldrh	r2, [r3, #0]
C:\tien\PROJEKTY\procesory\STM\T104_V100a_GASTOP\sources/control.c:1332
                if ( Arm_Pos_Tmp8 > Arms_Stop_Pos.Max_Pos4 )
  ac:	4b62      	ldr	r3, [pc, #392]	(238 <Backwords_Move+0x238>)
  ae:	b290      	uxth	r0, r2
  b0:	89db      	ldrh	r3, [r3, #14]
  b2:	4293      	cmp	r3, r2
  b4:	d203      	bcs.n	be <Backwords_Move+0xbe>
C:\tien\PROJEKTY\procesory\STM\T104_V100a_GASTOP\sources/control.c:1334
                {
                    Arm_Pos_Tmp8 -= 1023;
  b6:	f500 437c 	add.w	r3, r0, #64512	; 0xfc00
  ba:	3301      	adds	r3, #1
  bc:	b298      	uxth	r0, r3
C:\tien\PROJEKTY\procesory\STM\T104_V100a_GASTOP\sources/control.c:1337
                }

                if ( Arm_Window_Pos > Arms_Stop_Pos.Max_Pos4 )
  be:	495f      	ldr	r1, [pc, #380]	(23c <Backwords_Move+0x23c>)
  c0:	4a5d      	ldr	r2, [pc, #372]	(238 <Backwords_Move+0x238>)
  c2:	880b      	ldrh	r3, [r1, #0]
  c4:	89d2      	ldrh	r2, [r2, #14]
  c6:	429a      	cmp	r2, r3
  c8:	d205      	bcs.n	d6 <Backwords_Move+0xd6>
C:\tien\PROJEKTY\procesory\STM\T104_V100a_GASTOP\sources/control.c:1339
                {
                    Arm_Window_Pos -= 1023;
  ca:	880b      	ldrh	r3, [r1, #0]
  cc:	f5a3 737e 	sub.w	r3, r3, #1016	; 0x3f8
  d0:	3b07      	subs	r3, #7
  d2:	b29b      	uxth	r3, r3
  d4:	800b      	strh	r3, [r1, #0]
C:\tien\PROJEKTY\procesory\STM\T104_V100a_GASTOP\sources/control.c:1342
                }

                if ( (Arm_Window_Pos - Service_Variables.Serv_Vars.Serwis_006) <= Arm_Pos_Tmp8 )
  d6:	4959      	ldr	r1, [pc, #356]	(23c <Backwords_Move+0x23c>)
  d8:	4a4d      	ldr	r2, [pc, #308]	(210 <Backwords_Move+0x210>)
  da:	880b      	ldrh	r3, [r1, #0]
  dc:	8e92      	ldrh	r2, [r2, #52]
  de:	b29b      	uxth	r3, r3
  e0:	1a9b      	subs	r3, r3, r2
  e2:	4283      	cmp	r3, r0
  e4:	4b53      	ldr	r3, [pc, #332]	(234 <Backwords_Move+0x234>)
  e6:	dc09      	bgt.n	fc <Backwords_Move+0xfc>
C:\tien\PROJEKTY\procesory\STM\T104_V100a_GASTOP\sources/control.c:1344
                {
                    Arm_Window_Pos = Arm_Pos;
  e8:	881b      	ldrh	r3, [r3, #0]
C:\tien\PROJEKTY\procesory\STM\T104_V100a_GASTOP\sources/control.c:1345
                    STOP_FWD_BCK_FLAG = FALSE;
  ea:	2200      	movs	r2, #0
C:\tien\PROJEKTY\procesory\STM\T104_V100a_GASTOP\sources/control.c:1344
                    Arm_Window_Pos -= 1023;
                }

                if ( (Arm_Window_Pos - Service_Variables.Serv_Vars.Serwis_006) <= Arm_Pos_Tmp8 )
                {
                    Arm_Window_Pos = Arm_Pos;
  ec:	b29b      	uxth	r3, r3
  ee:	800b      	strh	r3, [r1, #0]
C:\tien\PROJEKTY\procesory\STM\T104_V100a_GASTOP\sources/control.c:1345
                    STOP_FWD_BCK_FLAG = FALSE;
  f0:	4b4b      	ldr	r3, [pc, #300]	(220 <Backwords_Move+0x220>)
  f2:	765a      	strb	r2, [r3, #25]
C:\tien\PROJEKTY\procesory\STM\T104_V100a_GASTOP\sources/control.c:1346
                    Machine_State = ARM_STOP_BCK;
  f4:	4b4c      	ldr	r3, [pc, #304]	(228 <Backwords_Move+0x228>)
  f6:	320e      	adds	r2, #14
  f8:	701a      	strb	r2, [r3, #0]
  fa:	e002      	b.n	102 <Backwords_Move+0x102>
C:\tien\PROJEKTY\procesory\STM\T104_V100a_GASTOP\sources/control.c:1350
                }
                else
                {
                    Arm_Window_Pos = Arm_Pos;
  fc:	881b      	ldrh	r3, [r3, #0]
  fe:	b29b      	uxth	r3, r3
 100:	800b      	strh	r3, [r1, #0]
C:\tien\PROJEKTY\procesory\STM\T104_V100a_GASTOP\sources/control.c:1353
                }

                System_Timer_Setting ( &Arm_Window_Timer.Timer, Service_Variables.Serv_Vars.Serwis_005, T_10msec );
 102:	4b43      	ldr	r3, [pc, #268]	(210 <Backwords_Move+0x210>)
 104:	484a      	ldr	r0, [pc, #296]	(230 <Backwords_Move+0x230>)
 106:	8e59      	ldrh	r1, [r3, #50]
 108:	2201      	movs	r2, #1
 10a:	f7ff fffe 	bl	0 <System_Timer_Setting>
 10e:	e07e      	b.n	20e <Backwords_Move+0x20e>
C:\tien\PROJEKTY\procesory\STM\T104_V100a_GASTOP\sources/control.c:1359
            }   
        }
    }
    else//Inductive
    {
        if ( Inputs_Level & IND_SENSOR1 )
 110:	4b4b      	ldr	r3, [pc, #300]	(240 <Backwords_Move+0x240>)
 112:	881b      	ldrh	r3, [r3, #0]
 114:	f013 0404 	ands.w	r4, r3, #4	; 0x4
 118:	d047      	beq.n	1aa <Backwords_Move+0x1aa>
C:\tien\PROJEKTY\procesory\STM\T104_V100a_GASTOP\sources/control.c:1361
        {
            if ( Controller_Variables.Controller_Vars.Sensor_Counter < (IND_OFFSET-Service_Variables.Serv_Vars.Serwis_021) )
 11a:	4b4a      	ldr	r3, [pc, #296]	(244 <Backwords_Move+0x244>)
 11c:	791a      	ldrb	r2, [r3, #4]
 11e:	f8b5 3076 	ldrh.w	r3, [r5, #118]
 122:	f1c3 0364 	rsb	r3, r3, #100	; 0x64
 126:	429a      	cmp	r2, r3
 128:	da34      	bge.n	194 <Backwords_Move+0x194>
C:\tien\PROJEKTY\procesory\STM\T104_V100a_GASTOP\sources/control.c:1363
            {
                Counters_Variables.Counters_Vars.No_Goout++;
 12a:	4a3c      	ldr	r2, [pc, #240]	(21c <Backwords_Move+0x21c>)
 12c:	6853      	ldr	r3, [r2, #4]
 12e:	3301      	adds	r3, #1
 130:	6053      	str	r3, [r2, #4]
C:\tien\PROJEKTY\procesory\STM\T104_V100a_GASTOP\sources/control.c:1364
                Persons_Counter_Bck--;
 132:	4a3b      	ldr	r2, [pc, #236]	(220 <Backwords_Move+0x220>)
 134:	8853      	ldrh	r3, [r2, #2]
 136:	3b01      	subs	r3, #1
 138:	8053      	strh	r3, [r2, #2]
C:\tien\PROJEKTY\procesory\STM\T104_V100a_GASTOP\sources/control.c:1365
                Update_Counters();
 13a:	f7ff fffe 	bl	0 <Update_Counters>
C:\tien\PROJEKTY\procesory\STM\T104_V100a_GASTOP\sources/control.c:1366
                Reload_Screen = TRUE;
 13e:	4b39      	ldr	r3, [pc, #228]	(224 <Backwords_Move+0x224>)
 140:	2201      	movs	r2, #1
 142:	701a      	strb	r2, [r3, #0]
C:\tien\PROJEKTY\procesory\STM\T104_V100a_GASTOP\sources/control.c:1368

                if ( Service_Variables.Serv_Vars.Standby_No_Brake == 0 )
 144:	f895 3063 	ldrb.w	r3, [r5, #99]
 148:	4937      	ldr	r1, [pc, #220]	(228 <Backwords_Move+0x228>)
 14a:	4838      	ldr	r0, [pc, #224]	(22c <Backwords_Move+0x22c>)
 14c:	b933      	cbnz	r3, 15c <Backwords_Move+0x15c>
C:\tien\PROJEKTY\procesory\STM\T104_V100a_GASTOP\sources/control.c:1370
                {
                    Machine_State = Control_Variables[Machine_State].Motor_Enc_Ptr->Next[1];
 14e:	780b      	ldrb	r3, [r1, #0]
 150:	3213      	adds	r2, #19
 152:	fb02 0303 	mla	r3, r2, r3, r0
 156:	68db      	ldr	r3, [r3, #12]
 158:	795b      	ldrb	r3, [r3, #5]
 15a:	e005      	b.n	168 <Backwords_Move+0x168>
C:\tien\PROJEKTY\procesory\STM\T104_V100a_GASTOP\sources/control.c:1374
                }
                else
                {
                    Machine_State = Control_Variables[Machine_State].Motor_Enc_Ptr->Next[0];
 15c:	780b      	ldrb	r3, [r1, #0]
 15e:	2214      	movs	r2, #20
 160:	fb02 0303 	mla	r3, r2, r3, r0
 164:	68db      	ldr	r3, [r3, #12]
 166:	791b      	ldrb	r3, [r3, #4]
 168:	700b      	strb	r3, [r1, #0]
C:\tien\PROJEKTY\procesory\STM\T104_V100a_GASTOP\sources/control.c:1377
                }
        
                System_Timer_Setting (  &Control_Variables[Machine_State].Time_Connection_Ptr->Tmr_Cntr_Ptr->Timer,
 16a:	4b2f      	ldr	r3, [pc, #188]	(228 <Backwords_Move+0x228>)
 16c:	4c2f      	ldr	r4, [pc, #188]	(22c <Backwords_Move+0x22c>)
 16e:	781a      	ldrb	r2, [r3, #0]
 170:	7818      	ldrb	r0, [r3, #0]
 172:	2114      	movs	r1, #20
 174:	fb01 4000 	mla	r0, r1, r0, r4
 178:	781d      	ldrb	r5, [r3, #0]
 17a:	fb01 4202 	mla	r2, r1, r2, r4
 17e:	fb01 4505 	mla	r5, r1, r5, r4
 182:	6883      	ldr	r3, [r0, #8]
 184:	6896      	ldr	r6, [r2, #8]
 186:	681a      	ldr	r2, [r3, #0]
 188:	68ab      	ldr	r3, [r5, #8]
 18a:	8811      	ldrh	r1, [r2, #0]
 18c:	68b0      	ldr	r0, [r6, #8]
 18e:	791a      	ldrb	r2, [r3, #4]
 190:	f7ff fffe 	bl	0 <System_Timer_Setting>
C:\tien\PROJEKTY\procesory\STM\T104_V100a_GASTOP\sources/control.c:1382
                                        *Control_Variables[Machine_State].Time_Connection_Ptr->Time_Value,
                                        Control_Variables[Machine_State].Time_Connection_Ptr->Resolution );
            }

            if ( System_Timer_Check ( &Arm_Window_Timer.Timer, T_10msec ) == TRUE )
 194:	2101      	movs	r1, #1
 196:	4826      	ldr	r0, [pc, #152]	(230 <Backwords_Move+0x230>)
 198:	f7ff fffe 	bl	0 <System_Timer_Check>
 19c:	2801      	cmp	r0, #1
 19e:	4602      	mov	r2, r0
 1a0:	d135      	bne.n	20e <Backwords_Move+0x20e>
C:\tien\PROJEKTY\procesory\STM\T104_V100a_GASTOP\sources/control.c:1384
            {
                System_Timer_Setting ( &Arm_Window_Timer.Timer, Service_Variables.Serv_Vars.Serwis_005, T_10msec );
 1a2:	4b1b      	ldr	r3, [pc, #108]	(210 <Backwords_Move+0x210>)
 1a4:	4822      	ldr	r0, [pc, #136]	(230 <Backwords_Move+0x230>)
 1a6:	8e59      	ldrh	r1, [r3, #50]
 1a8:	e7af      	b.n	10a <Backwords_Move+0x10a>
C:\tien\PROJEKTY\procesory\STM\T104_V100a_GASTOP\sources/control.c:1389
            }      
        }
        else
        {
            if ( System_Timer_Check ( &Arm_Window_Timer.Timer, T_10msec ) == TRUE )
 1aa:	2101      	movs	r1, #1
 1ac:	4820      	ldr	r0, [pc, #128]	(230 <Backwords_Move+0x230>)
 1ae:	f7ff fffe 	bl	0 <System_Timer_Check>
 1b2:	2801      	cmp	r0, #1
 1b4:	d110      	bne.n	1d8 <Backwords_Move+0x1d8>
C:\tien\PROJEKTY\procesory\STM\T104_V100a_GASTOP\sources/control.c:1391
            {
                if ( Controller_Variables.Controller_Vars.Sensor_Counter_Copy <= Controller_Variables.Controller_Vars.Sensor_Counter )
 1b6:	4823      	ldr	r0, [pc, #140]	(244 <Backwords_Move+0x244>)
 1b8:	7901      	ldrb	r1, [r0, #4]
 1ba:	7983      	ldrb	r3, [r0, #6]
 1bc:	428b      	cmp	r3, r1
 1be:	d804      	bhi.n	1ca <Backwords_Move+0x1ca>
C:\tien\PROJEKTY\procesory\STM\T104_V100a_GASTOP\sources/control.c:1393
                {
                    STOP_FWD_BCK_FLAG = FALSE;
 1c0:	4b17      	ldr	r3, [pc, #92]	(220 <Backwords_Move+0x220>)
C:\tien\PROJEKTY\procesory\STM\T104_V100a_GASTOP\sources/control.c:1394
                    Machine_State = ARM_STOP_BCK;
 1c2:	220e      	movs	r2, #14
C:\tien\PROJEKTY\procesory\STM\T104_V100a_GASTOP\sources/control.c:1393
        {
            if ( System_Timer_Check ( &Arm_Window_Timer.Timer, T_10msec ) == TRUE )
            {
                if ( Controller_Variables.Controller_Vars.Sensor_Counter_Copy <= Controller_Variables.Controller_Vars.Sensor_Counter )
                {
                    STOP_FWD_BCK_FLAG = FALSE;
 1c4:	765c      	strb	r4, [r3, #25]
C:\tien\PROJEKTY\procesory\STM\T104_V100a_GASTOP\sources/control.c:1394
                    Machine_State = ARM_STOP_BCK;
 1c6:	4b18      	ldr	r3, [pc, #96]	(228 <Backwords_Move+0x228>)
 1c8:	701a      	strb	r2, [r3, #0]
C:\tien\PROJEKTY\procesory\STM\T104_V100a_GASTOP\sources/control.c:1401
                }
                else
                {
                    Controller_Variables.Controller_Vars.Sensor_Counter_Copy = Controller_Variables.Controller_Vars.Sensor_Counter;                
                }
                System_Timer_Setting ( &Arm_Window_Timer.Timer, Service_Variables.Serv_Vars.Serwis_005, T_10msec );
 1ca:	4b11      	ldr	r3, [pc, #68]	(210 <Backwords_Move+0x210>)
C:\tien\PROJEKTY\procesory\STM\T104_V100a_GASTOP\sources/control.c:1399
                    Machine_State = ARM_STOP_BCK;
                    Controller_Variables.Controller_Vars.Sensor_Counter_Copy = Controller_Variables.Controller_Vars.Sensor_Counter;            
                }
                else
                {
                    Controller_Variables.Controller_Vars.Sensor_Counter_Copy = Controller_Variables.Controller_Vars.Sensor_Counter;                
 1cc:	7181      	strb	r1, [r0, #6]
C:\tien\PROJEKTY\procesory\STM\T104_V100a_GASTOP\sources/control.c:1401
                }
                System_Timer_Setting ( &Arm_Window_Timer.Timer, Service_Variables.Serv_Vars.Serwis_005, T_10msec );
 1ce:	2201      	movs	r2, #1
 1d0:	4817      	ldr	r0, [pc, #92]	(230 <Backwords_Move+0x230>)
 1d2:	8e59      	ldrh	r1, [r3, #50]
 1d4:	f7ff fffe 	bl	0 <System_Timer_Setting>
C:\tien\PROJEKTY\procesory\STM\T104_V100a_GASTOP\sources/control.c:1404
            }

            if ( Controller_Variables.Controller_Vars.Sensor_Direction_Detect != 2 )
 1d8:	491a      	ldr	r1, [pc, #104]	(244 <Backwords_Move+0x244>)
 1da:	79cb      	ldrb	r3, [r1, #7]
 1dc:	2b02      	cmp	r3, #2
 1de:	d00d      	beq.n	1fc <Backwords_Move+0x1fc>
C:\tien\PROJEKTY\procesory\STM\T104_V100a_GASTOP\sources/control.c:1406
            {
                STOP_FWD_BCK_FLAG = FALSE;           
 1e0:	4b0f      	ldr	r3, [pc, #60]	(220 <Backwords_Move+0x220>)
 1e2:	2200      	movs	r2, #0
 1e4:	765a      	strb	r2, [r3, #25]
C:\tien\PROJEKTY\procesory\STM\T104_V100a_GASTOP\sources/control.c:1407
                Machine_State = ARM_STOP_BCK;
 1e6:	4b10      	ldr	r3, [pc, #64]	(228 <Backwords_Move+0x228>)
 1e8:	320e      	adds	r2, #14
 1ea:	701a      	strb	r2, [r3, #0]
C:\tien\PROJEKTY\procesory\STM\T104_V100a_GASTOP\sources/control.c:1408
                Controller_Variables.Controller_Vars.Sensor_Counter_Copy = Controller_Variables.Controller_Vars.Sensor_Counter;            
 1ec:	790b      	ldrb	r3, [r1, #4]
C:\tien\PROJEKTY\procesory\STM\T104_V100a_GASTOP\sources/control.c:1409
                System_Timer_Setting ( &Arm_Window_Timer.Timer, Service_Variables.Serv_Vars.Serwis_005, T_10msec );
 1ee:	4810      	ldr	r0, [pc, #64]	(230 <Backwords_Move+0x230>)
C:\tien\PROJEKTY\procesory\STM\T104_V100a_GASTOP\sources/control.c:1408

            if ( Controller_Variables.Controller_Vars.Sensor_Direction_Detect != 2 )
            {
                STOP_FWD_BCK_FLAG = FALSE;           
                Machine_State = ARM_STOP_BCK;
                Controller_Variables.Controller_Vars.Sensor_Counter_Copy = Controller_Variables.Controller_Vars.Sensor_Counter;            
 1f0:	718b      	strb	r3, [r1, #6]
C:\tien\PROJEKTY\procesory\STM\T104_V100a_GASTOP\sources/control.c:1409
                System_Timer_Setting ( &Arm_Window_Timer.Timer, Service_Variables.Serv_Vars.Serwis_005, T_10msec );
 1f2:	4b07      	ldr	r3, [pc, #28]	(210 <Backwords_Move+0x210>)
 1f4:	2201      	movs	r2, #1
 1f6:	8e59      	ldrh	r1, [r3, #50]
 1f8:	f7ff fffe 	bl	0 <System_Timer_Setting>
C:\tien\PROJEKTY\procesory\STM\T104_V100a_GASTOP\sources/control.c:1412
            }
        
            if ( System_Timer_Check ( &Transition_Timer.Timer, T_100msec ) == TRUE )
 1fc:	2102      	movs	r1, #2
 1fe:	4812      	ldr	r0, [pc, #72]	(248 <Backwords_Move+0x248>)
 200:	f7ff fffe 	bl	0 <System_Timer_Check>
 204:	2801      	cmp	r0, #1
 206:	d102      	bne.n	20e <Backwords_Move+0x20e>
C:\tien\PROJEKTY\procesory\STM\T104_V100a_GASTOP\sources/control.c:1414
            {
                Machine_State = GO_BACK;
 208:	4b07      	ldr	r3, [pc, #28]	(228 <Backwords_Move+0x228>)
 20a:	2228      	movs	r2, #40
 20c:	701a      	strb	r2, [r3, #0]
C:\tien\PROJEKTY\procesory\STM\T104_V100a_GASTOP\sources/control.c:1514
                }
            }
        }
    }
*/
}
 20e:	bd70      	pop	{r4, r5, r6, pc}
	...
Disassembly of section .text.Forward_Move:

00000000 <Forward_Move>:
Forward_Move():
C:\tien\PROJEKTY\procesory\STM\T104_V100a_GASTOP\sources/control.c:1011
* Input          : None
* Output         : None
* Return         : None
*******************************************************************************/
static void Forward_Move ( void )
{
   0:	b570      	push	{r4, r5, r6, lr}
C:\tien\PROJEKTY\procesory\STM\T104_V100a_GASTOP\sources/control.c:1014
	uint16_t Arm_Pos_Tmp3;

    if ( Service_Variables.Serv_Vars.Sensor_Type == 0 )//ENKODER
   2:	4d83      	ldr	r5, [pc, #524]	(210 <Forward_Move+0x210>)
   4:	f895 306d 	ldrb.w	r3, [r5, #109]
   8:	2b00      	cmp	r3, #0
   a:	f040 8081 	bne.w	110 <Forward_Move+0x110>
C:\tien\PROJEKTY\procesory\STM\T104_V100a_GASTOP\sources/control.c:1016
    {
        if ( Position_Check(Service_Variables.Serv_Vars.Serwis_003) == TRUE )
   e:	8de8      	ldrh	r0, [r5, #46]
  10:	f7ff fffe 	bl	0 <Forward_Move>
  14:	2801      	cmp	r0, #1
  16:	4604      	mov	r4, r0
  18:	d13f      	bne.n	9a <Forward_Move+0x9a>
C:\tien\PROJEKTY\procesory\STM\T104_V100a_GASTOP\sources/control.c:1018
        { 
            if ( Encoder_Angle != Actual_Angle )
  1a:	4b7e      	ldr	r3, [pc, #504]	(214 <Forward_Move+0x214>)
  1c:	781a      	ldrb	r2, [r3, #0]
  1e:	4b7e      	ldr	r3, [pc, #504]	(218 <Forward_Move+0x218>)
  20:	781b      	ldrb	r3, [r3, #0]
  22:	429a      	cmp	r2, r3
  24:	f000 80b5 	beq.w	192 <Forward_Move+0x192>
C:\tien\PROJEKTY\procesory\STM\T104_V100a_GASTOP\sources/control.c:1020
            {
                Counters_Variables.Counters_Vars.No_Goin++;
  28:	4a7c      	ldr	r2, [pc, #496]	(21c <Forward_Move+0x21c>)
  2a:	6813      	ldr	r3, [r2, #0]
  2c:	3301      	adds	r3, #1
  2e:	6013      	str	r3, [r2, #0]
C:\tien\PROJEKTY\procesory\STM\T104_V100a_GASTOP\sources/control.c:1021
                Persons_Counter_Fwd--;
  30:	4a7b      	ldr	r2, [pc, #492]	(220 <Forward_Move+0x220>)
  32:	8813      	ldrh	r3, [r2, #0]
  34:	3b01      	subs	r3, #1
  36:	8013      	strh	r3, [r2, #0]
C:\tien\PROJEKTY\procesory\STM\T104_V100a_GASTOP\sources/control.c:1022
                Update_Counters();
  38:	f7ff fffe 	bl	0 <Update_Counters>
C:\tien\PROJEKTY\procesory\STM\T104_V100a_GASTOP\sources/control.c:1023
                Reload_Screen = TRUE;
  3c:	4b79      	ldr	r3, [pc, #484]	(224 <Forward_Move+0x224>)
  3e:	497a      	ldr	r1, [pc, #488]	(228 <Forward_Move+0x228>)
  40:	701c      	strb	r4, [r3, #0]
C:\tien\PROJEKTY\procesory\STM\T104_V100a_GASTOP\sources/control.c:1025
            
                if ( Service_Variables.Serv_Vars.Standby_No_Brake == 0 )
  42:	f895 3063 	ldrb.w	r3, [r5, #99]
  46:	4879      	ldr	r0, [pc, #484]	(22c <Forward_Move+0x22c>)
  48:	b933      	cbnz	r3, 58 <Forward_Move+0x58>
C:\tien\PROJEKTY\procesory\STM\T104_V100a_GASTOP\sources/control.c:1027
                {
                    Machine_State = Control_Variables[Machine_State].Motor_Enc_Ptr->Next[1];
  4a:	780b      	ldrb	r3, [r1, #0]
  4c:	2214      	movs	r2, #20
  4e:	fb02 0303 	mla	r3, r2, r3, r0
  52:	68db      	ldr	r3, [r3, #12]
  54:	795b      	ldrb	r3, [r3, #5]
  56:	e005      	b.n	64 <Forward_Move+0x64>
C:\tien\PROJEKTY\procesory\STM\T104_V100a_GASTOP\sources/control.c:1031
                }
                else
                {
                    Machine_State = Control_Variables[Machine_State].Motor_Enc_Ptr->Next[0];
  58:	780b      	ldrb	r3, [r1, #0]
  5a:	2214      	movs	r2, #20
  5c:	fb02 0303 	mla	r3, r2, r3, r0
  60:	68db      	ldr	r3, [r3, #12]
  62:	791b      	ldrb	r3, [r3, #4]
  64:	700b      	strb	r3, [r1, #0]
C:\tien\PROJEKTY\procesory\STM\T104_V100a_GASTOP\sources/control.c:1034
                }
        
                System_Timer_Setting (  &Control_Variables[Machine_State].Time_Connection_Ptr->Tmr_Cntr_Ptr->Timer,
  66:	4b70      	ldr	r3, [pc, #448]	(228 <Forward_Move+0x228>)
  68:	4c70      	ldr	r4, [pc, #448]	(22c <Forward_Move+0x22c>)
  6a:	781a      	ldrb	r2, [r3, #0]
  6c:	7818      	ldrb	r0, [r3, #0]
  6e:	2114      	movs	r1, #20
  70:	781d      	ldrb	r5, [r3, #0]
  72:	fb01 4000 	mla	r0, r1, r0, r4
  76:	fb01 4202 	mla	r2, r1, r2, r4
  7a:	fb01 4505 	mla	r5, r1, r5, r4
  7e:	6883      	ldr	r3, [r0, #8]
  80:	6896      	ldr	r6, [r2, #8]
  82:	681a      	ldr	r2, [r3, #0]
  84:	68ab      	ldr	r3, [r5, #8]
  86:	8811      	ldrh	r1, [r2, #0]
  88:	68b0      	ldr	r0, [r6, #8]
  8a:	791a      	ldrb	r2, [r3, #4]
  8c:	f7ff fffe 	bl	0 <System_Timer_Setting>
C:\tien\PROJEKTY\procesory\STM\T104_V100a_GASTOP\sources/control.c:1038
                                        *Control_Variables[Machine_State].Time_Connection_Ptr->Time_Value,
                                        Control_Variables[Machine_State].Time_Connection_Ptr->Resolution );

                Actual_Angle = Encoder_Angle;
  90:	4b60      	ldr	r3, [pc, #384]	(214 <Forward_Move+0x214>)
  92:	4a61      	ldr	r2, [pc, #388]	(218 <Forward_Move+0x218>)
  94:	781b      	ldrb	r3, [r3, #0]
  96:	7013      	strb	r3, [r2, #0]
  98:	e07b      	b.n	192 <Forward_Move+0x192>
C:\tien\PROJEKTY\procesory\STM\T104_V100a_GASTOP\sources/control.c:1048
                System_Timer_Setting ( &Arm_Window_Timer.Timer, Service_Variables.Serv_Vars.Serwis_005, T_10msec );
            }
        }
        else
        {
            if ( System_Timer_Check ( &Arm_Window_Timer.Timer, T_10msec ) == TRUE )
  9a:	2101      	movs	r1, #1
  9c:	4864      	ldr	r0, [pc, #400]	(230 <Forward_Move+0x230>)
  9e:	f7ff fffe 	bl	0 <System_Timer_Check>
  a2:	2801      	cmp	r0, #1
  a4:	f040 80b2 	bne.w	20c <Forward_Move+0x20c>
C:\tien\PROJEKTY\procesory\STM\T104_V100a_GASTOP\sources/control.c:1050
            {
                Arm_Pos_Tmp3 = Arm_Pos;
  a8:	4b62      	ldr	r3, [pc, #392]	(234 <Forward_Move+0x234>)
  aa:	881a      	ldrh	r2, [r3, #0]
C:\tien\PROJEKTY\procesory\STM\T104_V100a_GASTOP\sources/control.c:1051
                if ( Arm_Pos_Tmp3 < Arms_Stop_Pos.Min_Pos1 )
  ac:	4b62      	ldr	r3, [pc, #392]	(238 <Forward_Move+0x238>)
  ae:	b290      	uxth	r0, r2
  b0:	881b      	ldrh	r3, [r3, #0]
  b2:	4293      	cmp	r3, r2
  b4:	d903      	bls.n	be <Forward_Move+0xbe>
C:\tien\PROJEKTY\procesory\STM\T104_V100a_GASTOP\sources/control.c:1053
                {
                    Arm_Pos_Tmp3 += 1023;
  b6:	f500 737e 	add.w	r3, r0, #1016	; 0x3f8
  ba:	3307      	adds	r3, #7
  bc:	b298      	uxth	r0, r3
C:\tien\PROJEKTY\procesory\STM\T104_V100a_GASTOP\sources/control.c:1056
                }

                if ( Arm_Window_Pos < Arms_Stop_Pos.Min_Pos1 )
  be:	495f      	ldr	r1, [pc, #380]	(23c <Forward_Move+0x23c>)
  c0:	4a5d      	ldr	r2, [pc, #372]	(238 <Forward_Move+0x238>)
  c2:	880b      	ldrh	r3, [r1, #0]
  c4:	8812      	ldrh	r2, [r2, #0]
  c6:	429a      	cmp	r2, r3
  c8:	d905      	bls.n	d6 <Forward_Move+0xd6>
C:\tien\PROJEKTY\procesory\STM\T104_V100a_GASTOP\sources/control.c:1058
                {
                    Arm_Window_Pos += 1023;
  ca:	880b      	ldrh	r3, [r1, #0]
  cc:	f503 737e 	add.w	r3, r3, #1016	; 0x3f8
  d0:	3307      	adds	r3, #7
  d2:	b29b      	uxth	r3, r3
  d4:	800b      	strh	r3, [r1, #0]
C:\tien\PROJEKTY\procesory\STM\T104_V100a_GASTOP\sources/control.c:1061
                }

                if ( (Arm_Window_Pos + Service_Variables.Serv_Vars.Serwis_006) >= Arm_Pos_Tmp3 )
  d6:	4959      	ldr	r1, [pc, #356]	(23c <Forward_Move+0x23c>)
  d8:	4a4d      	ldr	r2, [pc, #308]	(210 <Forward_Move+0x210>)
  da:	880b      	ldrh	r3, [r1, #0]
  dc:	8e92      	ldrh	r2, [r2, #52]
  de:	b29b      	uxth	r3, r3
  e0:	18d2      	adds	r2, r2, r3
  e2:	4282      	cmp	r2, r0
  e4:	4b53      	ldr	r3, [pc, #332]	(234 <Forward_Move+0x234>)
  e6:	db09      	blt.n	fc <Forward_Move+0xfc>
C:\tien\PROJEKTY\procesory\STM\T104_V100a_GASTOP\sources/control.c:1063
                {
                    Arm_Window_Pos = Arm_Pos;
  e8:	881b      	ldrh	r3, [r3, #0]
C:\tien\PROJEKTY\procesory\STM\T104_V100a_GASTOP\sources/control.c:1064
                    STOP_FWD_BCK_FLAG = FALSE;           
  ea:	2200      	movs	r2, #0
C:\tien\PROJEKTY\procesory\STM\T104_V100a_GASTOP\sources/control.c:1063
                    Arm_Window_Pos += 1023;
                }

                if ( (Arm_Window_Pos + Service_Variables.Serv_Vars.Serwis_006) >= Arm_Pos_Tmp3 )
                {
                    Arm_Window_Pos = Arm_Pos;
  ec:	b29b      	uxth	r3, r3
  ee:	800b      	strh	r3, [r1, #0]
C:\tien\PROJEKTY\procesory\STM\T104_V100a_GASTOP\sources/control.c:1064
                    STOP_FWD_BCK_FLAG = FALSE;           
  f0:	4b4b      	ldr	r3, [pc, #300]	(220 <Forward_Move+0x220>)
  f2:	765a      	strb	r2, [r3, #25]
C:\tien\PROJEKTY\procesory\STM\T104_V100a_GASTOP\sources/control.c:1065
                    Machine_State = ARM_STOP_FWD;
  f4:	4b4c      	ldr	r3, [pc, #304]	(228 <Forward_Move+0x228>)
  f6:	320d      	adds	r2, #13
  f8:	701a      	strb	r2, [r3, #0]
  fa:	e002      	b.n	102 <Forward_Move+0x102>
C:\tien\PROJEKTY\procesory\STM\T104_V100a_GASTOP\sources/control.c:1070
           
                }   
                else
                {
                    Arm_Window_Pos = Arm_Pos;
  fc:	881b      	ldrh	r3, [r3, #0]
  fe:	b29b      	uxth	r3, r3
 100:	800b      	strh	r3, [r1, #0]
C:\tien\PROJEKTY\procesory\STM\T104_V100a_GASTOP\sources/control.c:1073
                }

                System_Timer_Setting ( &Arm_Window_Timer.Timer, Service_Variables.Serv_Vars.Serwis_005, T_10msec );
 102:	4b43      	ldr	r3, [pc, #268]	(210 <Forward_Move+0x210>)
 104:	484a      	ldr	r0, [pc, #296]	(230 <Forward_Move+0x230>)
 106:	8e59      	ldrh	r1, [r3, #50]
 108:	2201      	movs	r2, #1
 10a:	f7ff fffe 	bl	0 <System_Timer_Setting>
 10e:	e07d      	b.n	20c <Forward_Move+0x20c>
C:\tien\PROJEKTY\procesory\STM\T104_V100a_GASTOP\sources/control.c:1080
        }

    }
    else//Inductive
    {
        if ( Inputs_Level & IND_SENSOR1  )
 110:	4b4b      	ldr	r3, [pc, #300]	(240 <Forward_Move+0x240>)
 112:	881b      	ldrh	r3, [r3, #0]
 114:	f013 0404 	ands.w	r4, r3, #4	; 0x4
 118:	d046      	beq.n	1a8 <Forward_Move+0x1a8>
C:\tien\PROJEKTY\procesory\STM\T104_V100a_GASTOP\sources/control.c:1082
        {
            if ( Controller_Variables.Controller_Vars.Sensor_Counter > (IND_OFFSET+Service_Variables.Serv_Vars.Serwis_021) )
 11a:	4b4a      	ldr	r3, [pc, #296]	(244 <Forward_Move+0x244>)
 11c:	791a      	ldrb	r2, [r3, #4]
 11e:	f8b5 3076 	ldrh.w	r3, [r5, #118]
 122:	3364      	adds	r3, #100
 124:	429a      	cmp	r2, r3
 126:	dd34      	ble.n	192 <Forward_Move+0x192>
C:\tien\PROJEKTY\procesory\STM\T104_V100a_GASTOP\sources/control.c:1084
            {
                Counters_Variables.Counters_Vars.No_Goin++;
 128:	4a3c      	ldr	r2, [pc, #240]	(21c <Forward_Move+0x21c>)
 12a:	6813      	ldr	r3, [r2, #0]
 12c:	3301      	adds	r3, #1
 12e:	6013      	str	r3, [r2, #0]
C:\tien\PROJEKTY\procesory\STM\T104_V100a_GASTOP\sources/control.c:1085
                Persons_Counter_Fwd--;
 130:	4a3b      	ldr	r2, [pc, #236]	(220 <Forward_Move+0x220>)
 132:	8813      	ldrh	r3, [r2, #0]
 134:	3b01      	subs	r3, #1
 136:	8013      	strh	r3, [r2, #0]
C:\tien\PROJEKTY\procesory\STM\T104_V100a_GASTOP\sources/control.c:1086
                Update_Counters();
 138:	f7ff fffe 	bl	0 <Update_Counters>
C:\tien\PROJEKTY\procesory\STM\T104_V100a_GASTOP\sources/control.c:1087
                Reload_Screen = TRUE;
 13c:	4b39      	ldr	r3, [pc, #228]	(224 <Forward_Move+0x224>)
 13e:	2201      	movs	r2, #1
 140:	701a      	strb	r2, [r3, #0]
C:\tien\PROJEKTY\procesory\STM\T104_V100a_GASTOP\sources/control.c:1089
            
                if ( Service_Variables.Serv_Vars.Standby_No_Brake == 0 )
 142:	f895 3063 	ldrb.w	r3, [r5, #99]
 146:	4938      	ldr	r1, [pc, #224]	(228 <Forward_Move+0x228>)
 148:	4838      	ldr	r0, [pc, #224]	(22c <Forward_Move+0x22c>)
 14a:	b933      	cbnz	r3, 15a <Forward_Move+0x15a>
C:\tien\PROJEKTY\procesory\STM\T104_V100a_GASTOP\sources/control.c:1091
                {
                    Machine_State = Control_Variables[Machine_State].Motor_Enc_Ptr->Next[1];
 14c:	780b      	ldrb	r3, [r1, #0]
 14e:	3213      	adds	r2, #19
 150:	fb02 0303 	mla	r3, r2, r3, r0
 154:	68db      	ldr	r3, [r3, #12]
 156:	795b      	ldrb	r3, [r3, #5]
 158:	e005      	b.n	166 <Forward_Move+0x166>
C:\tien\PROJEKTY\procesory\STM\T104_V100a_GASTOP\sources/control.c:1095
                }
                else
                {
                    Machine_State = Control_Variables[Machine_State].Motor_Enc_Ptr->Next[0];
 15a:	780b      	ldrb	r3, [r1, #0]
 15c:	2214      	movs	r2, #20
 15e:	fb02 0303 	mla	r3, r2, r3, r0
 162:	68db      	ldr	r3, [r3, #12]
 164:	791b      	ldrb	r3, [r3, #4]
 166:	700b      	strb	r3, [r1, #0]
C:\tien\PROJEKTY\procesory\STM\T104_V100a_GASTOP\sources/control.c:1098
                }
        
                System_Timer_Setting (  &Control_Variables[Machine_State].Time_Connection_Ptr->Tmr_Cntr_Ptr->Timer,
 168:	4b2f      	ldr	r3, [pc, #188]	(228 <Forward_Move+0x228>)
 16a:	4c30      	ldr	r4, [pc, #192]	(22c <Forward_Move+0x22c>)
 16c:	781a      	ldrb	r2, [r3, #0]
 16e:	7818      	ldrb	r0, [r3, #0]
 170:	2114      	movs	r1, #20
 172:	fb01 4000 	mla	r0, r1, r0, r4
 176:	781d      	ldrb	r5, [r3, #0]
 178:	fb01 4202 	mla	r2, r1, r2, r4
 17c:	fb01 4505 	mla	r5, r1, r5, r4
 180:	6883      	ldr	r3, [r0, #8]
 182:	6896      	ldr	r6, [r2, #8]
 184:	681a      	ldr	r2, [r3, #0]
 186:	68ab      	ldr	r3, [r5, #8]
 188:	8811      	ldrh	r1, [r2, #0]
 18a:	68b0      	ldr	r0, [r6, #8]
 18c:	791a      	ldrb	r2, [r3, #4]
 18e:	f7ff fffe 	bl	0 <System_Timer_Setting>
C:\tien\PROJEKTY\procesory\STM\T104_V100a_GASTOP\sources/control.c:1103
                                        *Control_Variables[Machine_State].Time_Connection_Ptr->Time_Value,
                                        Control_Variables[Machine_State].Time_Connection_Ptr->Resolution );
            }

            if ( System_Timer_Check ( &Arm_Window_Timer.Timer, T_10msec ) == TRUE )
 192:	2101      	movs	r1, #1
 194:	4826      	ldr	r0, [pc, #152]	(230 <Forward_Move+0x230>)
 196:	f7ff fffe 	bl	0 <System_Timer_Check>
 19a:	2801      	cmp	r0, #1
 19c:	4602      	mov	r2, r0
 19e:	d135      	bne.n	20c <Forward_Move+0x20c>
C:\tien\PROJEKTY\procesory\STM\T104_V100a_GASTOP\sources/control.c:1105
            {
                System_Timer_Setting ( &Arm_Window_Timer.Timer, Service_Variables.Serv_Vars.Serwis_005, T_10msec );
 1a0:	4b1b      	ldr	r3, [pc, #108]	(210 <Forward_Move+0x210>)
 1a2:	4823      	ldr	r0, [pc, #140]	(230 <Forward_Move+0x230>)
 1a4:	8e59      	ldrh	r1, [r3, #50]
 1a6:	e7b0      	b.n	10a <Forward_Move+0x10a>
C:\tien\PROJEKTY\procesory\STM\T104_V100a_GASTOP\sources/control.c:1110
            }      
        }
        else
        {
            if ( System_Timer_Check ( &Arm_Window_Timer.Timer, T_10msec ) == TRUE )
 1a8:	2101      	movs	r1, #1
 1aa:	4821      	ldr	r0, [pc, #132]	(230 <Forward_Move+0x230>)
 1ac:	f7ff fffe 	bl	0 <System_Timer_Check>
 1b0:	2801      	cmp	r0, #1
 1b2:	d110      	bne.n	1d6 <Forward_Move+0x1d6>
C:\tien\PROJEKTY\procesory\STM\T104_V100a_GASTOP\sources/control.c:1112
            {
                if ( Controller_Variables.Controller_Vars.Sensor_Counter_Copy >= Controller_Variables.Controller_Vars.Sensor_Counter )
 1b4:	4823      	ldr	r0, [pc, #140]	(244 <Forward_Move+0x244>)
 1b6:	7901      	ldrb	r1, [r0, #4]
 1b8:	7983      	ldrb	r3, [r0, #6]
 1ba:	428b      	cmp	r3, r1
 1bc:	d304      	bcc.n	1c8 <Forward_Move+0x1c8>
C:\tien\PROJEKTY\procesory\STM\T104_V100a_GASTOP\sources/control.c:1114
                {
                    STOP_FWD_BCK_FLAG = FALSE;           
 1be:	4b18      	ldr	r3, [pc, #96]	(220 <Forward_Move+0x220>)
C:\tien\PROJEKTY\procesory\STM\T104_V100a_GASTOP\sources/control.c:1115
                    Machine_State = ARM_STOP_FWD;
 1c0:	220d      	movs	r2, #13
C:\tien\PROJEKTY\procesory\STM\T104_V100a_GASTOP\sources/control.c:1114
        {
            if ( System_Timer_Check ( &Arm_Window_Timer.Timer, T_10msec ) == TRUE )
            {
                if ( Controller_Variables.Controller_Vars.Sensor_Counter_Copy >= Controller_Variables.Controller_Vars.Sensor_Counter )
                {
                    STOP_FWD_BCK_FLAG = FALSE;           
 1c2:	765c      	strb	r4, [r3, #25]
C:\tien\PROJEKTY\procesory\STM\T104_V100a_GASTOP\sources/control.c:1115
                    Machine_State = ARM_STOP_FWD;
 1c4:	4b18      	ldr	r3, [pc, #96]	(228 <Forward_Move+0x228>)
 1c6:	701a      	strb	r2, [r3, #0]
C:\tien\PROJEKTY\procesory\STM\T104_V100a_GASTOP\sources/control.c:1122
                }
                else
                {
                    Controller_Variables.Controller_Vars.Sensor_Counter_Copy = Controller_Variables.Controller_Vars.Sensor_Counter;                
                }
                System_Timer_Setting ( &Arm_Window_Timer.Timer, Service_Variables.Serv_Vars.Serwis_005, T_10msec );
 1c8:	4b11      	ldr	r3, [pc, #68]	(210 <Forward_Move+0x210>)
C:\tien\PROJEKTY\procesory\STM\T104_V100a_GASTOP\sources/control.c:1120
                    Machine_State = ARM_STOP_FWD;
                    Controller_Variables.Controller_Vars.Sensor_Counter_Copy = Controller_Variables.Controller_Vars.Sensor_Counter;            
                }
                else
                {
                    Controller_Variables.Controller_Vars.Sensor_Counter_Copy = Controller_Variables.Controller_Vars.Sensor_Counter;                
 1ca:	7181      	strb	r1, [r0, #6]
C:\tien\PROJEKTY\procesory\STM\T104_V100a_GASTOP\sources/control.c:1122
                }
                System_Timer_Setting ( &Arm_Window_Timer.Timer, Service_Variables.Serv_Vars.Serwis_005, T_10msec );
 1cc:	2201      	movs	r2, #1
 1ce:	4818      	ldr	r0, [pc, #96]	(230 <Forward_Move+0x230>)
 1d0:	8e59      	ldrh	r1, [r3, #50]
 1d2:	f7ff fffe 	bl	0 <System_Timer_Setting>
C:\tien\PROJEKTY\procesory\STM\T104_V100a_GASTOP\sources/control.c:1125
            }

            if ( Controller_Variables.Controller_Vars.Sensor_Direction_Detect != 1 )
 1d6:	491b      	ldr	r1, [pc, #108]	(244 <Forward_Move+0x244>)
 1d8:	79cb      	ldrb	r3, [r1, #7]
 1da:	2b01      	cmp	r3, #1
 1dc:	d00d      	beq.n	1fa <Forward_Move+0x1fa>
C:\tien\PROJEKTY\procesory\STM\T104_V100a_GASTOP\sources/control.c:1127
            {
                STOP_FWD_BCK_FLAG = FALSE;           
 1de:	4b10      	ldr	r3, [pc, #64]	(220 <Forward_Move+0x220>)
 1e0:	2200      	movs	r2, #0
 1e2:	765a      	strb	r2, [r3, #25]
C:\tien\PROJEKTY\procesory\STM\T104_V100a_GASTOP\sources/control.c:1128
                Machine_State = ARM_STOP_FWD;
 1e4:	4b10      	ldr	r3, [pc, #64]	(228 <Forward_Move+0x228>)
 1e6:	320d      	adds	r2, #13
 1e8:	701a      	strb	r2, [r3, #0]
C:\tien\PROJEKTY\procesory\STM\T104_V100a_GASTOP\sources/control.c:1129
                Controller_Variables.Controller_Vars.Sensor_Counter_Copy = Controller_Variables.Controller_Vars.Sensor_Counter;            
 1ea:	790b      	ldrb	r3, [r1, #4]
C:\tien\PROJEKTY\procesory\STM\T104_V100a_GASTOP\sources/control.c:1130
                System_Timer_Setting ( &Arm_Window_Timer.Timer, Service_Variables.Serv_Vars.Serwis_005, T_10msec );
 1ec:	4810      	ldr	r0, [pc, #64]	(230 <Forward_Move+0x230>)
C:\tien\PROJEKTY\procesory\STM\T104_V100a_GASTOP\sources/control.c:1129

            if ( Controller_Variables.Controller_Vars.Sensor_Direction_Detect != 1 )
            {
                STOP_FWD_BCK_FLAG = FALSE;           
                Machine_State = ARM_STOP_FWD;
                Controller_Variables.Controller_Vars.Sensor_Counter_Copy = Controller_Variables.Controller_Vars.Sensor_Counter;            
 1ee:	718b      	strb	r3, [r1, #6]
C:\tien\PROJEKTY\procesory\STM\T104_V100a_GASTOP\sources/control.c:1130
                System_Timer_Setting ( &Arm_Window_Timer.Timer, Service_Variables.Serv_Vars.Serwis_005, T_10msec );
 1f0:	4b07      	ldr	r3, [pc, #28]	(210 <Forward_Move+0x210>)
 1f2:	2201      	movs	r2, #1
 1f4:	8e59      	ldrh	r1, [r3, #50]
 1f6:	f7ff fffe 	bl	0 <System_Timer_Setting>
C:\tien\PROJEKTY\procesory\STM\T104_V100a_GASTOP\sources/control.c:1133
            }
        
            if ( System_Timer_Check ( &Transition_Timer.Timer, T_100msec ) == TRUE )
 1fa:	2102      	movs	r1, #2
 1fc:	4812      	ldr	r0, [pc, #72]	(248 <Forward_Move+0x248>)
 1fe:	f7ff fffe 	bl	0 <System_Timer_Check>
 202:	2801      	cmp	r0, #1
 204:	d102      	bne.n	20c <Forward_Move+0x20c>
C:\tien\PROJEKTY\procesory\STM\T104_V100a_GASTOP\sources/control.c:1135
            {
                Machine_State = GO_FORWARD;
 206:	4b08      	ldr	r3, [pc, #32]	(228 <Forward_Move+0x228>)
 208:	2227      	movs	r2, #39
 20a:	701a      	strb	r2, [r3, #0]
C:\tien\PROJEKTY\procesory\STM\T104_V100a_GASTOP\sources/control.c:1233
                }
            }
        }
    }
*/
}
 20c:	bd70      	pop	{r4, r5, r6, pc}
 20e:	46c0      	nop			(mov r8, r8)
	...
Disassembly of section .text.Control:

00000000 <Control>:
Control():
C:\tien\PROJEKTY\procesory\STM\T104_V100a_GASTOP\sources/control.c:370
* Input          : None
* Output         : None
* Return         : None
*******************************************************************************/
void Control ( void )
{
   0:	4887      	ldr	r0, [pc, #540]	(220 <Control+0x220>)
   2:	4988      	ldr	r1, [pc, #544]	(224 <Control+0x224>)
   4:	7803      	ldrb	r3, [r0, #0]
   6:	2214      	movs	r2, #20
   8:	fb02 1303 	mla	r3, r2, r3, r1
   c:	691b      	ldr	r3, [r3, #16]
   e:	b570      	push	{r4, r5, r6, lr}
C:\tien\PROJEKTY\procesory\STM\T104_V100a_GASTOP\sources/control.c:378
    static uint16_t Bolt_Fwd_Pwm;
    static uint16_t Bolt_Bck_Pwm;
    static uint16_t Coil_Pwm;

/*Keyboard handling */
    if ( Control_Variables[Machine_State].Keyboard_fun != NULL )
  10:	b123      	cbz	r3, 1c <Control+0x1c>
C:\tien\PROJEKTY\procesory\STM\T104_V100a_GASTOP\sources/control.c:380
    {
        (*Control_Variables[Machine_State].Keyboard_fun)();
  12:	7803      	ldrb	r3, [r0, #0]
  14:	fb02 1303 	mla	r3, r2, r3, r1
  18:	691b      	ldr	r3, [r3, #16]
  1a:	4798      	blx	r3
C:\tien\PROJEKTY\procesory\STM\T104_V100a_GASTOP\sources/control.c:383
    }

	if ( Control_Variables[Machine_State].Motor_Enc_Ptr != NULL )
  1c:	4880      	ldr	r0, [pc, #512]	(220 <Control+0x220>)
  1e:	4981      	ldr	r1, [pc, #516]	(224 <Control+0x224>)
  20:	7803      	ldrb	r3, [r0, #0]
  22:	2214      	movs	r2, #20
  24:	fb02 1303 	mla	r3, r2, r3, r1
  28:	68db      	ldr	r3, [r3, #12]
  2a:	b15b      	cbz	r3, 44 <Control+0x44>
C:\tien\PROJEKTY\procesory\STM\T104_V100a_GASTOP\sources/control.c:385
	{
		if ( ( Control_Variables[Machine_State].Motor_Enc_Ptr->Encoder_fun) != NULL )
  2c:	7803      	ldrb	r3, [r0, #0]
  2e:	fb02 1303 	mla	r3, r2, r3, r1
  32:	68db      	ldr	r3, [r3, #12]
  34:	681b      	ldr	r3, [r3, #0]
  36:	b12b      	cbz	r3, 44 <Control+0x44>
C:\tien\PROJEKTY\procesory\STM\T104_V100a_GASTOP\sources/control.c:387
		{
			(*Control_Variables[Machine_State].Motor_Enc_Ptr->Encoder_fun)();
  38:	7803      	ldrb	r3, [r0, #0]
  3a:	fb02 1303 	mla	r3, r2, r3, r1
  3e:	68db      	ldr	r3, [r3, #12]
  40:	681b      	ldr	r3, [r3, #0]
  42:	4798      	blx	r3
C:\tien\PROJEKTY\procesory\STM\T104_V100a_GASTOP\sources/control.c:392
		}
	}

/* System timer handling - wait for arm mow to enter gate */
    if ( Control_Variables[Machine_State].Time_Connection_Ptr != NULL )
  44:	4e76      	ldr	r6, [pc, #472]	(220 <Control+0x220>)
  46:	4d77      	ldr	r5, [pc, #476]	(224 <Control+0x224>)
  48:	7833      	ldrb	r3, [r6, #0]
  4a:	2414      	movs	r4, #20
  4c:	fb04 5303 	mla	r3, r4, r3, r5
  50:	689b      	ldr	r3, [r3, #8]
  52:	b19b      	cbz	r3, 7c <Control+0x7c>
C:\tien\PROJEKTY\procesory\STM\T104_V100a_GASTOP\sources/control.c:394
    {
		if ( System_Timer_Check ( &Control_Variables[Machine_State].Time_Connection_Ptr->Tmr_Cntr_Ptr->Timer,
  54:	7833      	ldrb	r3, [r6, #0]
  56:	7832      	ldrb	r2, [r6, #0]
  58:	fb04 5303 	mla	r3, r4, r3, r5
  5c:	fb04 5202 	mla	r2, r4, r2, r5
  60:	6899      	ldr	r1, [r3, #8]
  62:	6893      	ldr	r3, [r2, #8]
  64:	6888      	ldr	r0, [r1, #8]
  66:	7919      	ldrb	r1, [r3, #4]
  68:	f7ff fffe 	bl	0 <System_Timer_Check>
  6c:	2801      	cmp	r0, #1
  6e:	d105      	bne.n	7c <Control+0x7c>
C:\tien\PROJEKTY\procesory\STM\T104_V100a_GASTOP\sources/control.c:397
							       Control_Variables[Machine_State].Time_Connection_Ptr->Resolution ) == TRUE )
		{
			Machine_State = Control_Variables[Machine_State].Time_Connection_Ptr->Next;
  70:	7833      	ldrb	r3, [r6, #0]
  72:	fb04 5303 	mla	r3, r4, r3, r5
  76:	689b      	ldr	r3, [r3, #8]
  78:	795b      	ldrb	r3, [r3, #5]
  7a:	7033      	strb	r3, [r6, #0]
C:\tien\PROJEKTY\procesory\STM\T104_V100a_GASTOP\sources/control.c:402
		}
	}

/*Pictogram controlling*/
	if ( System_Timer_Check ( &Pulse_Leds_Timer.Timer, T_10msec ) == TRUE )
  7c:	2101      	movs	r1, #1
  7e:	486a      	ldr	r0, [pc, #424]	(228 <Control+0x228>)
  80:	f7ff fffe 	bl	0 <System_Timer_Check>
  84:	2801      	cmp	r0, #1
  86:	d10c      	bne.n	a2 <Control+0xa2>
C:\tien\PROJEKTY\procesory\STM\T104_V100a_GASTOP\sources/control.c:404
	{
		if ( PULSE_ON == TRUE )
  88:	4a68      	ldr	r2, [pc, #416]	(22c <Control+0x22c>)
  8a:	7813      	ldrb	r3, [r2, #0]
  8c:	2b01      	cmp	r3, #1
  8e:	d102      	bne.n	96 <Control+0x96>
C:\tien\PROJEKTY\procesory\STM\T104_V100a_GASTOP\sources/control.c:406
		{
			PULSE_ON = FALSE;
  90:	3b01      	subs	r3, #1
  92:	7013      	strb	r3, [r2, #0]
  94:	e000      	b.n	98 <Control+0x98>
C:\tien\PROJEKTY\procesory\STM\T104_V100a_GASTOP\sources/control.c:410
		}
		else
		{
			PULSE_ON = TRUE;
  96:	7010      	strb	r0, [r2, #0]
C:\tien\PROJEKTY\procesory\STM\T104_V100a_GASTOP\sources/control.c:412
		}
		System_Timer_Setting ( &Pulse_Leds_Timer.Timer, TIME_05_SEC, T_10msec );
  98:	4863      	ldr	r0, [pc, #396]	(228 <Control+0x228>)
  9a:	2132      	movs	r1, #50
  9c:	2201      	movs	r2, #1
  9e:	f7ff fffe 	bl	0 <System_Timer_Setting>
C:\tien\PROJEKTY\procesory\STM\T104_V100a_GASTOP\sources/control.c:415
	}

if ( Machine_State != MANUAL_TEST )
  a2:	495f      	ldr	r1, [pc, #380]	(220 <Control+0x220>)
  a4:	780b      	ldrb	r3, [r1, #0]
  a6:	2b29      	cmp	r3, #41
  a8:	f000 8258 	beq.w	55c <Control+0x55c>
C:\tien\PROJEKTY\procesory\STM\T104_V100a_GASTOP\sources/control.c:417
{
	if ( Control_Variables[Machine_State].Pictogram_Status == LEDS_OFF )
  ac:	780b      	ldrb	r3, [r1, #0]
  ae:	2214      	movs	r2, #20
  b0:	4353      	muls	r3, r2
  b2:	485c      	ldr	r0, [pc, #368]	(224 <Control+0x224>)
  b4:	5cc3      	ldrb	r3, [r0, r3]
  b6:	2b00      	cmp	r3, #0
  b8:	f000 808f 	beq.w	1da <Control+0x1da>
C:\tien\PROJEKTY\procesory\STM\T104_V100a_GASTOP\sources/control.c:424
        GPIO_SetBits(PORT_LED_RED_FWD, PIN_LED_RED_FWD);
        GPIO_ResetBits(PORT_LED_GRN_FWD, PIN_LED_GRN_FWD );
        GPIO_SetBits(PORT_LED_RED_BCK, PIN_LED_RED_BCK);
        GPIO_ResetBits(PORT_LED_GRN_BCK, PIN_LED_GRN_BCK );
   	}
	else if ( Control_Variables[Machine_State].Pictogram_Status == LEDS_FORWARD )
  bc:	780b      	ldrb	r3, [r1, #0]
  be:	4353      	muls	r3, r2
  c0:	5cc3      	ldrb	r3, [r0, r3]
  c2:	2b01      	cmp	r3, #1
  c4:	d025      	beq.n	112 <Control+0x112>
C:\tien\PROJEKTY\procesory\STM\T104_V100a_GASTOP\sources/control.c:431
        GPIO_ResetBits(PORT_LED_RED_FWD, PIN_LED_RED_FWD);
        GPIO_SetBits(PORT_LED_GRN_FWD, PIN_LED_GRN_FWD );
        GPIO_SetBits(PORT_LED_RED_BCK, PIN_LED_RED_BCK);
        GPIO_ResetBits(PORT_LED_GRN_BCK, PIN_LED_GRN_BCK );
	}
	else if ( Control_Variables[Machine_State].Pictogram_Status == LEDS_BACKWORDS )
  c6:	780b      	ldrb	r3, [r1, #0]
  c8:	4353      	muls	r3, r2
  ca:	5cc3      	ldrb	r3, [r0, r3]
  cc:	2b02      	cmp	r3, #2
  ce:	d042      	beq.n	156 <Control+0x156>
C:\tien\PROJEKTY\procesory\STM\T104_V100a_GASTOP\sources/control.c:438
        GPIO_SetBits(PORT_LED_RED_FWD, PIN_LED_RED_FWD);
        GPIO_ResetBits(PORT_LED_GRN_FWD, PIN_LED_GRN_FWD );
        GPIO_ResetBits(PORT_LED_RED_BCK, PIN_LED_RED_BCK);
        GPIO_SetBits(PORT_LED_GRN_BCK, PIN_LED_GRN_BCK );
	}
	else if ( Control_Variables[Machine_State].Pictogram_Status == LEDS_ON )
  d0:	780b      	ldrb	r3, [r1, #0]
  d2:	4353      	muls	r3, r2
  d4:	5cc3      	ldrb	r3, [r0, r3]
  d6:	2b03      	cmp	r3, #3
  d8:	d067      	beq.n	1aa <Control+0x1aa>
C:\tien\PROJEKTY\procesory\STM\T104_V100a_GASTOP\sources/control.c:445
        GPIO_ResetBits(PORT_LED_RED_FWD, PIN_LED_RED_FWD);
        GPIO_SetBits(PORT_LED_GRN_FWD, PIN_LED_GRN_FWD );
        GPIO_ResetBits(PORT_LED_RED_BCK, PIN_LED_RED_BCK);
        GPIO_SetBits(PORT_LED_GRN_BCK, PIN_LED_GRN_BCK );
	}
	else if ( Control_Variables[Machine_State].Pictogram_Status == LEDS_ALL )
  da:	780b      	ldrb	r3, [r1, #0]
  dc:	4353      	muls	r3, r2
  de:	5cc4      	ldrb	r4, [r0, r3]
  e0:	2c04      	cmp	r4, #4
  e2:	d107      	bne.n	f4 <Control+0xf4>
C:\tien\PROJEKTY\procesory\STM\T104_V100a_GASTOP\sources/control.c:447
	{
        GPIO_SetBits(PORT_LED_RED_FWD, PIN_LED_RED_FWD);
  e4:	4852      	ldr	r0, [pc, #328]	(230 <Control+0x230>)
  e6:	f44f 4100 	mov.w	r1, #32768	; 0x8000
  ea:	f7ff fffe 	bl	0 <GPIO_SetBits>
C:\tien\PROJEKTY\procesory\STM\T104_V100a_GASTOP\sources/control.c:448
        GPIO_SetBits(PORT_LED_GRN_FWD, PIN_LED_GRN_FWD );
  ee:	4851      	ldr	r0, [pc, #324]	(234 <Control+0x234>)
  f0:	4621      	mov	r1, r4
  f2:	e088      	b.n	206 <Control+0x206>
C:\tien\PROJEKTY\procesory\STM\T104_V100a_GASTOP\sources/control.c:452
        GPIO_SetBits(PORT_LED_RED_BCK, PIN_LED_RED_BCK);
        GPIO_SetBits(PORT_LED_GRN_BCK, PIN_LED_GRN_BCK );
	}
	else if ( Control_Variables[Machine_State].Pictogram_Status == LEDS_BLANK )
  f4:	780b      	ldrb	r3, [r1, #0]
  f6:	4353      	muls	r3, r2
  f8:	5cc3      	ldrb	r3, [r0, r3]
  fa:	2b05      	cmp	r3, #5
  fc:	f000 809c 	beq.w	238 <Control+0x238>
C:\tien\PROJEKTY\procesory\STM\T104_V100a_GASTOP\sources/control.c:460
        GPIO_ResetBits(PORT_LED_GRN_FWD, PIN_LED_GRN_FWD );
        GPIO_ResetBits(PORT_LED_RED_BCK, PIN_LED_RED_BCK);
        GPIO_ResetBits(PORT_LED_GRN_BCK, PIN_LED_GRN_BCK );
	}

	else if ( Control_Variables[Machine_State].Pictogram_Status == LEDS_PULSE_GREEN_FWD )
 100:	780b      	ldrb	r3, [r1, #0]
 102:	4353      	muls	r3, r2
 104:	5cc3      	ldrb	r3, [r0, r3]
 106:	2b06      	cmp	r3, #6
 108:	d11c      	bne.n	144 <Control+0x144>
C:\tien\PROJEKTY\procesory\STM\T104_V100a_GASTOP\sources/control.c:462
	{
		if ( PULSE_ON == TRUE )
 10a:	4b48      	ldr	r3, [pc, #288]	(22c <Control+0x22c>)
 10c:	781b      	ldrb	r3, [r3, #0]
 10e:	2b01      	cmp	r3, #1
 110:	d109      	bne.n	126 <Control+0x126>
C:\tien\PROJEKTY\procesory\STM\T104_V100a_GASTOP\sources/control.c:464
		{
            GPIO_ResetBits(PORT_LED_RED_FWD, PIN_LED_RED_FWD);
 112:	4847      	ldr	r0, [pc, #284]	(230 <Control+0x230>)
 114:	f44f 4100 	mov.w	r1, #32768	; 0x8000
 118:	f7ff fffe 	bl	0 <GPIO_ResetBits>
C:\tien\PROJEKTY\procesory\STM\T104_V100a_GASTOP\sources/control.c:465
            GPIO_SetBits(PORT_LED_GRN_FWD, PIN_LED_GRN_FWD );
 11c:	4845      	ldr	r0, [pc, #276]	(234 <Control+0x234>)
 11e:	2104      	movs	r1, #4
 120:	f7ff fffe 	bl	0 <GPIO_SetBits>
 124:	e008      	b.n	138 <Control+0x138>
C:\tien\PROJEKTY\procesory\STM\T104_V100a_GASTOP\sources/control.c:471
            GPIO_SetBits(PORT_LED_RED_BCK, PIN_LED_RED_BCK);
            GPIO_ResetBits(PORT_LED_GRN_BCK, PIN_LED_GRN_BCK );
		}
		else
		{
            GPIO_ResetBits(PORT_LED_RED_FWD, PIN_LED_RED_FWD);
 126:	4842      	ldr	r0, [pc, #264]	(230 <Control+0x230>)
 128:	f44f 4100 	mov.w	r1, #32768	; 0x8000
 12c:	f7ff fffe 	bl	0 <GPIO_ResetBits>
C:\tien\PROJEKTY\procesory\STM\T104_V100a_GASTOP\sources/control.c:472
            GPIO_ResetBits(PORT_LED_GRN_FWD, PIN_LED_GRN_FWD );
 130:	4840      	ldr	r0, [pc, #256]	(234 <Control+0x234>)
 132:	2104      	movs	r1, #4
 134:	f7ff fffe 	bl	0 <GPIO_ResetBits>
C:\tien\PROJEKTY\procesory\STM\T104_V100a_GASTOP\sources/control.c:473
            GPIO_SetBits(PORT_LED_RED_BCK, PIN_LED_RED_BCK);
 138:	483e      	ldr	r0, [pc, #248]	(234 <Control+0x234>)
 13a:	f44f 6180 	mov.w	r1, #1024	; 0x400
 13e:	f7ff fffe 	bl	0 <GPIO_SetBits>
 142:	e087      	b.n	254 <Control+0x254>
C:\tien\PROJEKTY\procesory\STM\T104_V100a_GASTOP\sources/control.c:477
            GPIO_ResetBits(PORT_LED_GRN_BCK, PIN_LED_GRN_BCK );
		}
	}
	else if ( Control_Variables[Machine_State].Pictogram_Status == LEDS_PULSE_GREEN_BCK )
 144:	780b      	ldrb	r3, [r1, #0]
 146:	4353      	muls	r3, r2
 148:	5cc3      	ldrb	r3, [r0, r3]
 14a:	2b07      	cmp	r3, #7
 14c:	d10d      	bne.n	16a <Control+0x16a>
C:\tien\PROJEKTY\procesory\STM\T104_V100a_GASTOP\sources/control.c:479
	{
		if ( PULSE_ON == TRUE )
 14e:	4b37      	ldr	r3, [pc, #220]	(22c <Control+0x22c>)
 150:	781b      	ldrb	r3, [r3, #0]
 152:	2b01      	cmp	r3, #1
 154:	d11a      	bne.n	18c <Control+0x18c>
C:\tien\PROJEKTY\procesory\STM\T104_V100a_GASTOP\sources/control.c:481
		{
            GPIO_SetBits(PORT_LED_RED_FWD, PIN_LED_RED_FWD);
 156:	4836      	ldr	r0, [pc, #216]	(230 <Control+0x230>)
 158:	f44f 4100 	mov.w	r1, #32768	; 0x8000
 15c:	f7ff fffe 	bl	0 <GPIO_SetBits>
C:\tien\PROJEKTY\procesory\STM\T104_V100a_GASTOP\sources/control.c:482
            GPIO_ResetBits(PORT_LED_GRN_FWD, PIN_LED_GRN_FWD );
 160:	4834      	ldr	r0, [pc, #208]	(234 <Control+0x234>)
 162:	2104      	movs	r1, #4
 164:	f7ff fffe 	bl	0 <GPIO_ResetBits>
 168:	e028      	b.n	1bc <Control+0x1bc>
C:\tien\PROJEKTY\procesory\STM\T104_V100a_GASTOP\sources/control.c:494
            GPIO_ResetBits(PORT_LED_GRN_FWD, PIN_LED_GRN_FWD );
            GPIO_ResetBits(PORT_LED_RED_BCK, PIN_LED_RED_BCK);
            GPIO_ResetBits(PORT_LED_GRN_BCK, PIN_LED_GRN_BCK );
		}
	}
	else if ( Control_Variables[Machine_State].Pictogram_Status == LEDS_PULSE_RED_FWD )
 16a:	780b      	ldrb	r3, [r1, #0]
 16c:	4353      	muls	r3, r2
 16e:	5cc3      	ldrb	r3, [r0, r3]
 170:	2b08      	cmp	r3, #8
 172:	d007      	beq.n	184 <Control+0x184>
C:\tien\PROJEKTY\procesory\STM\T104_V100a_GASTOP\sources/control.c:511
            GPIO_ResetBits(PORT_LED_GRN_FWD, PIN_LED_GRN_FWD );
            GPIO_ResetBits(PORT_LED_RED_BCK, PIN_LED_RED_BCK);
            GPIO_ResetBits(PORT_LED_GRN_BCK, PIN_LED_GRN_BCK );
		}
	}
	else if ( Control_Variables[Machine_State].Pictogram_Status == LEDS_PULSE_RED_BCK )
 174:	492a      	ldr	r1, [pc, #168]	(220 <Control+0x220>)
 176:	2214      	movs	r2, #20
 178:	780b      	ldrb	r3, [r1, #0]
 17a:	482a      	ldr	r0, [pc, #168]	(224 <Control+0x224>)
 17c:	4353      	muls	r3, r2
 17e:	5cc3      	ldrb	r3, [r0, r3]
 180:	2b09      	cmp	r3, #9
 182:	d109      	bne.n	198 <Control+0x198>
C:\tien\PROJEKTY\procesory\STM\T104_V100a_GASTOP\sources/control.c:513
	{
		if ( PULSE_ON == TRUE )
 184:	4b29      	ldr	r3, [pc, #164]	(22c <Control+0x22c>)
 186:	781b      	ldrb	r3, [r3, #0]
 188:	2b01      	cmp	r3, #1
 18a:	d026      	beq.n	1da <Control+0x1da>
C:\tien\PROJEKTY\procesory\STM\T104_V100a_GASTOP\sources/control.c:522
            GPIO_SetBits(PORT_LED_RED_BCK, PIN_LED_RED_BCK);
            GPIO_ResetBits(PORT_LED_GRN_BCK, PIN_LED_GRN_BCK );
		}
		else
		{
            GPIO_SetBits(PORT_LED_RED_FWD, PIN_LED_RED_FWD);
 18c:	4828      	ldr	r0, [pc, #160]	(230 <Control+0x230>)
 18e:	f44f 4100 	mov.w	r1, #32768	; 0x8000
 192:	f7ff fffe 	bl	0 <GPIO_SetBits>
 196:	e054      	b.n	242 <Control+0x242>
C:\tien\PROJEKTY\procesory\STM\T104_V100a_GASTOP\sources/control.c:528
            GPIO_ResetBits(PORT_LED_GRN_FWD, PIN_LED_GRN_FWD );
            GPIO_ResetBits(PORT_LED_RED_BCK, PIN_LED_RED_BCK);
            GPIO_ResetBits(PORT_LED_GRN_BCK, PIN_LED_GRN_BCK );
		}
	}
	else if ( Control_Variables[Machine_State].Pictogram_Status == LEDS_PULSE_GREEN )
 198:	780b      	ldrb	r3, [r1, #0]
 19a:	4353      	muls	r3, r2
 19c:	5cc3      	ldrb	r3, [r0, r3]
 19e:	2b0a      	cmp	r3, #10
 1a0:	d112      	bne.n	1c8 <Control+0x1c8>
C:\tien\PROJEKTY\procesory\STM\T104_V100a_GASTOP\sources/control.c:530
	{
		if ( PULSE_ON == TRUE )
 1a2:	4b22      	ldr	r3, [pc, #136]	(22c <Control+0x22c>)
 1a4:	781b      	ldrb	r3, [r3, #0]
 1a6:	2b01      	cmp	r3, #1
 1a8:	d146      	bne.n	238 <Control+0x238>
C:\tien\PROJEKTY\procesory\STM\T104_V100a_GASTOP\sources/control.c:532
		{
            GPIO_ResetBits(PORT_LED_RED_FWD, PIN_LED_RED_FWD);
 1aa:	4821      	ldr	r0, [pc, #132]	(230 <Control+0x230>)
 1ac:	f44f 4100 	mov.w	r1, #32768	; 0x8000
 1b0:	f7ff fffe 	bl	0 <GPIO_ResetBits>
C:\tien\PROJEKTY\procesory\STM\T104_V100a_GASTOP\sources/control.c:533
            GPIO_SetBits(PORT_LED_GRN_FWD, PIN_LED_GRN_FWD );
 1b4:	481f      	ldr	r0, [pc, #124]	(234 <Control+0x234>)
 1b6:	2104      	movs	r1, #4
 1b8:	f7ff fffe 	bl	0 <GPIO_SetBits>
C:\tien\PROJEKTY\procesory\STM\T104_V100a_GASTOP\sources/control.c:534
            GPIO_ResetBits(PORT_LED_RED_BCK, PIN_LED_RED_BCK);
 1bc:	481d      	ldr	r0, [pc, #116]	(234 <Control+0x234>)
 1be:	f44f 6180 	mov.w	r1, #1024	; 0x400
 1c2:	f7ff fffe 	bl	0 <GPIO_ResetBits>
 1c6:	e025      	b.n	214 <Control+0x214>
C:\tien\PROJEKTY\procesory\STM\T104_V100a_GASTOP\sources/control.c:545
            GPIO_ResetBits(PORT_LED_GRN_FWD, PIN_LED_GRN_FWD );
            GPIO_ResetBits(PORT_LED_RED_BCK, PIN_LED_RED_BCK);
            GPIO_ResetBits(PORT_LED_GRN_BCK, PIN_LED_GRN_BCK );
		}
	}
	else if ( Control_Variables[Machine_State].Pictogram_Status == LEDS_PULSE_RED )
 1c8:	780b      	ldrb	r3, [r1, #0]
 1ca:	4353      	muls	r3, r2
 1cc:	5cc3      	ldrb	r3, [r0, r3]
 1ce:	2b0b      	cmp	r3, #11
 1d0:	d109      	bne.n	1e6 <Control+0x1e6>
C:\tien\PROJEKTY\procesory\STM\T104_V100a_GASTOP\sources/control.c:547
	{
		if ( PULSE_ON == TRUE )
 1d2:	4b16      	ldr	r3, [pc, #88]	(22c <Control+0x22c>)
 1d4:	781b      	ldrb	r3, [r3, #0]
 1d6:	2b01      	cmp	r3, #1
 1d8:	d12e      	bne.n	238 <Control+0x238>
C:\tien\PROJEKTY\procesory\STM\T104_V100a_GASTOP\sources/control.c:549
		{
            GPIO_SetBits(PORT_LED_RED_FWD, PIN_LED_RED_FWD);
 1da:	4815      	ldr	r0, [pc, #84]	(230 <Control+0x230>)
 1dc:	f44f 4100 	mov.w	r1, #32768	; 0x8000
 1e0:	f7ff fffe 	bl	0 <GPIO_SetBits>
 1e4:	e7a4      	b.n	130 <Control+0x130>
C:\tien\PROJEKTY\procesory\STM\T104_V100a_GASTOP\sources/control.c:562
            GPIO_ResetBits(PORT_LED_GRN_FWD, PIN_LED_GRN_FWD );
            GPIO_ResetBits(PORT_LED_RED_BCK, PIN_LED_RED_BCK);
            GPIO_ResetBits(PORT_LED_GRN_BCK, PIN_LED_GRN_BCK );
		}
	}
	else if ( Control_Variables[Machine_State].Pictogram_Status == LEDS_PULSE_ALL )
 1e6:	780b      	ldrb	r3, [r1, #0]
 1e8:	4353      	muls	r3, r2
 1ea:	5cc3      	ldrb	r3, [r0, r3]
 1ec:	2b0c      	cmp	r3, #12
 1ee:	d135      	bne.n	25c <Control+0x25c>
C:\tien\PROJEKTY\procesory\STM\T104_V100a_GASTOP\sources/control.c:564
	{
		if ( PULSE_ON == TRUE )
 1f0:	4b0e      	ldr	r3, [pc, #56]	(22c <Control+0x22c>)
 1f2:	781b      	ldrb	r3, [r3, #0]
 1f4:	2b01      	cmp	r3, #1
 1f6:	d11f      	bne.n	238 <Control+0x238>
C:\tien\PROJEKTY\procesory\STM\T104_V100a_GASTOP\sources/control.c:566
		{
            GPIO_SetBits(PORT_LED_RED_FWD, PIN_LED_RED_FWD);
 1f8:	480d      	ldr	r0, [pc, #52]	(230 <Control+0x230>)
 1fa:	f44f 4100 	mov.w	r1, #32768	; 0x8000
 1fe:	f7ff fffe 	bl	0 <GPIO_SetBits>
C:\tien\PROJEKTY\procesory\STM\T104_V100a_GASTOP\sources/control.c:567
            GPIO_SetBits(PORT_LED_GRN_FWD, PIN_LED_GRN_FWD );
 202:	480c      	ldr	r0, [pc, #48]	(234 <Control+0x234>)
 204:	2104      	movs	r1, #4
 206:	f7ff fffe 	bl	0 <GPIO_SetBits>
C:\tien\PROJEKTY\procesory\STM\T104_V100a_GASTOP\sources/control.c:568
            GPIO_SetBits(PORT_LED_RED_BCK, PIN_LED_RED_BCK);
 20a:	480a      	ldr	r0, [pc, #40]	(234 <Control+0x234>)
 20c:	f44f 6180 	mov.w	r1, #1024	; 0x400
 210:	f7ff fffe 	bl	0 <GPIO_SetBits>
C:\tien\PROJEKTY\procesory\STM\T104_V100a_GASTOP\sources/control.c:569
            GPIO_SetBits(PORT_LED_GRN_BCK, PIN_LED_GRN_BCK );
 214:	4807      	ldr	r0, [pc, #28]	(234 <Control+0x234>)
 216:	2108      	movs	r1, #8
 218:	f7ff fffe 	bl	0 <GPIO_SetBits>
 21c:	e01e      	b.n	25c <Control+0x25c>
 21e:	46c0      	nop			(mov r8, r8)
	...
 230:	40010800 	.word	0x40010800
 234:	40010c00 	.word	0x40010c00
C:\tien\PROJEKTY\procesory\STM\T104_V100a_GASTOP\sources/control.c:573
		}
		else
		{
            GPIO_ResetBits(PORT_LED_RED_FWD, PIN_LED_RED_FWD);
 238:	4887      	ldr	r0, [pc, #540]	(458 <Control+0x458>)
 23a:	f44f 4100 	mov.w	r1, #32768	; 0x8000
 23e:	f7ff fffe 	bl	0 <GPIO_ResetBits>
C:\tien\PROJEKTY\procesory\STM\T104_V100a_GASTOP\sources/control.c:574
            GPIO_ResetBits(PORT_LED_GRN_FWD, PIN_LED_GRN_FWD );
 242:	4886      	ldr	r0, [pc, #536]	(45c <Control+0x45c>)
 244:	2104      	movs	r1, #4
 246:	f7ff fffe 	bl	0 <GPIO_ResetBits>
C:\tien\PROJEKTY\procesory\STM\T104_V100a_GASTOP\sources/control.c:575
            GPIO_ResetBits(PORT_LED_RED_BCK, PIN_LED_RED_BCK);
 24a:	4884      	ldr	r0, [pc, #528]	(45c <Control+0x45c>)
 24c:	f44f 6180 	mov.w	r1, #1024	; 0x400
 250:	f7ff fffe 	bl	0 <GPIO_ResetBits>
C:\tien\PROJEKTY\procesory\STM\T104_V100a_GASTOP\sources/control.c:576
            GPIO_ResetBits(PORT_LED_GRN_BCK, PIN_LED_GRN_BCK );
 254:	4881      	ldr	r0, [pc, #516]	(45c <Control+0x45c>)
 256:	2108      	movs	r1, #8
 258:	f7ff fffe 	bl	0 <GPIO_ResetBits>
C:\tien\PROJEKTY\procesory\STM\T104_V100a_GASTOP\sources/control.c:582
		}
	}
/* End of pictogram handling */

/*Motor control*/
    if ( Service_Variables.Serv_Vars.Motor_On_Off == 0 )
 25c:	4880      	ldr	r0, [pc, #512]	(460 <Control+0x460>)
 25e:	f890 104e 	ldrb.w	r1, [r0, #78]
 262:	2900      	cmp	r1, #0
 264:	d17a      	bne.n	35c <Control+0x35c>
C:\tien\PROJEKTY\procesory\STM\T104_V100a_GASTOP\sources/control.c:584
    {
        if ( Control_Variables[Machine_State].Outputs_Status_Ptr->Motor == TRUE )
 266:	4d7f      	ldr	r5, [pc, #508]	(464 <Control+0x464>)
 268:	4c7f      	ldr	r4, [pc, #508]	(468 <Control+0x468>)
 26a:	782b      	ldrb	r3, [r5, #0]
 26c:	2214      	movs	r2, #20
 26e:	fb02 4303 	mla	r3, r2, r3, r4
 272:	685b      	ldr	r3, [r3, #4]
 274:	781b      	ldrb	r3, [r3, #0]
 276:	2b01      	cmp	r3, #1
 278:	d16e      	bne.n	358 <Control+0x358>
C:\tien\PROJEKTY\procesory\STM\T104_V100a_GASTOP\sources/control.c:586
        {
            Arm_Pos_Tmp = Arm_Pos;
 27a:	4b7c      	ldr	r3, [pc, #496]	(46c <Control+0x46c>)
 27c:	497c      	ldr	r1, [pc, #496]	(470 <Control+0x470>)
 27e:	881b      	ldrh	r3, [r3, #0]
 280:	b29b      	uxth	r3, r3
 282:	800b      	strh	r3, [r1, #0]
C:\tien\PROJEKTY\procesory\STM\T104_V100a_GASTOP\sources/control.c:588

            if ( Control_Variables[Machine_State].Outputs_Status_Ptr->Motor_Direction == FORWARD )
 284:	782b      	ldrb	r3, [r5, #0]
 286:	fb02 4303 	mla	r3, r2, r3, r4
 28a:	685b      	ldr	r3, [r3, #4]
 28c:	f890 206d 	ldrb.w	r2, [r0, #109]
 290:	791b      	ldrb	r3, [r3, #4]
 292:	2b00      	cmp	r3, #0
 294:	d12a      	bne.n	2ec <Control+0x2ec>
C:\tien\PROJEKTY\procesory\STM\T104_V100a_GASTOP\sources/control.c:590
            {
                if ( Service_Variables.Serv_Vars.Sensor_Type == 0 )//ENKODER
 296:	b9fa      	cbnz	r2, 2d8 <Control+0x2d8>
C:\tien\PROJEKTY\procesory\STM\T104_V100a_GASTOP\sources/control.c:592
                {
                    if ( Arm_Pos_Tmp > Arms_Stop_Pos.Max_Pos4 )
 298:	4a76      	ldr	r2, [pc, #472]	(474 <Control+0x474>)
 29a:	880b      	ldrh	r3, [r1, #0]
 29c:	89d2      	ldrh	r2, [r2, #14]
 29e:	429a      	cmp	r2, r3
 2a0:	d205      	bcs.n	2ae <Control+0x2ae>
C:\tien\PROJEKTY\procesory\STM\T104_V100a_GASTOP\sources/control.c:594
                    {
                        Arm_Pos_Tmp -= 1023;
 2a2:	880b      	ldrh	r3, [r1, #0]
 2a4:	f5a3 737e 	sub.w	r3, r3, #1016	; 0x3f8
 2a8:	3b07      	subs	r3, #7
 2aa:	b29b      	uxth	r3, r3
 2ac:	800b      	strh	r3, [r1, #0]
C:\tien\PROJEKTY\procesory\STM\T104_V100a_GASTOP\sources/control.c:597
                    }
        
                    if ( (Arm_Pos_Tmp > Min_Pos_Tmp - Service_Variables.Serv_Vars.Serwis_009) && (Arm_Pos_Tmp < Min_Pos_Tmp) )
 2ae:	4c70      	ldr	r4, [pc, #448]	(470 <Control+0x470>)
 2b0:	4871      	ldr	r0, [pc, #452]	(478 <Control+0x478>)
 2b2:	4a6b      	ldr	r2, [pc, #428]	(460 <Control+0x460>)
 2b4:	8821      	ldrh	r1, [r4, #0]
 2b6:	8803      	ldrh	r3, [r0, #0]
 2b8:	8f52      	ldrh	r2, [r2, #58]
 2ba:	b29b      	uxth	r3, r3
 2bc:	b289      	uxth	r1, r1
 2be:	1a9b      	subs	r3, r3, r2
 2c0:	4299      	cmp	r1, r3
 2c2:	dd06      	ble.n	2d2 <Control+0x2d2>
 2c4:	8822      	ldrh	r2, [r4, #0]
 2c6:	8803      	ldrh	r3, [r0, #0]
 2c8:	4293      	cmp	r3, r2
 2ca:	d902      	bls.n	2d2 <Control+0x2d2>
C:\tien\PROJEKTY\procesory\STM\T104_V100a_GASTOP\sources/control.c:599
                    {
                        Motor_Pwm = PWM_MIN + (Controlling_Variables.Ctrl_Vars.Predkosc_Silnika2 * ((PWM_FULL-PWM_MIN)/PWM_RESOLUTION));
 2cc:	4b6b      	ldr	r3, [pc, #428]	(47c <Control+0x47c>)
 2ce:	7859      	ldrb	r1, [r3, #1]
 2d0:	e02d      	b.n	32e <Control+0x32e>
C:\tien\PROJEKTY\procesory\STM\T104_V100a_GASTOP\sources/control.c:604
                        TIM_SetCompare2(MOTOR_TIMER, Motor_Pwm);
                    }
                    else
                    {
                        Motor_Pwm = PWM_MIN + (Controlling_Variables.Ctrl_Vars.Predkosc_Silnika1 * ((PWM_FULL-PWM_MIN)/PWM_RESOLUTION));
 2d2:	4b6a      	ldr	r3, [pc, #424]	(47c <Control+0x47c>)
 2d4:	7819      	ldrb	r1, [r3, #0]
 2d6:	e02a      	b.n	32e <Control+0x32e>
C:\tien\PROJEKTY\procesory\STM\T104_V100a_GASTOP\sources/control.c:610
                        TIM_SetCompare2(MOTOR_TIMER, Motor_Pwm);
                    }  
                }
                else//Inductive
                {
                    if ( Controller_Variables.Controller_Vars.Sensor_Counter <= (IND_OFFSET+Service_Variables.Serv_Vars.Sensor_Counter_Speed) )
 2d8:	4b69      	ldr	r3, [pc, #420]	(480 <Control+0x480>)
 2da:	791a      	ldrb	r2, [r3, #4]
 2dc:	f890 3070 	ldrb.w	r3, [r0, #112]
 2e0:	3364      	adds	r3, #100
 2e2:	429a      	cmp	r2, r3
 2e4:	4b65      	ldr	r3, [pc, #404]	(47c <Control+0x47c>)
 2e6:	4a67      	ldr	r2, [pc, #412]	(484 <Control+0x484>)
 2e8:	dc32      	bgt.n	350 <Control+0x350>
 2ea:	e02f      	b.n	34c <Control+0x34c>
C:\tien\PROJEKTY\procesory\STM\T104_V100a_GASTOP\sources/control.c:624
                    }
                }      
            }
            else
            {
                if ( Service_Variables.Serv_Vars.Sensor_Type == 0 )//ENKODER
 2ec:	2a00      	cmp	r2, #0
 2ee:	d123      	bne.n	338 <Control+0x338>
C:\tien\PROJEKTY\procesory\STM\T104_V100a_GASTOP\sources/control.c:626
                {
                    if ( Arm_Pos_Tmp < Arms_Stop_Pos.Min_Pos1 )
 2f0:	4a60      	ldr	r2, [pc, #384]	(474 <Control+0x474>)
 2f2:	880b      	ldrh	r3, [r1, #0]
 2f4:	8812      	ldrh	r2, [r2, #0]
 2f6:	429a      	cmp	r2, r3
 2f8:	d905      	bls.n	306 <Control+0x306>
C:\tien\PROJEKTY\procesory\STM\T104_V100a_GASTOP\sources/control.c:628
                    {
                        Arm_Pos_Tmp += 1023;
 2fa:	880b      	ldrh	r3, [r1, #0]
 2fc:	f503 737e 	add.w	r3, r3, #1016	; 0x3f8
 300:	3307      	adds	r3, #7
 302:	b29b      	uxth	r3, r3
 304:	800b      	strh	r3, [r1, #0]
C:\tien\PROJEKTY\procesory\STM\T104_V100a_GASTOP\sources/control.c:631
                    }

                    if ( Arm_Pos_Tmp > Max_Pos_Tmp && (Arm_Pos_Tmp < Max_Pos_Tmp + Service_Variables.Serv_Vars.Serwis_009) )
 306:	495a      	ldr	r1, [pc, #360]	(470 <Control+0x470>)
 308:	485f      	ldr	r0, [pc, #380]	(488 <Control+0x488>)
 30a:	880a      	ldrh	r2, [r1, #0]
 30c:	8803      	ldrh	r3, [r0, #0]
 30e:	4293      	cmp	r3, r2
 310:	d20b      	bcs.n	32a <Control+0x32a>
 312:	4b53      	ldr	r3, [pc, #332]	(460 <Control+0x460>)
 314:	8809      	ldrh	r1, [r1, #0]
 316:	8802      	ldrh	r2, [r0, #0]
 318:	8f5b      	ldrh	r3, [r3, #58]
 31a:	b292      	uxth	r2, r2
 31c:	b289      	uxth	r1, r1
 31e:	189b      	adds	r3, r3, r2
 320:	4299      	cmp	r1, r3
 322:	da02      	bge.n	32a <Control+0x32a>
C:\tien\PROJEKTY\procesory\STM\T104_V100a_GASTOP\sources/control.c:633
                    {
                        Motor_Pwm = PWM_MIN + Controlling_Variables.Ctrl_Vars.Predkosc_Silnika4 * (PWM_FULL-PWM_MIN)/PWM_RESOLUTION;
 324:	4b55      	ldr	r3, [pc, #340]	(47c <Control+0x47c>)
 326:	7a59      	ldrb	r1, [r3, #9]
 328:	e001      	b.n	32e <Control+0x32e>
C:\tien\PROJEKTY\procesory\STM\T104_V100a_GASTOP\sources/control.c:638
                        TIM_SetCompare2(MOTOR_TIMER, Motor_Pwm);
                    }
                    else
                    {
                        Motor_Pwm = PWM_MIN + Controlling_Variables.Ctrl_Vars.Predkosc_Silnika3 * (PWM_FULL-PWM_MIN)/PWM_RESOLUTION;
 32a:	4b54      	ldr	r3, [pc, #336]	(47c <Control+0x47c>)
 32c:	7a19      	ldrb	r1, [r3, #8]
 32e:	0109      	lsls	r1, r1, #4
 330:	4b54      	ldr	r3, [pc, #336]	(484 <Control+0x484>)
 332:	31c8      	adds	r1, #200
 334:	8359      	strh	r1, [r3, #26]
 336:	e00f      	b.n	358 <Control+0x358>
C:\tien\PROJEKTY\procesory\STM\T104_V100a_GASTOP\sources/control.c:644
                        TIM_SetCompare2(MOTOR_TIMER, Motor_Pwm);
                    } 
                }
                else//INDUCTIVE
                {
                    if ( Controller_Variables.Controller_Vars.Sensor_Counter >= (IND_OFFSET-Service_Variables.Serv_Vars.Sensor_Counter_Speed) )
 338:	4b51      	ldr	r3, [pc, #324]	(480 <Control+0x480>)
 33a:	791a      	ldrb	r2, [r3, #4]
 33c:	f890 3070 	ldrb.w	r3, [r0, #112]
 340:	f1c3 0364 	rsb	r3, r3, #100	; 0x64
 344:	429a      	cmp	r2, r3
 346:	4b4d      	ldr	r3, [pc, #308]	(47c <Control+0x47c>)
 348:	4a4e      	ldr	r2, [pc, #312]	(484 <Control+0x484>)
 34a:	db01      	blt.n	350 <Control+0x350>
C:\tien\PROJEKTY\procesory\STM\T104_V100a_GASTOP\sources/control.c:646
                    {
                        Motor_Pwm = PWM_MIN + (Controlling_Variables.Ctrl_Vars.Predkosc_Silnika1 * ((PWM_FULL-PWM_MIN)/PWM_RESOLUTION));
 34c:	7819      	ldrb	r1, [r3, #0]
 34e:	e000      	b.n	352 <Control+0x352>
C:\tien\PROJEKTY\procesory\STM\T104_V100a_GASTOP\sources/control.c:651
                        TIM_SetCompare2(MOTOR_TIMER, Motor_Pwm);
                    }
                    else
                    {
                        Motor_Pwm = PWM_MIN + (Controlling_Variables.Ctrl_Vars.Predkosc_Silnika2 * ((PWM_FULL-PWM_MIN)/PWM_RESOLUTION));
 350:	7859      	ldrb	r1, [r3, #1]
 352:	0109      	lsls	r1, r1, #4
 354:	31c8      	adds	r1, #200
 356:	8351      	strh	r1, [r2, #26]
C:\tien\PROJEKTY\procesory\STM\T104_V100a_GASTOP\sources/control.c:658
                    }                }
            }  
        }
        else
        {
            TIM_SetCompare2(MOTOR_TIMER, PWM_OFF);
 358:	484c      	ldr	r0, [pc, #304]	(48c <Control+0x48c>)
 35a:	e001      	b.n	360 <Control+0x360>
C:\tien\PROJEKTY\procesory\STM\T104_V100a_GASTOP\sources/control.c:663
        }
    }
    else
    {
        TIM_SetCompare2(MOTOR_TIMER, PWM_OFF);
 35c:	484b      	ldr	r0, [pc, #300]	(48c <Control+0x48c>)
 35e:	2100      	movs	r1, #0
 360:	f7ff fffe 	bl	0 <TIM_SetCompare2>
C:\tien\PROJEKTY\procesory\STM\T104_V100a_GASTOP\sources/control.c:666
    }
/* Brake control*/
    if ( Service_Variables.Serv_Vars.Hamulec == 0 )
 364:	483e      	ldr	r0, [pc, #248]	(460 <Control+0x460>)
 366:	7d44      	ldrb	r4, [r0, #21]
 368:	2c00      	cmp	r4, #0
 36a:	d128      	bne.n	3be <Control+0x3be>
C:\tien\PROJEKTY\procesory\STM\T104_V100a_GASTOP\sources/control.c:668
    {
        if ( Control_Variables[Machine_State].Outputs_Status_Ptr->Brake == TRUE )
 36c:	4b3d      	ldr	r3, [pc, #244]	(464 <Control+0x464>)
 36e:	4a3e      	ldr	r2, [pc, #248]	(468 <Control+0x468>)
 370:	781b      	ldrb	r3, [r3, #0]
 372:	2114      	movs	r1, #20
 374:	fb01 2303 	mla	r3, r1, r3, r2
 378:	685b      	ldr	r3, [r3, #4]
 37a:	785b      	ldrb	r3, [r3, #1]
 37c:	2b01      	cmp	r3, #1
 37e:	d11b      	bne.n	3b8 <Control+0x3b8>
C:\tien\PROJEKTY\procesory\STM\T104_V100a_GASTOP\sources/control.c:670
        {
            if ( Service_Variables.Serv_Vars.PWM_Zwora == 0 )
 380:	7b43      	ldrb	r3, [r0, #13]
 382:	4a40      	ldr	r2, [pc, #256]	(484 <Control+0x484>)
 384:	b91b      	cbnz	r3, 38e <Control+0x38e>
C:\tien\PROJEKTY\procesory\STM\T104_V100a_GASTOP\sources/control.c:672
            {
                Brake_Pwm = PWM_MIN + Service_Variables.Serv_Vars.PWM_Ham_Var * (PWM_FULL-PWM_MIN)/PWM_RESOLUTION;
 386:	7c43      	ldrb	r3, [r0, #17]
 388:	011b      	lsls	r3, r3, #4
 38a:	33c8      	adds	r3, #200
 38c:	e001      	b.n	392 <Control+0x392>
C:\tien\PROJEKTY\procesory\STM\T104_V100a_GASTOP\sources/control.c:676
            }
            else
            {
                Brake_Pwm = PWM_FULL;
 38e:	f44f 737a 	mov.w	r3, #1000	; 0x3e8
 392:	8393      	strh	r3, [r2, #28]
C:\tien\PROJEKTY\procesory\STM\T104_V100a_GASTOP\sources/control.c:679
            }
    
            if ( Control_Variables[Machine_State].Outputs_Status_Ptr->Brake_PWM == TRUE )
 394:	4b33      	ldr	r3, [pc, #204]	(464 <Control+0x464>)
 396:	4a34      	ldr	r2, [pc, #208]	(468 <Control+0x468>)
 398:	781b      	ldrb	r3, [r3, #0]
 39a:	2114      	movs	r1, #20
 39c:	fb01 2303 	mla	r3, r1, r3, r2
 3a0:	685b      	ldr	r3, [r3, #4]
 3a2:	795b      	ldrb	r3, [r3, #5]
 3a4:	2b01      	cmp	r3, #1
 3a6:	d103      	bne.n	3b0 <Control+0x3b0>
C:\tien\PROJEKTY\procesory\STM\T104_V100a_GASTOP\sources/control.c:681
            {
                TIM_SetCompare1(BRAKE_TIMER, Brake_Pwm);
 3a8:	4b36      	ldr	r3, [pc, #216]	(484 <Control+0x484>)
 3aa:	4838      	ldr	r0, [pc, #224]	(48c <Control+0x48c>)
 3ac:	8b99      	ldrh	r1, [r3, #28]
 3ae:	e008      	b.n	3c2 <Control+0x3c2>
C:\tien\PROJEKTY\procesory\STM\T104_V100a_GASTOP\sources/control.c:685
            }
            else
            {
                TIM_SetCompare1(BRAKE_TIMER, PWM_FULL);       
 3b0:	4836      	ldr	r0, [pc, #216]	(48c <Control+0x48c>)
 3b2:	f44f 717a 	mov.w	r1, #1000	; 0x3e8
 3b6:	e004      	b.n	3c2 <Control+0x3c2>
C:\tien\PROJEKTY\procesory\STM\T104_V100a_GASTOP\sources/control.c:690
            }
        }
        else
        {
            TIM_SetCompare1(BRAKE_TIMER, PWM_OFF);
 3b8:	4834      	ldr	r0, [pc, #208]	(48c <Control+0x48c>)
 3ba:	4621      	mov	r1, r4
 3bc:	e001      	b.n	3c2 <Control+0x3c2>
C:\tien\PROJEKTY\procesory\STM\T104_V100a_GASTOP\sources/control.c:695
        }
    }
    else
    {
        TIM_SetCompare1(BRAKE_TIMER, PWM_OFF);
 3be:	4833      	ldr	r0, [pc, #204]	(48c <Control+0x48c>)
 3c0:	2100      	movs	r1, #0
 3c2:	f7ff fffe 	bl	0 <TIM_SetCompare1>
C:\tien\PROJEKTY\procesory\STM\T104_V100a_GASTOP\sources/control.c:699
    }

/* Left Bolt Control*/
    if ( Service_Variables.Serv_Vars.Rygle_var == 0 )
 3c6:	4826      	ldr	r0, [pc, #152]	(460 <Control+0x460>)
 3c8:	7dc3      	ldrb	r3, [r0, #23]
 3ca:	2b00      	cmp	r3, #0
 3cc:	f040 80aa 	bne.w	524 <Control+0x524>
C:\tien\PROJEKTY\procesory\STM\T104_V100a_GASTOP\sources/control.c:701
    {
        if ( Service_Variables.Serv_Vars.PWM_Lewy_Rygiel == 0 )
 3d0:	7ac3      	ldrb	r3, [r0, #11]
 3d2:	b993      	cbnz	r3, 3fa <Control+0x3fa>
C:\tien\PROJEKTY\procesory\STM\T104_V100a_GASTOP\sources/control.c:703
        {
            if ( Control_Variables[Machine_State].Outputs_Status_Ptr->Bolts_PWM == TRUE )
 3d4:	4b23      	ldr	r3, [pc, #140]	(464 <Control+0x464>)
 3d6:	4a24      	ldr	r2, [pc, #144]	(468 <Control+0x468>)
 3d8:	781b      	ldrb	r3, [r3, #0]
 3da:	2114      	movs	r1, #20
 3dc:	fb01 2303 	mla	r3, r1, r3, r2
 3e0:	685b      	ldr	r3, [r3, #4]
 3e2:	4a28      	ldr	r2, [pc, #160]	(484 <Control+0x484>)
 3e4:	799b      	ldrb	r3, [r3, #6]
 3e6:	2b01      	cmp	r3, #1
 3e8:	d103      	bne.n	3f2 <Control+0x3f2>
C:\tien\PROJEKTY\procesory\STM\T104_V100a_GASTOP\sources/control.c:705
            {
                Bolt_Fwd_Pwm = PWM_MIN + Service_Variables.Serv_Vars.PWM_LR_Var * (PWM_FULL-PWM_MIN)/PWM_RESOLUTION;
 3ea:	7bc3      	ldrb	r3, [r0, #15]
 3ec:	011b      	lsls	r3, r3, #4
 3ee:	33c8      	adds	r3, #200
 3f0:	e001      	b.n	3f6 <Control+0x3f6>
C:\tien\PROJEKTY\procesory\STM\T104_V100a_GASTOP\sources/control.c:709
            }
            else
            {
                Bolt_Fwd_Pwm = PWM_FULL;           
 3f2:	f44f 737a 	mov.w	r3, #1000	; 0x3e8
 3f6:	83d3      	strh	r3, [r2, #30]
 3f8:	e003      	b.n	402 <Control+0x402>
C:\tien\PROJEKTY\procesory\STM\T104_V100a_GASTOP\sources/control.c:714
            }
        }
        else
        {
            Bolt_Fwd_Pwm = PWM_FULL;
 3fa:	4b22      	ldr	r3, [pc, #136]	(484 <Control+0x484>)
 3fc:	f44f 727a 	mov.w	r2, #1000	; 0x3e8
 400:	83da      	strh	r2, [r3, #30]
C:\tien\PROJEKTY\procesory\STM\T104_V100a_GASTOP\sources/control.c:717
        }

        if ( Service_Variables.Serv_Vars.Lewy_Rygiel == 0 )
 402:	4b17      	ldr	r3, [pc, #92]	(460 <Control+0x460>)
 404:	4a17      	ldr	r2, [pc, #92]	(464 <Control+0x464>)
 406:	7cd9      	ldrb	r1, [r3, #19]
 408:	4817      	ldr	r0, [pc, #92]	(468 <Control+0x468>)
 40a:	b969      	cbnz	r1, 428 <Control+0x428>
C:\tien\PROJEKTY\procesory\STM\T104_V100a_GASTOP\sources/control.c:719
        {
            if ( Control_Variables[Machine_State].Outputs_Status_Ptr->Bolt_Fwd == TRUE )
 40c:	7813      	ldrb	r3, [r2, #0]
 40e:	2414      	movs	r4, #20
 410:	fb04 0303 	mla	r3, r4, r3, r0
 414:	685b      	ldr	r3, [r3, #4]
 416:	789b      	ldrb	r3, [r3, #2]
 418:	2b01      	cmp	r3, #1
 41a:	d101      	bne.n	420 <Control+0x420>
C:\tien\PROJEKTY\procesory\STM\T104_V100a_GASTOP\sources/control.c:721
            {
                TIM_SetCompare4(BOLT1_TIMER, PWM_OFF);
 41c:	481c      	ldr	r0, [pc, #112]	(490 <Control+0x490>)
 41e:	e03b      	b.n	498 <Control+0x498>
C:\tien\PROJEKTY\procesory\STM\T104_V100a_GASTOP\sources/control.c:725
            }
            else
            {
                if ( Control_Variables[Machine_State].Outputs_Status_Ptr->Bolts_PWM == TRUE )
 420:	7813      	ldrb	r3, [r2, #0]
 422:	fb04 0303 	mla	r3, r4, r3, r0
 426:	e00a      	b.n	43e <Control+0x43e>
C:\tien\PROJEKTY\procesory\STM\T104_V100a_GASTOP\sources/control.c:737
                }
            }         
        }
        else
        {
            if ( Control_Variables[Machine_State].Outputs_Status_Ptr->Bolt_Fwd == TRUE )
 428:	7813      	ldrb	r3, [r2, #0]
 42a:	2114      	movs	r1, #20
 42c:	fb01 0303 	mla	r3, r1, r3, r0
 430:	685b      	ldr	r3, [r3, #4]
 432:	789b      	ldrb	r3, [r3, #2]
 434:	2b01      	cmp	r3, #1
 436:	d12d      	bne.n	494 <Control+0x494>
C:\tien\PROJEKTY\procesory\STM\T104_V100a_GASTOP\sources/control.c:739
            {
                if ( Control_Variables[Machine_State].Outputs_Status_Ptr->Bolts_PWM == TRUE )
 438:	7813      	ldrb	r3, [r2, #0]
 43a:	fb01 0303 	mla	r3, r1, r3, r0
 43e:	685b      	ldr	r3, [r3, #4]
 440:	799b      	ldrb	r3, [r3, #6]
 442:	2b01      	cmp	r3, #1
 444:	d103      	bne.n	44e <Control+0x44e>
C:\tien\PROJEKTY\procesory\STM\T104_V100a_GASTOP\sources/control.c:741
                {
                    TIM_SetCompare4(BOLT1_TIMER, Bolt_Fwd_Pwm);
 446:	4b0f      	ldr	r3, [pc, #60]	(484 <Control+0x484>)
 448:	4811      	ldr	r0, [pc, #68]	(490 <Control+0x490>)
 44a:	8bd9      	ldrh	r1, [r3, #30]
 44c:	e024      	b.n	498 <Control+0x498>
C:\tien\PROJEKTY\procesory\STM\T104_V100a_GASTOP\sources/control.c:745
                }
                else
                {
                    TIM_SetCompare4(BOLT1_TIMER, PWM_FULL);       
 44e:	4810      	ldr	r0, [pc, #64]	(490 <Control+0x490>)
 450:	f44f 717a 	mov.w	r1, #1000	; 0x3e8
 454:	e020      	b.n	498 <Control+0x498>
 456:	46c0      	nop			(mov r8, r8)
 458:	40010800 	.word	0x40010800
 45c:	40010c00 	.word	0x40010c00
	...
 48c:	40012c00 	.word	0x40012c00
 490:	40000400 	.word	0x40000400
C:\tien\PROJEKTY\procesory\STM\T104_V100a_GASTOP\sources/control.c:750
                }
            }
            else
            {
                TIM_SetCompare4(BOLT1_TIMER, PWM_OFF);
 494:	4832      	ldr	r0, [pc, #200]	(560 <Control+0x560>)
 496:	2100      	movs	r1, #0
 498:	f7ff fffe 	bl	0 <TIM_SetCompare4>
C:\tien\PROJEKTY\procesory\STM\T104_V100a_GASTOP\sources/control.c:756
            }    
        }


/*Right Bolt Control*/
        if ( Service_Variables.Serv_Vars.PWM_Prawy_Rygiel == 0 )
 49c:	4831      	ldr	r0, [pc, #196]	(564 <Control+0x564>)
 49e:	7b03      	ldrb	r3, [r0, #12]
 4a0:	b993      	cbnz	r3, 4c8 <Control+0x4c8>
C:\tien\PROJEKTY\procesory\STM\T104_V100a_GASTOP\sources/control.c:758
        {
            if ( Control_Variables[Machine_State].Outputs_Status_Ptr->Bolts_PWM == TRUE )
 4a2:	4b31      	ldr	r3, [pc, #196]	(568 <Control+0x568>)
 4a4:	4a31      	ldr	r2, [pc, #196]	(56c <Control+0x56c>)
 4a6:	781b      	ldrb	r3, [r3, #0]
 4a8:	2114      	movs	r1, #20
 4aa:	fb01 2303 	mla	r3, r1, r3, r2
 4ae:	685b      	ldr	r3, [r3, #4]
 4b0:	4a2f      	ldr	r2, [pc, #188]	(570 <Control+0x570>)
 4b2:	799b      	ldrb	r3, [r3, #6]
 4b4:	2b01      	cmp	r3, #1
 4b6:	d103      	bne.n	4c0 <Control+0x4c0>
C:\tien\PROJEKTY\procesory\STM\T104_V100a_GASTOP\sources/control.c:760
            {
                Bolt_Bck_Pwm = PWM_MIN + Service_Variables.Serv_Vars.PWM_PR_Var * (PWM_FULL-PWM_MIN)/PWM_RESOLUTION;
 4b8:	7c03      	ldrb	r3, [r0, #16]
 4ba:	011b      	lsls	r3, r3, #4
 4bc:	33c8      	adds	r3, #200
 4be:	e001      	b.n	4c4 <Control+0x4c4>
C:\tien\PROJEKTY\procesory\STM\T104_V100a_GASTOP\sources/control.c:764
            }
            else
            {
                Bolt_Bck_Pwm = PWM_FULL;            
 4c0:	f44f 737a 	mov.w	r3, #1000	; 0x3e8
 4c4:	8413      	strh	r3, [r2, #32]
 4c6:	e003      	b.n	4d0 <Control+0x4d0>
C:\tien\PROJEKTY\procesory\STM\T104_V100a_GASTOP\sources/control.c:769
            }
        }
        else
        {
            Bolt_Bck_Pwm = PWM_FULL;
 4c8:	4b29      	ldr	r3, [pc, #164]	(570 <Control+0x570>)
 4ca:	f44f 727a 	mov.w	r2, #1000	; 0x3e8
 4ce:	841a      	strh	r2, [r3, #32]
C:\tien\PROJEKTY\procesory\STM\T104_V100a_GASTOP\sources/control.c:772
        }

        if ( Service_Variables.Serv_Vars.Prawy_Rygiel == 0 )
 4d0:	4b24      	ldr	r3, [pc, #144]	(564 <Control+0x564>)
 4d2:	4a25      	ldr	r2, [pc, #148]	(568 <Control+0x568>)
 4d4:	7d19      	ldrb	r1, [r3, #20]
 4d6:	4825      	ldr	r0, [pc, #148]	(56c <Control+0x56c>)
 4d8:	b969      	cbnz	r1, 4f6 <Control+0x4f6>
C:\tien\PROJEKTY\procesory\STM\T104_V100a_GASTOP\sources/control.c:774
        {
            if ( Control_Variables[Machine_State].Outputs_Status_Ptr->Bolt_Bck == TRUE )
 4da:	7813      	ldrb	r3, [r2, #0]
 4dc:	2414      	movs	r4, #20
 4de:	fb04 0303 	mla	r3, r4, r3, r0
 4e2:	685b      	ldr	r3, [r3, #4]
 4e4:	78db      	ldrb	r3, [r3, #3]
 4e6:	2b01      	cmp	r3, #1
 4e8:	d101      	bne.n	4ee <Control+0x4ee>
C:\tien\PROJEKTY\procesory\STM\T104_V100a_GASTOP\sources/control.c:776
            {
            TIM_SetCompare2(BOLT2_TIMER, PWM_OFF);
 4ea:	481d      	ldr	r0, [pc, #116]	(560 <Control+0x560>)
 4ec:	e020      	b.n	530 <Control+0x530>
C:\tien\PROJEKTY\procesory\STM\T104_V100a_GASTOP\sources/control.c:780
            }
            else
            {
                if ( Control_Variables[Machine_State].Outputs_Status_Ptr->Bolts_PWM == TRUE )
 4ee:	7813      	ldrb	r3, [r2, #0]
 4f0:	fb04 0303 	mla	r3, r4, r3, r0
 4f4:	e00a      	b.n	50c <Control+0x50c>
C:\tien\PROJEKTY\procesory\STM\T104_V100a_GASTOP\sources/control.c:792
                }
            }         
        }
        else
        {
            if ( Control_Variables[Machine_State].Outputs_Status_Ptr->Bolt_Bck == TRUE )
 4f6:	7813      	ldrb	r3, [r2, #0]
 4f8:	2114      	movs	r1, #20
 4fa:	fb01 0303 	mla	r3, r1, r3, r0
 4fe:	685b      	ldr	r3, [r3, #4]
 500:	78db      	ldrb	r3, [r3, #3]
 502:	2b01      	cmp	r3, #1
 504:	d112      	bne.n	52c <Control+0x52c>
C:\tien\PROJEKTY\procesory\STM\T104_V100a_GASTOP\sources/control.c:794
            {
                if ( Control_Variables[Machine_State].Outputs_Status_Ptr->Bolts_PWM == TRUE )
 506:	7813      	ldrb	r3, [r2, #0]
 508:	fb01 0303 	mla	r3, r1, r3, r0
 50c:	685b      	ldr	r3, [r3, #4]
 50e:	799b      	ldrb	r3, [r3, #6]
 510:	2b01      	cmp	r3, #1
 512:	d103      	bne.n	51c <Control+0x51c>
C:\tien\PROJEKTY\procesory\STM\T104_V100a_GASTOP\sources/control.c:796
                {
                    TIM_SetCompare2(BOLT2_TIMER, Bolt_Bck_Pwm);
 514:	4b16      	ldr	r3, [pc, #88]	(570 <Control+0x570>)
 516:	4812      	ldr	r0, [pc, #72]	(560 <Control+0x560>)
 518:	8c19      	ldrh	r1, [r3, #32]
 51a:	e009      	b.n	530 <Control+0x530>
C:\tien\PROJEKTY\procesory\STM\T104_V100a_GASTOP\sources/control.c:800
                }
                else
                {
                    TIM_SetCompare2(BOLT2_TIMER, PWM_FULL);       
 51c:	4810      	ldr	r0, [pc, #64]	(560 <Control+0x560>)
 51e:	f44f 717a 	mov.w	r1, #1000	; 0x3e8
 522:	e005      	b.n	530 <Control+0x530>
C:\tien\PROJEKTY\procesory\STM\T104_V100a_GASTOP\sources/control.c:811
            }    
        }
    }
    else
    {
        TIM_SetCompare4(BOLT1_TIMER, PWM_OFF);
 524:	480e      	ldr	r0, [pc, #56]	(560 <Control+0x560>)
 526:	2100      	movs	r1, #0
 528:	f7ff fffe 	bl	0 <TIM_SetCompare4>
C:\tien\PROJEKTY\procesory\STM\T104_V100a_GASTOP\sources/control.c:812
        TIM_SetCompare2(BOLT2_TIMER, PWM_OFF);   
 52c:	480c      	ldr	r0, [pc, #48]	(560 <Control+0x560>)
 52e:	2100      	movs	r1, #0
 530:	f7ff fffe 	bl	0 <TIM_SetCompare2>
C:\tien\PROJEKTY\procesory\STM\T104_V100a_GASTOP\sources/control.c:815
    }
/* Motor direction control */
	if ( Control_Variables[Machine_State].Outputs_Status_Ptr->Motor_Direction == FORWARD )
 534:	4b0c      	ldr	r3, [pc, #48]	(568 <Control+0x568>)
 536:	4a0d      	ldr	r2, [pc, #52]	(56c <Control+0x56c>)
 538:	781b      	ldrb	r3, [r3, #0]
 53a:	2114      	movs	r1, #20
 53c:	fb01 2303 	mla	r3, r1, r3, r2
 540:	685b      	ldr	r3, [r3, #4]
 542:	791b      	ldrb	r3, [r3, #4]
 544:	b92b      	cbnz	r3, 552 <Control+0x552>
C:\tien\PROJEKTY\procesory\STM\T104_V100a_GASTOP\sources/control.c:817
	{
        GPIO_ResetBits(PORT_MOTOR_DIR, PIN_MOTOR_DIR);
 546:	480b      	ldr	r0, [pc, #44]	(574 <Control+0x574>)
 548:	f501 717b 	add.w	r1, r1, #1004	; 0x3ec
 54c:	f7ff fffe 	bl	0 <GPIO_ResetBits>
 550:	e004      	b.n	55c <Control+0x55c>
C:\tien\PROJEKTY\procesory\STM\T104_V100a_GASTOP\sources/control.c:821
	}
	else
	{
        GPIO_SetBits(PORT_MOTOR_DIR, PIN_MOTOR_DIR);
 552:	4808      	ldr	r0, [pc, #32]	(574 <Control+0x574>)
 554:	f44f 6180 	mov.w	r1, #1024	; 0x400
 558:	f7ff fffe 	bl	0 <GPIO_SetBits>
C:\tien\PROJEKTY\procesory\STM\T104_V100a_GASTOP\sources/control.c:824
	}
}//end of manual test excluding
}
 55c:	bd70      	pop	{r4, r5, r6, pc}
 55e:	46c0      	nop			(mov r8, r8)
 560:	40000400 	.word	0x40000400
	...
 574:	40010800 	.word	0x40010800
