
C:\tien\PROJEKTY\procesory\STM\T104_V100a_GASTOP\gui.o:     file format elf32-littlearm
C:\tien\PROJEKTY\procesory\STM\T104_V100a_GASTOP\gui.o

Disassembly of section .text.Bin2String:

00000000 <Bin2String>:
Bin2String():
C:\tien\PROJEKTY\procesory\STM\T104_V100a_GASTOP\sources/gui.c:1507
* Input          : Source_Count - Pointer to binary count, Result - pointer to table of result, Resolution - digits after dot, Digit_Count - number of counts to convert, Zero_Blank - dont display zero at front of digit
* Output         : None
* Return         : None
*******************************************************************************/
void Bin2String ( int32_t Source_Count, uint8_t * Result, uint8_t Digits_Count, uint8_t Resolution, uint8_t Zero_Blank )
{
   0:	e92d 43f0 	stmdb	sp!, {r4, r5, r6, r7, r8, r9, lr}
   4:	4698      	mov	r8, r3
C:\tien\PROJEKTY\procesory\STM\T104_V100a_GASTOP\sources/gui.c:1514
    static uint8_t Result_Table[9];   
    static uint8_t Zero_Ptr;
    static uint32_t Divider;

    Divider = 100000000;
    Zero_Ptr = 0;
   6:	4b3d      	ldr	r3, [pc, #244]	(fc <Bin2String+0xfc>)
C:\tien\PROJEKTY\procesory\STM\T104_V100a_GASTOP\sources/gui.c:1507
* Input          : Source_Count - Pointer to binary count, Result - pointer to table of result, Resolution - digits after dot, Digit_Count - number of counts to convert, Zero_Blank - dont display zero at front of digit
* Output         : None
* Return         : None
*******************************************************************************/
void Bin2String ( int32_t Source_Count, uint8_t * Result, uint8_t Digits_Count, uint8_t Resolution, uint8_t Zero_Blank )
{
   8:	460d      	mov	r5, r1
   a:	4611      	mov	r1, r2
C:\tien\PROJEKTY\procesory\STM\T104_V100a_GASTOP\sources/gui.c:1514
    static uint8_t Result_Table[9];   
    static uint8_t Zero_Ptr;
    static uint32_t Divider;

    Divider = 100000000;
    Zero_Ptr = 0;
   c:	2200      	movs	r2, #0
C:\tien\PROJEKTY\procesory\STM\T104_V100a_GASTOP\sources/gui.c:1516
    
    if ( Source_Count < 0 )
   e:	1e04      	subs	r4, r0, #0
C:\tien\PROJEKTY\procesory\STM\T104_V100a_GASTOP\sources/gui.c:1507
* Input          : Source_Count - Pointer to binary count, Result - pointer to table of result, Resolution - digits after dot, Digit_Count - number of counts to convert, Zero_Blank - dont display zero at front of digit
* Output         : None
* Return         : None
*******************************************************************************/
void Bin2String ( int32_t Source_Count, uint8_t * Result, uint8_t Digits_Count, uint8_t Resolution, uint8_t Zero_Blank )
{
  10:	f89d 601c 	ldrb.w	r6, [sp, #28]
C:\tien\PROJEKTY\procesory\STM\T104_V100a_GASTOP\sources/gui.c:1514
    static uint8_t Result_Table[9];   
    static uint8_t Zero_Ptr;
    static uint32_t Divider;

    Divider = 100000000;
    Zero_Ptr = 0;
  14:	701a      	strb	r2, [r3, #0]
C:\tien\PROJEKTY\procesory\STM\T104_V100a_GASTOP\sources/gui.c:1516
    
    if ( Source_Count < 0 )
  16:	da03      	bge.n	20 <Bin2String+0x20>
C:\tien\PROJEKTY\procesory\STM\T104_V100a_GASTOP\sources/gui.c:1519
    {
        Source_Count *= (-1);
        *Result++ = '-';
  18:	232d      	movs	r3, #45
C:\tien\PROJEKTY\procesory\STM\T104_V100a_GASTOP\sources/gui.c:1518
    Divider = 100000000;
    Zero_Ptr = 0;
    
    if ( Source_Count < 0 )
    {
        Source_Count *= (-1);
  1a:	4264      	negs	r4, r4
C:\tien\PROJEKTY\procesory\STM\T104_V100a_GASTOP\sources/gui.c:1519
        *Result++ = '-';
  1c:	f805 3b01 	strb.w	r3, [r5], #1
C:\tien\PROJEKTY\procesory\STM\T104_V100a_GASTOP\sources/gui.c:1527
    if ( Digits_Count > 9 )
    {
        Digits_Count = 9;
    }

    if ( Resolution > 3 )
  20:	f1b8 0f03 	cmp.w	r8, #3	; 0x3
  24:	d901      	bls.n	2a <Bin2String+0x2a>
  26:	2703      	movs	r7, #3
  28:	e003      	b.n	32 <Bin2String+0x32>
  2a:	2909      	cmp	r1, #9
  2c:	bf34      	ite	cc
  2e:	460f      	movcc	r7, r1
  30:	2709      	movcs	r7, #9
  32:	4833      	ldr	r0, [pc, #204]	(100 <Bin2String+0x100>)
  34:	f04f 0c00 	mov.w	ip, #0	; 0x0
  38:	e00e      	b.n	58 <Bin2String+0x58>
C:\tien\PROJEKTY\procesory\STM\T104_V100a_GASTOP\sources/gui.c:1534
        Digits_Count = 3;
    }

    for ( i=0; i<9; i++ )
    {
        Result_Table[i] = (uint8_t)((Source_Count / Divider) | 0x30);
  3a:	fbb4 f2f0 	udiv	r2, r4, r0
  3e:	4461      	add	r1, ip
  40:	f042 0330 	orr.w	r3, r2, #48	; 0x30
  44:	704b      	strb	r3, [r1, #1]
C:\tien\PROJEKTY\procesory\STM\T104_V100a_GASTOP\sources/gui.c:1536
        Source_Count %= Divider;
        Divider /= 10;
  46:	230a      	movs	r3, #10
C:\tien\PROJEKTY\procesory\STM\T104_V100a_GASTOP\sources/gui.c:1535
    }

    for ( i=0; i<9; i++ )
    {
        Result_Table[i] = (uint8_t)((Source_Count / Divider) | 0x30);
        Source_Count %= Divider;
  48:	fb00 4412 	mls	r4, r0, r2, r4
C:\tien\PROJEKTY\procesory\STM\T104_V100a_GASTOP\sources/gui.c:1536
        Divider /= 10;
  4c:	fbb0 f0f3 	udiv	r0, r0, r3
  50:	f10c 0301 	add.w	r3, ip, #1	; 0x1
  54:	fa5f fc83 	uxtb.w	ip, r3
C:\tien\PROJEKTY\procesory\STM\T104_V100a_GASTOP\sources/gui.c:1532
    if ( Resolution > 3 )
    {
        Digits_Count = 3;
    }

    for ( i=0; i<9; i++ )
  58:	f1bc 0f08 	cmp.w	ip, #8	; 0x8
  5c:	4927      	ldr	r1, [pc, #156]	(fc <Bin2String+0xfc>)
  5e:	d9ec      	bls.n	3a <Bin2String+0x3a>
  60:	60c8      	str	r0, [r1, #12]
  62:	f881 c010 	strb.w	ip, [r1, #16]
C:\tien\PROJEKTY\procesory\STM\T104_V100a_GASTOP\sources/gui.c:1539
        Result_Table[i] = (uint8_t)((Source_Count / Divider) | 0x30);
        Source_Count %= Divider;
        Divider /= 10;
    }

    if ( Zero_Blank == 0 )
  66:	b9b6      	cbnz	r6, 96 <Bin2String+0x96>
C:\tien\PROJEKTY\procesory\STM\T104_V100a_GASTOP\sources/gui.c:1541
    {
        for ( i=(9-Digits_Count); i<9; i++ )
  68:	f1c7 0309 	rsb	r3, r7, #9	; 0x9
  6c:	e00e      	b.n	8c <Bin2String+0x8c>
C:\tien\PROJEKTY\procesory\STM\T104_V100a_GASTOP\sources/gui.c:1543
        {
            *Result++ = Result_Table[i];
  6e:	188b      	adds	r3, r1, r2
  70:	785b      	ldrb	r3, [r3, #1]
  72:	f805 3b01 	strb.w	r3, [r5], #1
C:\tien\PROJEKTY\procesory\STM\T104_V100a_GASTOP\sources/gui.c:1544
            if ( Resolution != 0 && i == (8-Resolution) )
  76:	f1b8 0f00 	cmp.w	r8, #0	; 0x0
  7a:	d006      	beq.n	8a <Bin2String+0x8a>
  7c:	f1c8 0308 	rsb	r3, r8, #8	; 0x8
  80:	429a      	cmp	r2, r3
  82:	d102      	bne.n	8a <Bin2String+0x8a>
C:\tien\PROJEKTY\procesory\STM\T104_V100a_GASTOP\sources/gui.c:1546
            {
                *Result++ = '.';
  84:	232e      	movs	r3, #46
  86:	f805 3b01 	strb.w	r3, [r5], #1
  8a:	1c53      	adds	r3, r2, #1
  8c:	b2da      	uxtb	r2, r3
C:\tien\PROJEKTY\procesory\STM\T104_V100a_GASTOP\sources/gui.c:1541
        Divider /= 10;
    }

    if ( Zero_Blank == 0 )
    {
        for ( i=(9-Digits_Count); i<9; i++ )
  8e:	2a08      	cmp	r2, #8
  90:	491a      	ldr	r1, [pc, #104]	(fc <Bin2String+0xfc>)
  92:	d9ec      	bls.n	6e <Bin2String+0x6e>
  94:	e02c      	b.n	f0 <Bin2String+0xf0>
C:\tien\PROJEKTY\procesory\STM\T104_V100a_GASTOP\sources/gui.c:1552
            }          
        }
    }
    else
    {
        for ( i=0; i<(8-Resolution); i++ )
  96:	2300      	movs	r3, #0
  98:	740b      	strb	r3, [r1, #16]
  9a:	461a      	mov	r2, r3
  9c:	4618      	mov	r0, r3
  9e:	e00c      	b.n	ba <Bin2String+0xba>
  a0:	1c53      	adds	r3, r2, #1
C:\tien\PROJEKTY\procesory\STM\T104_V100a_GASTOP\sources/gui.c:1554
        {
            if ( Result_Table[i] == '0' )
  a2:	188c      	adds	r4, r1, r2
C:\tien\PROJEKTY\procesory\STM\T104_V100a_GASTOP\sources/gui.c:1552
            }          
        }
    }
    else
    {
        for ( i=0; i<(8-Resolution); i++ )
  a4:	b2de      	uxtb	r6, r3
  a6:	1c43      	adds	r3, r0, #1
  a8:	fa5f fc83 	uxtb.w	ip, r3
C:\tien\PROJEKTY\procesory\STM\T104_V100a_GASTOP\sources/gui.c:1554
        {
            if ( Result_Table[i] == '0' )
  ac:	7863      	ldrb	r3, [r4, #1]
  ae:	2b30      	cmp	r3, #48
  b0:	d108      	bne.n	c4 <Bin2String+0xc4>
C:\tien\PROJEKTY\procesory\STM\T104_V100a_GASTOP\sources/gui.c:1557
            {
//Dla spacji
                Result_Table[i] = ' ';
  b2:	2320      	movs	r3, #32
  b4:	7063      	strb	r3, [r4, #1]
  b6:	4632      	mov	r2, r6
  b8:	4660      	mov	r0, ip
C:\tien\PROJEKTY\procesory\STM\T104_V100a_GASTOP\sources/gui.c:1552
            }          
        }
    }
    else
    {
        for ( i=0; i<(8-Resolution); i++ )
  ba:	f1c8 0908 	rsb	r9, r8, #8	; 0x8
  be:	454a      	cmp	r2, r9
  c0:	490e      	ldr	r1, [pc, #56]	(fc <Bin2String+0xfc>)
  c2:	dbed      	blt.n	a0 <Bin2String+0xa0>
  c4:	7008      	strb	r0, [r1, #0]
  c6:	740a      	strb	r2, [r1, #16]
C:\tien\PROJEKTY\procesory\STM\T104_V100a_GASTOP\sources/gui.c:1565
            }
            else
                break;
        }
//Dla spacji
        for ( i=(9-Digits_Count); i<9; i++ )
  c8:	f1c7 0309 	rsb	r3, r7, #9	; 0x9
  cc:	e00c      	b.n	e8 <Bin2String+0xe8>
C:\tien\PROJEKTY\procesory\STM\T104_V100a_GASTOP\sources/gui.c:1569
//Koniec dla spacji
//        for ( i=Zero_Ptr; i<9; i++ )
        {
            *Result++ = Result_Table[i];
  ce:	188b      	adds	r3, r1, r2
  d0:	785b      	ldrb	r3, [r3, #1]
  d2:	f805 3b01 	strb.w	r3, [r5], #1
C:\tien\PROJEKTY\procesory\STM\T104_V100a_GASTOP\sources/gui.c:1570
            if ( Resolution != 0 && i == (8-Resolution) )
  d6:	f1b8 0f00 	cmp.w	r8, #0	; 0x0
  da:	d004      	beq.n	e6 <Bin2String+0xe6>
  dc:	454a      	cmp	r2, r9
  de:	d102      	bne.n	e6 <Bin2String+0xe6>
C:\tien\PROJEKTY\procesory\STM\T104_V100a_GASTOP\sources/gui.c:1572
            {
                *Result++ = '.';
  e0:	232e      	movs	r3, #46
  e2:	f805 3b01 	strb.w	r3, [r5], #1
  e6:	1c53      	adds	r3, r2, #1
  e8:	b2da      	uxtb	r2, r3
C:\tien\PROJEKTY\procesory\STM\T104_V100a_GASTOP\sources/gui.c:1565
            }
            else
                break;
        }
//Dla spacji
        for ( i=(9-Digits_Count); i<9; i++ )
  ea:	2a08      	cmp	r2, #8
  ec:	4903      	ldr	r1, [pc, #12]	(fc <Bin2String+0xfc>)
  ee:	d9ee      	bls.n	ce <Bin2String+0xce>
C:\tien\PROJEKTY\procesory\STM\T104_V100a_GASTOP\sources/gui.c:1577
                *Result++ = '.';
            }          
        }
    }

    *Result = 0;
  f0:	2300      	movs	r3, #0
C:\tien\PROJEKTY\procesory\STM\T104_V100a_GASTOP\sources/gui.c:1565
            }
            else
                break;
        }
//Dla spacji
        for ( i=(9-Digits_Count); i<9; i++ )
  f2:	740a      	strb	r2, [r1, #16]
C:\tien\PROJEKTY\procesory\STM\T104_V100a_GASTOP\sources/gui.c:1577
                *Result++ = '.';
            }          
        }
    }

    *Result = 0;
  f4:	702b      	strb	r3, [r5, #0]
C:\tien\PROJEKTY\procesory\STM\T104_V100a_GASTOP\sources/gui.c:1578
}
  f6:	e8bd 83f0 	ldmia.w	sp!, {r4, r5, r6, r7, r8, r9, pc}
  fa:	46c0      	nop			(mov r8, r8)
  fc:	00000000 	.word	0x00000000
 100:	05f5e100 	.word	0x05f5e100
Disassembly of section .text.Menu_Keyboard:

00000000 <Menu_Keyboard>:
Menu_Keyboard():
C:\tien\PROJEKTY\procesory\STM\T104_V100a_GASTOP\sources/gui.c:1587
* Input          : None
* Output         : None
* Return         : None
*******************************************************************************/
void Menu_Keyboard ( void )
{
   0:	b510      	push	{r4, lr}
C:\tien\PROJEKTY\procesory\STM\T104_V100a_GASTOP\sources/gui.c:1589

        switch ( Keyboard.Keyboard_Memory )
   2:	4b22      	ldr	r3, [pc, #136]	(8c <Menu_Keyboard+0x8c>)
   4:	781b      	ldrb	r3, [r3, #0]
   6:	2b08      	cmp	r3, #8
   8:	d002      	beq.n	10 <Menu_Keyboard+0x10>
   a:	2b20      	cmp	r3, #32
   c:	d13c      	bne.n	88 <Menu_Keyboard+0x88>
   e:	e01b      	b.n	48 <Menu_Keyboard+0x48>
C:\tien\PROJEKTY\procesory\STM\T104_V100a_GASTOP\sources/gui.c:1592
        {
            case KEY_UP:
                if ( (Menu_Keys.Active_String+1) == Screen_Lcd[Screen_Number].Screen_Objects->Menu_Ptr->Total_Lines )
  10:	4b1f      	ldr	r3, [pc, #124]	(90 <Menu_Keyboard+0x90>)
  12:	4820      	ldr	r0, [pc, #128]	(94 <Menu_Keyboard+0x94>)
  14:	781a      	ldrb	r2, [r3, #0]
  16:	4b20      	ldr	r3, [pc, #128]	(98 <Menu_Keyboard+0x98>)
  18:	7c81      	ldrb	r1, [r0, #18]
  1a:	eb03 03c2 	add.w	r3, r3, r2, lsl #3
  1e:	685b      	ldr	r3, [r3, #4]
  20:	3101      	adds	r1, #1
  22:	685c      	ldr	r4, [r3, #4]
  24:	78e3      	ldrb	r3, [r4, #3]
  26:	4299      	cmp	r1, r3
  28:	d103      	bne.n	32 <Menu_Keyboard+0x32>
C:\tien\PROJEKTY\procesory\STM\T104_V100a_GASTOP\sources/gui.c:1594
                {
                    Menu_Keys.First_On_Screen = 0;
  2a:	2300      	movs	r3, #0
  2c:	7443      	strb	r3, [r0, #17]
C:\tien\PROJEKTY\procesory\STM\T104_V100a_GASTOP\sources/gui.c:1595
                    Menu_Keys.Active_String = 0;
  2e:	7483      	strb	r3, [r0, #18]
  30:	e026      	b.n	80 <Menu_Keyboard+0x80>
C:\tien\PROJEKTY\procesory\STM\T104_V100a_GASTOP\sources/gui.c:1601
                    Menu_Keys.Active_On_Screen = 0;
                }
                else
                {
                    Menu_Keys.Active_String++;
                    if ( (Menu_Keys.Active_On_Screen+1) == Screen_Lcd[Screen_Number].Screen_Objects->Menu_Ptr->Lines_On_Screen )
  32:	7cc3      	ldrb	r3, [r0, #19]
C:\tien\PROJEKTY\procesory\STM\T104_V100a_GASTOP\sources/gui.c:1600
                    Menu_Keys.Active_String = 0;
                    Menu_Keys.Active_On_Screen = 0;
                }
                else
                {
                    Menu_Keys.Active_String++;
  34:	7481      	strb	r1, [r0, #18]
C:\tien\PROJEKTY\procesory\STM\T104_V100a_GASTOP\sources/gui.c:1601
                    if ( (Menu_Keys.Active_On_Screen+1) == Screen_Lcd[Screen_Number].Screen_Objects->Menu_Ptr->Lines_On_Screen )
  36:	1c5a      	adds	r2, r3, #1
  38:	78a3      	ldrb	r3, [r4, #2]
  3a:	429a      	cmp	r2, r3
  3c:	d102      	bne.n	44 <Menu_Keyboard+0x44>
C:\tien\PROJEKTY\procesory\STM\T104_V100a_GASTOP\sources/gui.c:1603
                    {
                        Menu_Keys.First_On_Screen++;
  3e:	7c43      	ldrb	r3, [r0, #17]
  40:	3301      	adds	r3, #1
  42:	e01a      	b.n	7a <Menu_Keyboard+0x7a>
C:\tien\PROJEKTY\procesory\STM\T104_V100a_GASTOP\sources/gui.c:1607
                    }
                    else
                    {
                        Menu_Keys.Active_On_Screen++;
  44:	74c2      	strb	r2, [r0, #19]
  46:	e01c      	b.n	82 <Menu_Keyboard+0x82>
C:\tien\PROJEKTY\procesory\STM\T104_V100a_GASTOP\sources/gui.c:1615
                Reload_Screen = TRUE;

            break;

            case KEY_DOWN:
                if ( Menu_Keys.Active_String == 0 )               {
  48:	4812      	ldr	r0, [pc, #72]	(94 <Menu_Keyboard+0x94>)
  4a:	7c83      	ldrb	r3, [r0, #18]
  4c:	b97b      	cbnz	r3, 6e <Menu_Keyboard+0x6e>
C:\tien\PROJEKTY\procesory\STM\T104_V100a_GASTOP\sources/gui.c:1616
                    Menu_Keys.First_On_Screen = Screen_Lcd[Screen_Number].Screen_Objects->Menu_Ptr->Total_Lines - Screen_Lcd[Screen_Number].Screen_Objects->Menu_Ptr->Lines_On_Screen;
  4e:	4b10      	ldr	r3, [pc, #64]	(90 <Menu_Keyboard+0x90>)
  50:	781a      	ldrb	r2, [r3, #0]
  52:	4b11      	ldr	r3, [pc, #68]	(98 <Menu_Keyboard+0x98>)
  54:	eb03 03c2 	add.w	r3, r3, r2, lsl #3
  58:	685b      	ldr	r3, [r3, #4]
  5a:	685a      	ldr	r2, [r3, #4]
  5c:	78d3      	ldrb	r3, [r2, #3]
  5e:	7891      	ldrb	r1, [r2, #2]
  60:	1a5a      	subs	r2, r3, r1
C:\tien\PROJEKTY\procesory\STM\T104_V100a_GASTOP\sources/gui.c:1617
                    Menu_Keys.Active_String = Screen_Lcd[Screen_Number].Screen_Objects->Menu_Ptr->Total_Lines-1;
  62:	3b01      	subs	r3, #1
C:\tien\PROJEKTY\procesory\STM\T104_V100a_GASTOP\sources/gui.c:1618
                    Menu_Keys.Active_On_Screen = Screen_Lcd[Screen_Number].Screen_Objects->Menu_Ptr->Lines_On_Screen-1;
  64:	3901      	subs	r1, #1
C:\tien\PROJEKTY\procesory\STM\T104_V100a_GASTOP\sources/gui.c:1616

            break;

            case KEY_DOWN:
                if ( Menu_Keys.Active_String == 0 )               {
                    Menu_Keys.First_On_Screen = Screen_Lcd[Screen_Number].Screen_Objects->Menu_Ptr->Total_Lines - Screen_Lcd[Screen_Number].Screen_Objects->Menu_Ptr->Lines_On_Screen;
  66:	7442      	strb	r2, [r0, #17]
C:\tien\PROJEKTY\procesory\STM\T104_V100a_GASTOP\sources/gui.c:1617
                    Menu_Keys.Active_String = Screen_Lcd[Screen_Number].Screen_Objects->Menu_Ptr->Total_Lines-1;
  68:	7483      	strb	r3, [r0, #18]
C:\tien\PROJEKTY\procesory\STM\T104_V100a_GASTOP\sources/gui.c:1618
                    Menu_Keys.Active_On_Screen = Screen_Lcd[Screen_Number].Screen_Objects->Menu_Ptr->Lines_On_Screen-1;
  6a:	74c1      	strb	r1, [r0, #19]
  6c:	e009      	b.n	82 <Menu_Keyboard+0x82>
C:\tien\PROJEKTY\procesory\STM\T104_V100a_GASTOP\sources/gui.c:1622
                }
                else
                {
                    Menu_Keys.Active_String--;
  6e:	3b01      	subs	r3, #1
  70:	7483      	strb	r3, [r0, #18]
C:\tien\PROJEKTY\procesory\STM\T104_V100a_GASTOP\sources/gui.c:1623
                    if ( Menu_Keys.Active_On_Screen == 0 )
  72:	7cc3      	ldrb	r3, [r0, #19]
  74:	b91b      	cbnz	r3, 7e <Menu_Keyboard+0x7e>
C:\tien\PROJEKTY\procesory\STM\T104_V100a_GASTOP\sources/gui.c:1625
                    {
                        Menu_Keys.First_On_Screen--;
  76:	7c43      	ldrb	r3, [r0, #17]
  78:	3b01      	subs	r3, #1
  7a:	7443      	strb	r3, [r0, #17]
  7c:	e001      	b.n	82 <Menu_Keyboard+0x82>
C:\tien\PROJEKTY\procesory\STM\T104_V100a_GASTOP\sources/gui.c:1629
                    }
                    else
                    {
                        Menu_Keys.Active_On_Screen--;
  7e:	3b01      	subs	r3, #1
  80:	74c3      	strb	r3, [r0, #19]
C:\tien\PROJEKTY\procesory\STM\T104_V100a_GASTOP\sources/gui.c:1632
                    }
                }
                Reload_Screen = TRUE;
  82:	4b06      	ldr	r3, [pc, #24]	(9c <Menu_Keyboard+0x9c>)
  84:	2201      	movs	r2, #1
  86:	701a      	strb	r2, [r3, #0]
C:\tien\PROJEKTY\procesory\STM\T104_V100a_GASTOP\sources/gui.c:1636
            break;
        }

}
  88:	bd10      	pop	{r4, pc}
  8a:	46c0      	nop			(mov r8, r8)
	...
Disassembly of section .text.Keyboard_Edit_Variable:

00000000 <Keyboard_Edit_Variable>:
Keyboard_Edit_Variable():
C:\tien\PROJEKTY\procesory\STM\T104_V100a_GASTOP\sources/gui.c:1651
{
    volatile static int32_t Edit_Variable;
    static int32_t Edit_Variable_Min;
    static int32_t Edit_Variable_Max;

    Edit_Variable_Min = Variable_Editing_Ptr->Var_Param_Ptr->Ranges->Var_min;
   0:	4b33      	ldr	r3, [pc, #204]	(d0 <Keyboard_Edit_Variable+0xd0>)
C:\tien\PROJEKTY\procesory\STM\T104_V100a_GASTOP\sources/gui.c:1646
* Input          : None
* Output         : None
* Return         : None
*******************************************************************************/
void Keyboard_Edit_Variable ( void )
{
   2:	b570      	push	{r4, r5, r6, lr}
C:\tien\PROJEKTY\procesory\STM\T104_V100a_GASTOP\sources/gui.c:1651
    volatile static int32_t Edit_Variable;
    static int32_t Edit_Variable_Min;
    static int32_t Edit_Variable_Max;

    Edit_Variable_Min = Variable_Editing_Ptr->Var_Param_Ptr->Ranges->Var_min;
   4:	6818      	ldr	r0, [r3, #0]
   6:	4b33      	ldr	r3, [pc, #204]	(d4 <Keyboard_Edit_Variable+0xd4>)
   8:	68c1      	ldr	r1, [r0, #12]
   a:	690a      	ldr	r2, [r1, #16]
C:\tien\PROJEKTY\procesory\STM\T104_V100a_GASTOP\sources/gui.c:1654
    Edit_Variable_Max = Variable_Editing_Ptr->Var_Param_Ptr->Ranges->Var_max;

    switch ( Variable_Editing_Ptr->Var_Param_Ptr->Variable_Size )
   c:	f891 c001 	ldrb.w	ip, [r1, #1]
C:\tien\PROJEKTY\procesory\STM\T104_V100a_GASTOP\sources/gui.c:1651
{
    volatile static int32_t Edit_Variable;
    static int32_t Edit_Variable_Min;
    static int32_t Edit_Variable_Max;

    Edit_Variable_Min = Variable_Editing_Ptr->Var_Param_Ptr->Ranges->Var_min;
  10:	6816      	ldr	r6, [r2, #0]
  12:	615e      	str	r6, [r3, #20]
C:\tien\PROJEKTY\procesory\STM\T104_V100a_GASTOP\sources/gui.c:1652
    Edit_Variable_Max = Variable_Editing_Ptr->Var_Param_Ptr->Ranges->Var_max;
  14:	6855      	ldr	r5, [r2, #4]
  16:	619d      	str	r5, [r3, #24]
C:\tien\PROJEKTY\procesory\STM\T104_V100a_GASTOP\sources/gui.c:1654

    switch ( Variable_Editing_Ptr->Var_Param_Ptr->Variable_Size )
  18:	f1bc 0f05 	cmp.w	ip, #5	; 0x5
  1c:	d816      	bhi.n	4c <Keyboard_Edit_Variable+0x4c>
  1e:	e8df f00c 	tbb	[pc, ip]
  22:	0603      	.short	0x0603
  24:	110d0911 	.word	0x110d0911
C:\tien\PROJEKTY\procesory\STM\T104_V100a_GASTOP\sources/gui.c:1657
    {
        case VAR_U8:
            Edit_Variable = *(uint8_t*)(Variable_Editing_Ptr->Var_Ptr);
  28:	6843      	ldr	r3, [r0, #4]
  2a:	781a      	ldrb	r2, [r3, #0]
  2c:	e00c      	b.n	48 <Keyboard_Edit_Variable+0x48>
C:\tien\PROJEKTY\procesory\STM\T104_V100a_GASTOP\sources/gui.c:1661
        break;

        case VAR_U16:
            Edit_Variable = *(uint16_t*)(Variable_Editing_Ptr->Var_Ptr);
  2e:	6843      	ldr	r3, [r0, #4]
  30:	881a      	ldrh	r2, [r3, #0]
  32:	e009      	b.n	48 <Keyboard_Edit_Variable+0x48>
C:\tien\PROJEKTY\procesory\STM\T104_V100a_GASTOP\sources/gui.c:1669
        case VAR_U32:
            Edit_Variable = *(uint32_t*)(Variable_Editing_Ptr->Var_Ptr);
        break;

        case VAR_S8:
            Edit_Variable = *(int8_t*)(Variable_Editing_Ptr->Var_Ptr);
  34:	6843      	ldr	r3, [r0, #4]
  36:	f993 2000 	ldrsb.w	r2, [r3]
  3a:	e005      	b.n	48 <Keyboard_Edit_Variable+0x48>
C:\tien\PROJEKTY\procesory\STM\T104_V100a_GASTOP\sources/gui.c:1673
        break;

        case VAR_S16:
            Edit_Variable = *(int16_t*)(Variable_Editing_Ptr->Var_Ptr);
  3c:	6843      	ldr	r3, [r0, #4]
  3e:	f9b3 2000 	ldrsh.w	r2, [r3]
  42:	e001      	b.n	48 <Keyboard_Edit_Variable+0x48>
C:\tien\PROJEKTY\procesory\STM\T104_V100a_GASTOP\sources/gui.c:1677
        break;

        case VAR_S32:
            Edit_Variable = *(int32_t*)(Variable_Editing_Ptr->Var_Ptr);
  44:	6843      	ldr	r3, [r0, #4]
  46:	681a      	ldr	r2, [r3, #0]
  48:	4b22      	ldr	r3, [pc, #136]	(d4 <Keyboard_Edit_Variable+0xd4>)
  4a:	61da      	str	r2, [r3, #28]
C:\tien\PROJEKTY\procesory\STM\T104_V100a_GASTOP\sources/gui.c:1680
        break;
    }
    switch ( Keyboard.Keyboard_Memory )
  4c:	4b22      	ldr	r3, [pc, #136]	(d8 <Keyboard_Edit_Variable+0xd8>)
  4e:	781b      	ldrb	r3, [r3, #0]
  50:	2b04      	cmp	r3, #4
  52:	d012      	beq.n	7a <Keyboard_Edit_Variable+0x7a>
  54:	2b10      	cmp	r3, #16
  56:	d124      	bne.n	a2 <Keyboard_Edit_Variable+0xa2>
C:\tien\PROJEKTY\procesory\STM\T104_V100a_GASTOP\sources/gui.c:1683
    {
        case KEY_RIGHT:
            if ( (Edit_Variable_Max - Edit_Variable) < Add_Tab[Count_Add] )
  58:	4b20      	ldr	r3, [pc, #128]	(dc <Keyboard_Edit_Variable+0xdc>)
  5a:	4c1e      	ldr	r4, [pc, #120]	(d4 <Keyboard_Edit_Variable+0xd4>)
  5c:	7819      	ldrb	r1, [r3, #0]
  5e:	4b20      	ldr	r3, [pc, #128]	(e0 <Keyboard_Edit_Variable+0xe0>)
  60:	69e2      	ldr	r2, [r4, #28]
  62:	eb03 0381 	add.w	r3, r3, r1, lsl #2
  66:	f8d3 1158 	ldr.w	r1, [r3, #344]
  6a:	1aaa      	subs	r2, r5, r2
  6c:	428a      	cmp	r2, r1
  6e:	da01      	bge.n	74 <Keyboard_Edit_Variable+0x74>
C:\tien\PROJEKTY\procesory\STM\T104_V100a_GASTOP\sources/gui.c:1685
            {
                Edit_Variable = Edit_Variable_Min;
  70:	61e6      	str	r6, [r4, #28]
  72:	e013      	b.n	9c <Keyboard_Edit_Variable+0x9c>
C:\tien\PROJEKTY\procesory\STM\T104_V100a_GASTOP\sources/gui.c:1689
            }
            else
            {
                Edit_Variable += Add_Tab[Count_Add];
  74:	69e3      	ldr	r3, [r4, #28]
  76:	18cb      	adds	r3, r1, r3
  78:	e00f      	b.n	9a <Keyboard_Edit_Variable+0x9a>
C:\tien\PROJEKTY\procesory\STM\T104_V100a_GASTOP\sources/gui.c:1695
            }
            Reload_Screen = TRUE;
        break;

        case KEY_LEFT:
            if ( (Edit_Variable - Edit_Variable_Min) < Add_Tab[Count_Add] )
  7a:	4b18      	ldr	r3, [pc, #96]	(dc <Keyboard_Edit_Variable+0xdc>)
  7c:	4c15      	ldr	r4, [pc, #84]	(d4 <Keyboard_Edit_Variable+0xd4>)
  7e:	7819      	ldrb	r1, [r3, #0]
  80:	4b17      	ldr	r3, [pc, #92]	(e0 <Keyboard_Edit_Variable+0xe0>)
  82:	69e2      	ldr	r2, [r4, #28]
  84:	eb03 0381 	add.w	r3, r3, r1, lsl #2
  88:	f8d3 1158 	ldr.w	r1, [r3, #344]
  8c:	1b92      	subs	r2, r2, r6
  8e:	428a      	cmp	r2, r1
  90:	da01      	bge.n	96 <Keyboard_Edit_Variable+0x96>
C:\tien\PROJEKTY\procesory\STM\T104_V100a_GASTOP\sources/gui.c:1697
            {
                Edit_Variable = Edit_Variable_Max;
  92:	61e5      	str	r5, [r4, #28]
  94:	e002      	b.n	9c <Keyboard_Edit_Variable+0x9c>
C:\tien\PROJEKTY\procesory\STM\T104_V100a_GASTOP\sources/gui.c:1701
            }
            else
            {
                Edit_Variable -= Add_Tab[Count_Add];
  96:	69e3      	ldr	r3, [r4, #28]
  98:	1a5b      	subs	r3, r3, r1
  9a:	61e3      	str	r3, [r4, #28]
C:\tien\PROJEKTY\procesory\STM\T104_V100a_GASTOP\sources/gui.c:1703
            }
            Reload_Screen = TRUE;
  9c:	4b11      	ldr	r3, [pc, #68]	(e4 <Keyboard_Edit_Variable+0xe4>)
  9e:	2201      	movs	r2, #1
  a0:	701a      	strb	r2, [r3, #0]
C:\tien\PROJEKTY\procesory\STM\T104_V100a_GASTOP\sources/gui.c:1707
        break;
    }

    switch ( Variable_Editing_Ptr->Var_Param_Ptr->Variable_Size )
  a2:	f1bc 0f05 	cmp.w	ip, #5	; 0x5
  a6:	d812      	bhi.n	ce <Keyboard_Edit_Variable+0xce>
  a8:	e8df f00c 	tbb	[pc, ip]
  ac:	030d0803 	.word	0x030d0803
  b0:	0d08      	.short	0x0d08
C:\tien\PROJEKTY\procesory\STM\T104_V100a_GASTOP\sources/gui.c:1722
        case VAR_U32:
            *(uint32_t*)(Variable_Editing_Ptr->Var_Ptr) = Edit_Variable;
        break;

        case VAR_S8:
            *(int8_t*)(Variable_Editing_Ptr->Var_Ptr) = Edit_Variable;
  b2:	4b08      	ldr	r3, [pc, #32]	(d4 <Keyboard_Edit_Variable+0xd4>)
  b4:	69da      	ldr	r2, [r3, #28]
  b6:	6843      	ldr	r3, [r0, #4]
  b8:	701a      	strb	r2, [r3, #0]
  ba:	e008      	b.n	ce <Keyboard_Edit_Variable+0xce>
C:\tien\PROJEKTY\procesory\STM\T104_V100a_GASTOP\sources/gui.c:1726
        break;

        case VAR_S16:
            *(int16_t*)(Variable_Editing_Ptr->Var_Ptr) = Edit_Variable;
  bc:	4b05      	ldr	r3, [pc, #20]	(d4 <Keyboard_Edit_Variable+0xd4>)
  be:	69da      	ldr	r2, [r3, #28]
  c0:	6843      	ldr	r3, [r0, #4]
  c2:	801a      	strh	r2, [r3, #0]
  c4:	e003      	b.n	ce <Keyboard_Edit_Variable+0xce>
C:\tien\PROJEKTY\procesory\STM\T104_V100a_GASTOP\sources/gui.c:1730
        break;

        case VAR_S32:
            *(int32_t*)(Variable_Editing_Ptr->Var_Ptr) = Edit_Variable;
  c6:	4b03      	ldr	r3, [pc, #12]	(d4 <Keyboard_Edit_Variable+0xd4>)
  c8:	69da      	ldr	r2, [r3, #28]
  ca:	6843      	ldr	r3, [r0, #4]
  cc:	601a      	str	r2, [r3, #0]
C:\tien\PROJEKTY\procesory\STM\T104_V100a_GASTOP\sources/gui.c:1734
        break;
    }

}
  ce:	bd70      	pop	{r4, r5, r6, pc}
	...
Disassembly of section .text.First_Editable_Variable:

00000000 <First_Editable_Variable>:
First_Editable_Variable():
C:\tien\PROJEKTY\procesory\STM\T104_V100a_GASTOP\sources/gui.c:1762
* Output         : None
* Return         : None
*******************************************************************************/
void First_Editable_Variable ( void )
{
    Variable_Editing_Ptr = Screen_Lcd[Screen_Number].Screen_Objects->Variable_Ptr;
   0:	4b09      	ldr	r3, [pc, #36]	(28 <First_Editable_Variable+0x28>)
   2:	781a      	ldrb	r2, [r3, #0]
   4:	4b09      	ldr	r3, [pc, #36]	(2c <First_Editable_Variable+0x2c>)
   6:	eb03 03c2 	add.w	r3, r3, r2, lsl #3
   a:	685b      	ldr	r3, [r3, #4]
   c:	689a      	ldr	r2, [r3, #8]
   e:	4b08      	ldr	r3, [pc, #32]	(30 <First_Editable_Variable+0x30>)
  10:	601a      	str	r2, [r3, #0]
  12:	e003      	b.n	1c <First_Editable_Variable+0x1c>
C:\tien\PROJEKTY\procesory\STM\T104_V100a_GASTOP\sources/gui.c:1767

    while ( Variable_Editing_Ptr != NULL )
    {

        if ( Variable_Editing_Ptr->Edit_Var == TRUE )
  14:	7a13      	ldrb	r3, [r2, #8]
  16:	2b01      	cmp	r3, #1
  18:	d002      	beq.n	20 <First_Editable_Variable+0x20>
C:\tien\PROJEKTY\procesory\STM\T104_V100a_GASTOP\sources/gui.c:1773
        {
            break;
        }
        else
        {
            Variable_Editing_Ptr = Variable_Editing_Ptr->Next_Variable;
  1a:	6952      	ldr	r2, [r2, #20]
C:\tien\PROJEKTY\procesory\STM\T104_V100a_GASTOP\sources/gui.c:1764
*******************************************************************************/
void First_Editable_Variable ( void )
{
    Variable_Editing_Ptr = Screen_Lcd[Screen_Number].Screen_Objects->Variable_Ptr;

    while ( Variable_Editing_Ptr != NULL )
  1c:	2a00      	cmp	r2, #0
  1e:	d1f9      	bne.n	14 <First_Editable_Variable+0x14>
  20:	4b03      	ldr	r3, [pc, #12]	(30 <First_Editable_Variable+0x30>)
  22:	601a      	str	r2, [r3, #0]
C:\tien\PROJEKTY\procesory\STM\T104_V100a_GASTOP\sources/gui.c:1776
        else
        {
            Variable_Editing_Ptr = Variable_Editing_Ptr->Next_Variable;
        }
    }
}
  24:	4770      	bx	lr
  26:	46c0      	nop			(mov r8, r8)
	...
Disassembly of section .text.Next_Editable_Variable:

00000000 <Next_Editable_Variable>:
Next_Editable_Variable():
C:\tien\PROJEKTY\procesory\STM\T104_V100a_GASTOP\sources/gui.c:1788
*******************************************************************************/
uint8_t Next_Editable_Variable ( void )
{
//    Variable_Editing_Ptr = Screen_Lcd[Screen_Number].Screen_Objects->Variable_Ptr->Next_Variable;

    Variable_Editing_Ptr = Variable_Editing_Ptr->Next_Variable;
   0:	4a08      	ldr	r2, [pc, #32]	(24 <Next_Editable_Variable+0x24>)
   2:	6813      	ldr	r3, [r2, #0]
   4:	6958      	ldr	r0, [r3, #20]
   6:	6010      	str	r0, [r2, #0]
   8:	e007      	b.n	1a <Next_Editable_Variable+0x1a>
C:\tien\PROJEKTY\procesory\STM\T104_V100a_GASTOP\sources/gui.c:1792

    while ( Variable_Editing_Ptr != NULL )
    {
        if ( Variable_Editing_Ptr->Edit_Var == TRUE )
   a:	7a02      	ldrb	r2, [r0, #8]
   c:	2a01      	cmp	r2, #1
   e:	d103      	bne.n	18 <Next_Editable_Variable+0x18>
  10:	4b04      	ldr	r3, [pc, #16]	(24 <Next_Editable_Variable+0x24>)
  12:	6018      	str	r0, [r3, #0]
  14:	4610      	mov	r0, r2
  16:	e004      	b.n	22 <Next_Editable_Variable+0x22>
C:\tien\PROJEKTY\procesory\STM\T104_V100a_GASTOP\sources/gui.c:1798
        {
            return TRUE;
        }
        else
        {
            Variable_Editing_Ptr = Variable_Editing_Ptr->Next_Variable;
  18:	6940      	ldr	r0, [r0, #20]
C:\tien\PROJEKTY\procesory\STM\T104_V100a_GASTOP\sources/gui.c:1790
{
//    Variable_Editing_Ptr = Screen_Lcd[Screen_Number].Screen_Objects->Variable_Ptr->Next_Variable;

    Variable_Editing_Ptr = Variable_Editing_Ptr->Next_Variable;

    while ( Variable_Editing_Ptr != NULL )
  1a:	2800      	cmp	r0, #0
  1c:	d1f5      	bne.n	a <Next_Editable_Variable+0xa>
  1e:	4b01      	ldr	r3, [pc, #4]	(24 <Next_Editable_Variable+0x24>)
  20:	6018      	str	r0, [r3, #0]
C:\tien\PROJEKTY\procesory\STM\T104_V100a_GASTOP\sources/gui.c:1802
        {
            Variable_Editing_Ptr = Variable_Editing_Ptr->Next_Variable;
        }
    }
    return FALSE;
}
  22:	4770      	bx	lr
  24:	00000000 	.word	0x00000000
Disassembly of section .text.Keyboard_Standby:

00000000 <Keyboard_Standby>:
Keyboard_Standby():
C:\tien\PROJEKTY\procesory\STM\T104_V100a_GASTOP\sources/gui.c:1920
* Output         : None
* Return         : None
*******************************************************************************/
static void Keyboard_Standby ( void )
{
    if ( Keyboard.Keyboard_Memory != 0 && Keyboard.Keyboard_Flag == 1 )
   0:	4b09      	ldr	r3, [pc, #36]	(28 <Keyboard_Standby+0x28>)
   2:	781a      	ldrb	r2, [r3, #0]
   4:	b15a      	cbz	r2, 1e <Keyboard_Standby+0x1e>
   6:	789b      	ldrb	r3, [r3, #2]
   8:	2b01      	cmp	r3, #1
   a:	d108      	bne.n	1e <Keyboard_Standby+0x1e>
C:\tien\PROJEKTY\procesory\STM\T104_V100a_GASTOP\sources/gui.c:1922
    {
        switch ( Keyboard.Keyboard_Memory )
   c:	2a01      	cmp	r2, #1
   e:	d103      	bne.n	18 <Keyboard_Standby+0x18>
C:\tien\PROJEKTY\procesory\STM\T104_V100a_GASTOP\sources/gui.c:1925
        {
            case KEY_ENTER:
                Screen_Number = CONTROLLER_ON;
  10:	4b06      	ldr	r3, [pc, #24]	(2c <Keyboard_Standby+0x2c>)
  12:	701a      	strb	r2, [r3, #0]
C:\tien\PROJEKTY\procesory\STM\T104_V100a_GASTOP\sources/gui.c:1926
                Reload_Screen = TRUE;         
  14:	4b06      	ldr	r3, [pc, #24]	(30 <Keyboard_Standby+0x30>)
  16:	701a      	strb	r2, [r3, #0]
C:\tien\PROJEKTY\procesory\STM\T104_V100a_GASTOP\sources/gui.c:1929
            break; 
        }
        Keyboard.Keyboard_Flag = 0;
  18:	4b03      	ldr	r3, [pc, #12]	(28 <Keyboard_Standby+0x28>)
  1a:	2200      	movs	r2, #0
  1c:	709a      	strb	r2, [r3, #2]
C:\tien\PROJEKTY\procesory\STM\T104_V100a_GASTOP\sources/gui.c:1932
    }

    if ( Keyboard.Keyboard_State == 0 )
  1e:	4a02      	ldr	r2, [pc, #8]	(28 <Keyboard_Standby+0x28>)
  20:	7853      	ldrb	r3, [r2, #1]
  22:	b903      	cbnz	r3, 26 <Keyboard_Standby+0x26>
C:\tien\PROJEKTY\procesory\STM\T104_V100a_GASTOP\sources/gui.c:1934
    {
        Keyboard.Keyboard_Memory = 0;
  24:	7013      	strb	r3, [r2, #0]
C:\tien\PROJEKTY\procesory\STM\T104_V100a_GASTOP\sources/gui.c:1936
    }
}
  26:	4770      	bx	lr
	...
Disassembly of section .text.Keyboard_Enable:

00000000 <Keyboard_Enable>:
Keyboard_Enable():
C:\tien\PROJEKTY\procesory\STM\T104_V100a_GASTOP\sources/gui.c:1948
* Return         : None
*******************************************************************************/
static void Keyboard_Enable ( void )
{

    if ( Keyboard.Keyboard_Memory != 0 && Keyboard.Keyboard_Flag == 1 )
   0:	4b10      	ldr	r3, [pc, #64]	(44 <Keyboard_Enable+0x44>)
   2:	7819      	ldrb	r1, [r3, #0]
   4:	b1c9      	cbz	r1, 3a <Keyboard_Enable+0x3a>
   6:	7898      	ldrb	r0, [r3, #2]
   8:	2801      	cmp	r0, #1
   a:	d116      	bne.n	3a <Keyboard_Enable+0x3a>
C:\tien\PROJEKTY\procesory\STM\T104_V100a_GASTOP\sources/gui.c:1950
    {
        switch ( Keyboard.Keyboard_Memory )
   c:	2901      	cmp	r1, #1
   e:	d007      	beq.n	20 <Keyboard_Enable+0x20>
  10:	2902      	cmp	r1, #2
  12:	d10f      	bne.n	34 <Keyboard_Enable+0x34>
C:\tien\PROJEKTY\procesory\STM\T104_V100a_GASTOP\sources/gui.c:1953
        {
            case KEY_ESCAPE:
                   Screen_Number = STANDBY;
  14:	4a0c      	ldr	r2, [pc, #48]	(48 <Keyboard_Enable+0x48>)
  16:	2300      	movs	r3, #0
  18:	7013      	strb	r3, [r2, #0]
C:\tien\PROJEKTY\procesory\STM\T104_V100a_GASTOP\sources/gui.c:1954
                    Reload_Screen = TRUE;
  1a:	4b0c      	ldr	r3, [pc, #48]	(4c <Keyboard_Enable+0x4c>)
  1c:	7018      	strb	r0, [r3, #0]
  1e:	e009      	b.n	34 <Keyboard_Enable+0x34>
C:\tien\PROJEKTY\procesory\STM\T104_V100a_GASTOP\sources/gui.c:1958
            break;

            case KEY_ENTER:
                    Menu_Keys.First_On_Screen = 0;
  20:	4a0b      	ldr	r2, [pc, #44]	(50 <Keyboard_Enable+0x50>)
  22:	2300      	movs	r3, #0
  24:	7453      	strb	r3, [r2, #17]
C:\tien\PROJEKTY\procesory\STM\T104_V100a_GASTOP\sources/gui.c:1959
                    Menu_Keys.Active_String = 0;
  26:	7493      	strb	r3, [r2, #18]
C:\tien\PROJEKTY\procesory\STM\T104_V100a_GASTOP\sources/gui.c:1960
                    Menu_Keys.Active_On_Screen = 0;
  28:	74d3      	strb	r3, [r2, #19]
C:\tien\PROJEKTY\procesory\STM\T104_V100a_GASTOP\sources/gui.c:1961
                    Screen_Number = MENU;
  2a:	4b07      	ldr	r3, [pc, #28]	(48 <Keyboard_Enable+0x48>)
  2c:	2202      	movs	r2, #2
  2e:	701a      	strb	r2, [r3, #0]
C:\tien\PROJEKTY\procesory\STM\T104_V100a_GASTOP\sources/gui.c:1962
                    Reload_Screen = TRUE;
  30:	4b06      	ldr	r3, [pc, #24]	(4c <Keyboard_Enable+0x4c>)
  32:	7019      	strb	r1, [r3, #0]
C:\tien\PROJEKTY\procesory\STM\T104_V100a_GASTOP\sources/gui.c:1968
            break;

            default:
            break;
        }
        Keyboard.Keyboard_Flag = 0;
  34:	4b03      	ldr	r3, [pc, #12]	(44 <Keyboard_Enable+0x44>)
  36:	2200      	movs	r2, #0
  38:	709a      	strb	r2, [r3, #2]
C:\tien\PROJEKTY\procesory\STM\T104_V100a_GASTOP\sources/gui.c:1971
    }

    if ( Keyboard.Keyboard_State == 0 )
  3a:	4a02      	ldr	r2, [pc, #8]	(44 <Keyboard_Enable+0x44>)
  3c:	7853      	ldrb	r3, [r2, #1]
  3e:	b903      	cbnz	r3, 42 <Keyboard_Enable+0x42>
C:\tien\PROJEKTY\procesory\STM\T104_V100a_GASTOP\sources/gui.c:1973
    {
        Keyboard.Keyboard_Memory = 0;
  40:	7013      	strb	r3, [r2, #0]
C:\tien\PROJEKTY\procesory\STM\T104_V100a_GASTOP\sources/gui.c:1975
    }
}
  42:	4770      	bx	lr
	...
Disassembly of section .text.Keyboard_Menu:

00000000 <Keyboard_Menu>:
Keyboard_Menu():
C:\tien\PROJEKTY\procesory\STM\T104_V100a_GASTOP\sources/gui.c:1985
* Input          : None
* Output         : None
* Return         : None
*******************************************************************************/
static void Keyboard_Menu ( void )
{
   0:	b51f      	push	{r0, r1, r2, r3, r4, lr}
C:\tien\PROJEKTY\procesory\STM\T104_V100a_GASTOP\sources/gui.c:1996
        DATA_I_CZAS,
        LICENCJA,
        TEST,
        HASLO,
        INFO,
    };
   2:	2209      	movs	r2, #9
   4:	f10d 0007 	add.w	r0, sp, #7	; 0x7
   8:	4933      	ldr	r1, [pc, #204]	(d0 <memcpy+0xd0>)
   a:	f7ff fffe 	bl	0 <memcpy>
C:\tien\PROJEKTY\procesory\STM\T104_V100a_GASTOP\sources/gui.c:1998

    if ( Keyboard.Keyboard_Memory != 0 && Keyboard.Keyboard_Flag == 1 )
   e:	4a33      	ldr	r2, [pc, #204]	(dc <Keyboard_Menu+0xdc>)
  10:	7813      	ldrb	r3, [r2, #0]
  12:	2b00      	cmp	r3, #0
  14:	d05b      	beq.n	ce <Keyboard_Menu+0xce>
  16:	7891      	ldrb	r1, [r2, #2]
  18:	2901      	cmp	r1, #1
  1a:	d158      	bne.n	ce <Keyboard_Menu+0xce>
C:\tien\PROJEKTY\procesory\STM\T104_V100a_GASTOP\sources/gui.c:2000
    {
        switch ( Keyboard.Keyboard_Memory )
  1c:	2b01      	cmp	r3, #1
  1e:	d009      	beq.n	34 <Keyboard_Menu+0x34>
  20:	2b02      	cmp	r3, #2
  22:	d14f      	bne.n	c4 <Keyboard_Menu+0xc4>
C:\tien\PROJEKTY\procesory\STM\T104_V100a_GASTOP\sources/gui.c:2003
        {
            case KEY_ESCAPE:
                Variable_Editing_Ptr = NULL;
  24:	4b2e      	ldr	r3, [pc, #184]	(e0 <Keyboard_Menu+0xe0>)
  26:	2200      	movs	r2, #0
  28:	601a      	str	r2, [r3, #0]
C:\tien\PROJEKTY\procesory\STM\T104_V100a_GASTOP\sources/gui.c:2004
                Screen_Number = CONTROLLER_ON;
  2a:	4b2e      	ldr	r3, [pc, #184]	(e4 <Keyboard_Menu+0xe4>)
  2c:	7019      	strb	r1, [r3, #0]
C:\tien\PROJEKTY\procesory\STM\T104_V100a_GASTOP\sources/gui.c:2005
                Reload_Screen = TRUE;
  2e:	4b2e      	ldr	r3, [pc, #184]	(e8 <Keyboard_Menu+0xe8>)
  30:	7019      	strb	r1, [r3, #0]
  32:	e049      	b.n	c8 <Keyboard_Menu+0xc8>
C:\tien\PROJEKTY\procesory\STM\T104_V100a_GASTOP\sources/gui.c:2009
            break;

            case KEY_ENTER:
                Menu_Backup_Keys = Menu_Keys;
  34:	4c2d      	ldr	r4, [pc, #180]	(ec <Keyboard_Menu+0xec>)
  36:	2203      	movs	r2, #3
  38:	f104 0111 	add.w	r1, r4, #17	; 0x11
  3c:	482c      	ldr	r0, [pc, #176]	(b4 <memcpy+0xb4>)
  3e:	f7ff fffe 	bl	0 <memcpy>
C:\tien\PROJEKTY\procesory\STM\T104_V100a_GASTOP\sources/gui.c:2010
                Screen_Number = Next_Screen[Menu_Keys.Active_String];
  42:	7ca3      	ldrb	r3, [r4, #18]
  44:	aa04      	add	r2, sp, #16
  46:	18d3      	adds	r3, r2, r3
  48:	f813 4c09 	ldrb.w	r4, [r3, #-9]
  4c:	4b25      	ldr	r3, [pc, #148]	(e4 <Keyboard_Menu+0xe4>)
C:\tien\PROJEKTY\procesory\STM\T104_V100a_GASTOP\sources/gui.c:2012
 
                if ( Screen_Number == DATA_I_CZAS )
  4e:	2c06      	cmp	r4, #6
C:\tien\PROJEKTY\procesory\STM\T104_V100a_GASTOP\sources/gui.c:2010
                Reload_Screen = TRUE;
            break;

            case KEY_ENTER:
                Menu_Backup_Keys = Menu_Keys;
                Screen_Number = Next_Screen[Menu_Keys.Active_String];
  50:	701c      	strb	r4, [r3, #0]
C:\tien\PROJEKTY\procesory\STM\T104_V100a_GASTOP\sources/gui.c:2012
 
                if ( Screen_Number == DATA_I_CZAS )
  52:	d10e      	bne.n	72 <Keyboard_Menu+0x72>
C:\tien\PROJEKTY\procesory\STM\T104_V100a_GASTOP\sources/gui.c:2014
                {
                    Time_Set = Time;
  54:	4927      	ldr	r1, [pc, #156]	(f4 <Keyboard_Menu+0xf4>)
  56:	2203      	movs	r2, #3
  58:	4827      	ldr	r0, [pc, #156]	(f8 <Keyboard_Menu+0xf8>)
  5a:	f7ff fffe 	bl	0 <memcpy>
C:\tien\PROJEKTY\procesory\STM\T104_V100a_GASTOP\sources/gui.c:2015
                    Date_Set = Date;
  5e:	4622      	mov	r2, r4
  60:	4826      	ldr	r0, [pc, #152]	(fc <Keyboard_Menu+0xfc>)
  62:	4927      	ldr	r1, [pc, #156]	(100 <Keyboard_Menu+0x100>)
  64:	f7ff fffe 	bl	0 <memcpy>
C:\tien\PROJEKTY\procesory\STM\T104_V100a_GASTOP\sources/gui.c:2016
                    Count_Add = 0;
  68:	4b26      	ldr	r3, [pc, #152]	(104 <Keyboard_Menu+0x104>)
  6a:	2200      	movs	r2, #0
  6c:	701a      	strb	r2, [r3, #0]
C:\tien\PROJEKTY\procesory\STM\T104_V100a_GASTOP\sources/gui.c:2017
                    First_Editable_Variable();
  6e:	f7ff fffe 	bl	0 <Keyboard_Menu>
C:\tien\PROJEKTY\procesory\STM\T104_V100a_GASTOP\sources/gui.c:2020
                }
    
                if ( Screen_Number == FUNCTIONS1 || Screen_Number == WYB_BRAM )
  72:	4b1c      	ldr	r3, [pc, #112]	(e4 <Keyboard_Menu+0xe4>)
  74:	781b      	ldrb	r3, [r3, #0]
  76:	2b17      	cmp	r3, #23
  78:	d001      	beq.n	7e <Keyboard_Menu+0x7e>
  7a:	2b05      	cmp	r3, #5
  7c:	d104      	bne.n	88 <Keyboard_Menu+0x88>
C:\tien\PROJEKTY\procesory\STM\T104_V100a_GASTOP\sources/gui.c:2022
                {
                    Count_Add = 0;
  7e:	4b21      	ldr	r3, [pc, #132]	(104 <Keyboard_Menu+0x104>)
  80:	2200      	movs	r2, #0
  82:	701a      	strb	r2, [r3, #0]
C:\tien\PROJEKTY\procesory\STM\T104_V100a_GASTOP\sources/gui.c:2023
                    First_Editable_Variable();
  84:	f7ff fffe 	bl	0 <Keyboard_Menu>
C:\tien\PROJEKTY\procesory\STM\T104_V100a_GASTOP\sources/gui.c:2026
                }
            
                if ( Screen_Number == PARAM_STER || Screen_Number == UST_STER || Screen_Number == TEST )
  88:	4b16      	ldr	r3, [pc, #88]	(e4 <Keyboard_Menu+0xe4>)
  8a:	7819      	ldrb	r1, [r3, #0]
  8c:	1ecb      	subs	r3, r1, #3
  8e:	b2db      	uxtb	r3, r3
  90:	2b01      	cmp	r3, #1
  92:	d901      	bls.n	98 <Keyboard_Menu+0x98>
  94:	2908      	cmp	r1, #8
  96:	d104      	bne.n	a2 <Keyboard_Menu+0xa2>
C:\tien\PROJEKTY\procesory\STM\T104_V100a_GASTOP\sources/gui.c:2028
                {
                    Menu_Keys.First_On_Screen = 0;
  98:	4a14      	ldr	r2, [pc, #80]	(ec <Keyboard_Menu+0xec>)
  9a:	2300      	movs	r3, #0
  9c:	7453      	strb	r3, [r2, #17]
C:\tien\PROJEKTY\procesory\STM\T104_V100a_GASTOP\sources/gui.c:2029
                    Menu_Keys.Active_String = 0;
  9e:	7493      	strb	r3, [r2, #18]
C:\tien\PROJEKTY\procesory\STM\T104_V100a_GASTOP\sources/gui.c:2030
                    Menu_Keys.Active_On_Screen = 0;    
  a0:	74d3      	strb	r3, [r2, #19]
C:\tien\PROJEKTY\procesory\STM\T104_V100a_GASTOP\sources/gui.c:2033
                }
            
                if ( Screen_Number == HASLO )
  a2:	2909      	cmp	r1, #9
  a4:	d10a      	bne.n	bc <Keyboard_Menu+0xbc>
C:\tien\PROJEKTY\procesory\STM\T104_V100a_GASTOP\sources/gui.c:2035
                {
                   Count_Add = 0;
  a6:	4b17      	ldr	r3, [pc, #92]	(104 <Keyboard_Menu+0x104>)
  a8:	2200      	movs	r2, #0
  aa:	701a      	strb	r2, [r3, #0]
C:\tien\PROJEKTY\procesory\STM\T104_V100a_GASTOP\sources/gui.c:2036
                   First_Editable_Variable();
  ac:	f7ff fffe 	bl	0 <Keyboard_Menu>
C:\tien\PROJEKTY\procesory\STM\T104_V100a_GASTOP\sources/gui.c:2037
                   Screen_Before_Password = MENU;
  b0:	4b15      	ldr	r3, [pc, #84]	(108 <Keyboard_Menu+0x108>)
  b2:	2202      	movs	r2, #2
  b4:	701a      	strb	r2, [r3, #0]
C:\tien\PROJEKTY\procesory\STM\T104_V100a_GASTOP\sources/gui.c:2038
                   Screen_After_Password = UST_FABRYCZNE;
  b6:	4b15      	ldr	r3, [pc, #84]	(10c <Keyboard_Menu+0x10c>)
  b8:	321f      	adds	r2, #31
  ba:	701a      	strb	r2, [r3, #0]
C:\tien\PROJEKTY\procesory\STM\T104_V100a_GASTOP\sources/gui.c:2041
                }
            
                Reload_Screen = TRUE;       
  bc:	4b0a      	ldr	r3, [pc, #40]	(e8 <Keyboard_Menu+0xe8>)
  be:	2201      	movs	r2, #1
  c0:	701a      	strb	r2, [r3, #0]
  c2:	e001      	b.n	c8 <Keyboard_Menu+0xc8>
C:\tien\PROJEKTY\procesory\STM\T104_V100a_GASTOP\sources/gui.c:2045
            break;
            
            default:
                Menu_Keyboard();
  c4:	f7ff fffe 	bl	0 <Keyboard_Menu>
C:\tien\PROJEKTY\procesory\STM\T104_V100a_GASTOP\sources/gui.c:2048
            break;
        }
        Keyboard.Keyboard_Flag = 0;
  c8:	4b04      	ldr	r3, [pc, #16]	(dc <Keyboard_Menu+0xdc>)
  ca:	2200      	movs	r2, #0
  cc:	709a      	strb	r2, [r3, #2]
C:\tien\PROJEKTY\procesory\STM\T104_V100a_GASTOP\sources/gui.c:2051
    }

    if ( Keyboard.Keyboard_State == 0 )
  ce:	4a03      	ldr	r2, [pc, #12]	(dc <Keyboard_Menu+0xdc>)
  d0:	7853      	ldrb	r3, [r2, #1]
  d2:	b903      	cbnz	r3, d6 <Keyboard_Menu+0xd6>
C:\tien\PROJEKTY\procesory\STM\T104_V100a_GASTOP\sources/gui.c:2053
    {
        Keyboard.Keyboard_Memory = 0;
  d4:	7013      	strb	r3, [r2, #0]
C:\tien\PROJEKTY\procesory\STM\T104_V100a_GASTOP\sources/gui.c:2055
    }
}
  d6:	bd1f      	pop	{r0, r1, r2, r3, r4, pc}
  d8:	00000178 	.word	0x00000178
	...
Disassembly of section .text.Keyboard_Param:

00000000 <Keyboard_Param>:
Keyboard_Param():
C:\tien\PROJEKTY\procesory\STM\T104_V100a_GASTOP\sources/gui.c:2129
* Input          : None
* Output         : None
* Return         : None
*******************************************************************************/
static void Keyboard_Param ( void )
{
   0:	b573      	push	{r0, r1, r4, r5, r6, lr}
C:\tien\PROJEKTY\procesory\STM\T104_V100a_GASTOP\sources/gui.c:2135
    _Screen_Number Next_Param_Screen[] = {
        HASLO,
        PARAM_STER1,
        HASLO,
        OSWIETLENIE,
    };
   2:	2204      	movs	r2, #4
   4:	4923      	ldr	r1, [pc, #140]	(94 <Keyboard_Param+0x94>)
   6:	a801      	add	r0, sp, #4
   8:	f7ff fffe 	bl	0 <memcpy>
C:\tien\PROJEKTY\procesory\STM\T104_V100a_GASTOP\sources/gui.c:2142
    _Screen_Number After_Pass_Screen[] = {
        PARAM_MECH1,
        PARAM_STER1,
        HEAT_COOL1,
        OSWIETLENIE,
    };
   c:	4668      	mov	r0, sp
   e:	4922      	ldr	r1, [pc, #136]	(98 <Keyboard_Param+0x98>)
  10:	2204      	movs	r2, #4
  12:	f7ff fffe 	bl	0 <memcpy>
C:\tien\PROJEKTY\procesory\STM\T104_V100a_GASTOP\sources/gui.c:2144

    if ( Keyboard.Keyboard_Memory != 0 && Keyboard.Keyboard_Flag == 1 )
  16:	4b21      	ldr	r3, [pc, #132]	(9c <Keyboard_Param+0x9c>)
  18:	781e      	ldrb	r6, [r3, #0]
  1a:	2e00      	cmp	r6, #0
  1c:	d035      	beq.n	8a <Keyboard_Param+0x8a>
  1e:	789c      	ldrb	r4, [r3, #2]
  20:	2c01      	cmp	r4, #1
  22:	d132      	bne.n	8a <Keyboard_Param+0x8a>
C:\tien\PROJEKTY\procesory\STM\T104_V100a_GASTOP\sources/gui.c:2146
    {
        switch ( Keyboard.Keyboard_Memory )
  24:	2e01      	cmp	r6, #1
  26:	d00e      	beq.n	46 <Keyboard_Param+0x46>
  28:	2e02      	cmp	r6, #2
  2a:	d129      	bne.n	80 <Keyboard_Param+0x80>
C:\tien\PROJEKTY\procesory\STM\T104_V100a_GASTOP\sources/gui.c:2149
        {
            case KEY_ESCAPE:
                    Variable_Editing_Ptr = NULL;
  2c:	4b1c      	ldr	r3, [pc, #112]	(a0 <Keyboard_Param+0xa0>)
  2e:	2200      	movs	r2, #0
  30:	601a      	str	r2, [r3, #0]
C:\tien\PROJEKTY\procesory\STM\T104_V100a_GASTOP\sources/gui.c:2150
                    Menu_Keys = Menu_Backup_Keys;
  32:	481c      	ldr	r0, [pc, #112]	(a4 <Keyboard_Param+0xa4>)
  34:	491c      	ldr	r1, [pc, #112]	(a8 <Keyboard_Param+0xa8>)
  36:	3203      	adds	r2, #3
  38:	f7ff fffe 	bl	0 <memcpy>
C:\tien\PROJEKTY\procesory\STM\T104_V100a_GASTOP\sources/gui.c:2151
                    Screen_Number = MENU;
  3c:	4b1b      	ldr	r3, [pc, #108]	(ac <Keyboard_Param+0xac>)
  3e:	701e      	strb	r6, [r3, #0]
C:\tien\PROJEKTY\procesory\STM\T104_V100a_GASTOP\sources/gui.c:2152
                    Reload_Screen = TRUE;
  40:	4b1b      	ldr	r3, [pc, #108]	(b0 <Keyboard_Param+0xb0>)
  42:	701c      	strb	r4, [r3, #0]
  44:	e01e      	b.n	84 <Keyboard_Param+0x84>
C:\tien\PROJEKTY\procesory\STM\T104_V100a_GASTOP\sources/gui.c:2156
            break;

            case KEY_ENTER:
                   Menu_Backup_Keys_Set = Menu_Keys;
  46:	4c1b      	ldr	r4, [pc, #108]	(b4 <Keyboard_Param+0xb4>)
  48:	2503      	movs	r5, #3
  4a:	f104 0111 	add.w	r1, r4, #17	; 0x11
  4e:	462a      	mov	r2, r5
  50:	4819      	ldr	r0, [pc, #100]	(b8 <Keyboard_Param+0xb8>)
  52:	f7ff fffe 	bl	0 <memcpy>
C:\tien\PROJEKTY\procesory\STM\T104_V100a_GASTOP\sources/gui.c:2157
                   Screen_Number = Next_Param_Screen[Menu_Keys.Active_String];
  56:	7ca3      	ldrb	r3, [r4, #18]
  58:	aa02      	add	r2, sp, #8
  5a:	18d1      	adds	r1, r2, r3
  5c:	f811 2c04 	ldrb.w	r2, [r1, #-4]
  60:	4b12      	ldr	r3, [pc, #72]	(ac <Keyboard_Param+0xac>)
  62:	701a      	strb	r2, [r3, #0]
C:\tien\PROJEKTY\procesory\STM\T104_V100a_GASTOP\sources/gui.c:2158
                   Screen_Before_Password = PARAM_STER;
  64:	4b15      	ldr	r3, [pc, #84]	(bc <Keyboard_Param+0xbc>)
C:\tien\PROJEKTY\procesory\STM\T104_V100a_GASTOP\sources/gui.c:2159
                   Screen_After_Password = After_Pass_Screen[Menu_Keys.Active_String];
  66:	f811 2c08 	ldrb.w	r2, [r1, #-8]
C:\tien\PROJEKTY\procesory\STM\T104_V100a_GASTOP\sources/gui.c:2158
            break;

            case KEY_ENTER:
                   Menu_Backup_Keys_Set = Menu_Keys;
                   Screen_Number = Next_Param_Screen[Menu_Keys.Active_String];
                   Screen_Before_Password = PARAM_STER;
  6a:	701d      	strb	r5, [r3, #0]
C:\tien\PROJEKTY\procesory\STM\T104_V100a_GASTOP\sources/gui.c:2159
                   Screen_After_Password = After_Pass_Screen[Menu_Keys.Active_String];
  6c:	4b14      	ldr	r3, [pc, #80]	(c0 <Keyboard_Param+0xc0>)
  6e:	701a      	strb	r2, [r3, #0]
C:\tien\PROJEKTY\procesory\STM\T104_V100a_GASTOP\sources/gui.c:2160
                   Count_Add = 0;
  70:	4b14      	ldr	r3, [pc, #80]	(c4 <Keyboard_Param+0xc4>)
  72:	2200      	movs	r2, #0
  74:	701a      	strb	r2, [r3, #0]
C:\tien\PROJEKTY\procesory\STM\T104_V100a_GASTOP\sources/gui.c:2161
                   First_Editable_Variable();
  76:	f7ff fffe 	bl	0 <Keyboard_Param>
C:\tien\PROJEKTY\procesory\STM\T104_V100a_GASTOP\sources/gui.c:2162
                   Reload_Screen = TRUE;
  7a:	4b0d      	ldr	r3, [pc, #52]	(b0 <Keyboard_Param+0xb0>)
  7c:	701e      	strb	r6, [r3, #0]
  7e:	e001      	b.n	84 <Keyboard_Param+0x84>
C:\tien\PROJEKTY\procesory\STM\T104_V100a_GASTOP\sources/gui.c:2166
            break;

            default:
                   Menu_Keyboard();
  80:	f7ff fffe 	bl	0 <Keyboard_Param>
C:\tien\PROJEKTY\procesory\STM\T104_V100a_GASTOP\sources/gui.c:2169
            break;
        }
        Keyboard.Keyboard_Flag = 0;
  84:	4b05      	ldr	r3, [pc, #20]	(9c <Keyboard_Param+0x9c>)
  86:	2200      	movs	r2, #0
  88:	709a      	strb	r2, [r3, #2]
C:\tien\PROJEKTY\procesory\STM\T104_V100a_GASTOP\sources/gui.c:2172
    }

    if ( Keyboard.Keyboard_State == 0 )
  8a:	4a04      	ldr	r2, [pc, #16]	(9c <Keyboard_Param+0x9c>)
  8c:	7853      	ldrb	r3, [r2, #1]
  8e:	b903      	cbnz	r3, 92 <Keyboard_Param+0x92>
C:\tien\PROJEKTY\procesory\STM\T104_V100a_GASTOP\sources/gui.c:2174
    {
        Keyboard.Keyboard_Memory = 0;
  90:	7013      	strb	r3, [r2, #0]
C:\tien\PROJEKTY\procesory\STM\T104_V100a_GASTOP\sources/gui.c:2176
    }
}
  92:	bd7c      	pop	{r2, r3, r4, r5, r6, pc}
  94:	00000181 	.word	0x00000181
  98:	00000185 	.word	0x00000185
	...
  a4:	00000011 	.word	0x00000011
	...
Disassembly of section .text.Keyboard_Set:

00000000 <Keyboard_Set>:
Keyboard_Set():
C:\tien\PROJEKTY\procesory\STM\T104_V100a_GASTOP\sources/gui.c:2186
* Input          : None
* Output         : None
* Return         : None
*******************************************************************************/
static void Keyboard_Set ( void )
{
   0:	b530      	push	{r4, r5, lr}
   2:	b085      	sub	sp, #20
C:\tien\PROJEKTY\procesory\STM\T104_V100a_GASTOP\sources/gui.c:2193
        WYB_JEZ,
        HASLO,
        HASLO,
        HASLO, 
        HASLO,    
    };
   4:	492b      	ldr	r1, [pc, #172]	(b4 <Keyboard_Set+0xb4>)
   6:	2205      	movs	r2, #5
   8:	f10d 000b 	add.w	r0, sp, #11	; 0xb
   c:	f7ff fffe 	bl	0 <memcpy>
C:\tien\PROJEKTY\procesory\STM\T104_V100a_GASTOP\sources/gui.c:2201
        WYB_JEZ,
        HAS_MENU,
        HAS_BLOK,
        KAL_RTC, 
        ZER_LICZNIKI,
    };
  10:	f10d 0006 	add.w	r0, sp, #6	; 0x6
  14:	4928      	ldr	r1, [pc, #160]	(b8 <Keyboard_Set+0xb8>)
  16:	2205      	movs	r2, #5
  18:	f7ff fffe 	bl	0 <memcpy>
C:\tien\PROJEKTY\procesory\STM\T104_V100a_GASTOP\sources/gui.c:2205



    if ( Keyboard.Keyboard_Memory != 0 && Keyboard.Keyboard_Flag == 1 )
  1c:	4b27      	ldr	r3, [pc, #156]	(bc <Keyboard_Set+0xbc>)
  1e:	781d      	ldrb	r5, [r3, #0]
  20:	2d00      	cmp	r5, #0
  22:	d040      	beq.n	a6 <Keyboard_Set+0xa6>
  24:	789c      	ldrb	r4, [r3, #2]
  26:	2c01      	cmp	r4, #1
  28:	d13d      	bne.n	a6 <Keyboard_Set+0xa6>
C:\tien\PROJEKTY\procesory\STM\T104_V100a_GASTOP\sources/gui.c:2207
    {
        switch ( Keyboard.Keyboard_Memory )
  2a:	2d01      	cmp	r5, #1
  2c:	d00e      	beq.n	4c <Keyboard_Set+0x4c>
  2e:	2d02      	cmp	r5, #2
  30:	d134      	bne.n	9c <Keyboard_Set+0x9c>
C:\tien\PROJEKTY\procesory\STM\T104_V100a_GASTOP\sources/gui.c:2210
        {
            case KEY_ESCAPE:
                    Variable_Editing_Ptr = NULL;
  32:	4b23      	ldr	r3, [pc, #140]	(c0 <Keyboard_Set+0xc0>)
  34:	2200      	movs	r2, #0
  36:	601a      	str	r2, [r3, #0]
C:\tien\PROJEKTY\procesory\STM\T104_V100a_GASTOP\sources/gui.c:2211
                    Menu_Keys = Menu_Backup_Keys;
  38:	4822      	ldr	r0, [pc, #136]	(c4 <Keyboard_Set+0xc4>)
  3a:	4923      	ldr	r1, [pc, #140]	(c8 <Keyboard_Set+0xc8>)
  3c:	3203      	adds	r2, #3
  3e:	f7ff fffe 	bl	0 <memcpy>
C:\tien\PROJEKTY\procesory\STM\T104_V100a_GASTOP\sources/gui.c:2212
                    Screen_Number = MENU;
  42:	4b22      	ldr	r3, [pc, #136]	(cc <Keyboard_Set+0xcc>)
  44:	701d      	strb	r5, [r3, #0]
C:\tien\PROJEKTY\procesory\STM\T104_V100a_GASTOP\sources/gui.c:2213
                    Reload_Screen = TRUE;
  46:	4b22      	ldr	r3, [pc, #136]	(d0 <Keyboard_Set+0xd0>)
  48:	701c      	strb	r4, [r3, #0]
  4a:	e029      	b.n	a0 <Keyboard_Set+0xa0>
C:\tien\PROJEKTY\procesory\STM\T104_V100a_GASTOP\sources/gui.c:2217
            break;

            case KEY_ENTER:
                   Menu_Backup_Keys_Set = Menu_Keys;
  4c:	4c21      	ldr	r4, [pc, #132]	(d4 <Keyboard_Set+0xd4>)
  4e:	2203      	movs	r2, #3
  50:	f104 0111 	add.w	r1, r4, #17	; 0x11
  54:	4820      	ldr	r0, [pc, #128]	(84 <memcpy+0x84>)
  56:	f7ff fffe 	bl	0 <memcpy>
C:\tien\PROJEKTY\procesory\STM\T104_V100a_GASTOP\sources/gui.c:2218
                   Screen_Number = Next_Set_Screen[Menu_Keys.Active_String];
  5a:	7ca3      	ldrb	r3, [r4, #18]
  5c:	aa04      	add	r2, sp, #16
  5e:	18d1      	adds	r1, r2, r3
  60:	f811 2c05 	ldrb.w	r2, [r1, #-5]
  64:	4b19      	ldr	r3, [pc, #100]	(cc <Keyboard_Set+0xcc>)
C:\tien\PROJEKTY\procesory\STM\T104_V100a_GASTOP\sources/gui.c:2220
                   Screen_Before_Password = UST_STER;
                   Screen_After_Password = After_Pass_Screen[Menu_Keys.Active_String];
  66:	4c1d      	ldr	r4, [pc, #116]	(dc <Keyboard_Set+0xdc>)
C:\tien\PROJEKTY\procesory\STM\T104_V100a_GASTOP\sources/gui.c:2218
                    Reload_Screen = TRUE;
            break;

            case KEY_ENTER:
                   Menu_Backup_Keys_Set = Menu_Keys;
                   Screen_Number = Next_Set_Screen[Menu_Keys.Active_String];
  68:	701a      	strb	r2, [r3, #0]
C:\tien\PROJEKTY\procesory\STM\T104_V100a_GASTOP\sources/gui.c:2219
                   Screen_Before_Password = UST_STER;
  6a:	4b1d      	ldr	r3, [pc, #116]	(e0 <Keyboard_Set+0xe0>)
  6c:	2204      	movs	r2, #4
  6e:	701a      	strb	r2, [r3, #0]
C:\tien\PROJEKTY\procesory\STM\T104_V100a_GASTOP\sources/gui.c:2220
                   Screen_After_Password = After_Pass_Screen[Menu_Keys.Active_String];
  70:	f811 3c0a 	ldrb.w	r3, [r1, #-10]
C:\tien\PROJEKTY\procesory\STM\T104_V100a_GASTOP\sources/gui.c:2222
                   Reload_Screen = TRUE;
                   Count_Add = 0;
  74:	2200      	movs	r2, #0
C:\tien\PROJEKTY\procesory\STM\T104_V100a_GASTOP\sources/gui.c:2220

            case KEY_ENTER:
                   Menu_Backup_Keys_Set = Menu_Keys;
                   Screen_Number = Next_Set_Screen[Menu_Keys.Active_String];
                   Screen_Before_Password = UST_STER;
                   Screen_After_Password = After_Pass_Screen[Menu_Keys.Active_String];
  76:	7023      	strb	r3, [r4, #0]
C:\tien\PROJEKTY\procesory\STM\T104_V100a_GASTOP\sources/gui.c:2221
                   Reload_Screen = TRUE;
  78:	4b15      	ldr	r3, [pc, #84]	(d0 <Keyboard_Set+0xd0>)
  7a:	701d      	strb	r5, [r3, #0]
C:\tien\PROJEKTY\procesory\STM\T104_V100a_GASTOP\sources/gui.c:2222
                   Count_Add = 0;
  7c:	4b19      	ldr	r3, [pc, #100]	(e4 <Keyboard_Set+0xe4>)
  7e:	701a      	strb	r2, [r3, #0]
C:\tien\PROJEKTY\procesory\STM\T104_V100a_GASTOP\sources/gui.c:2223
                   First_Editable_Variable();
  80:	f7ff fffe 	bl	0 <Keyboard_Set>
C:\tien\PROJEKTY\procesory\STM\T104_V100a_GASTOP\sources/gui.c:2225
            
                    if ( Screen_After_Password == HAS_BLOK )
  84:	7823      	ldrb	r3, [r4, #0]
  86:	2b0c      	cmp	r3, #12
  88:	d10a      	bne.n	a0 <Keyboard_Set+0xa0>
C:\tien\PROJEKTY\procesory\STM\T104_V100a_GASTOP\sources/gui.c:2227
                    {
                        Service_Variables_Set.Serv_Vars.Blokada_rok = Date.Date_Vars.Year;
  8a:	4b17      	ldr	r3, [pc, #92]	(e8 <Keyboard_Set+0xe8>)
  8c:	4917      	ldr	r1, [pc, #92]	(ec <Keyboard_Set+0xec>)
  8e:	881a      	ldrh	r2, [r3, #0]
  90:	83ca      	strh	r2, [r1, #30]
C:\tien\PROJEKTY\procesory\STM\T104_V100a_GASTOP\sources/gui.c:2228
                        Service_Variables_Set.Serv_Vars.Blokada_miesiac = Date.Date_Vars.Month;
  92:	791a      	ldrb	r2, [r3, #4]
C:\tien\PROJEKTY\procesory\STM\T104_V100a_GASTOP\sources/gui.c:2229
                        Service_Variables_Set.Serv_Vars.Blokada_dzien = Date.Date_Vars.Day;
  94:	78db      	ldrb	r3, [r3, #3]
C:\tien\PROJEKTY\procesory\STM\T104_V100a_GASTOP\sources/gui.c:2228
                   First_Editable_Variable();
            
                    if ( Screen_After_Password == HAS_BLOK )
                    {
                        Service_Variables_Set.Serv_Vars.Blokada_rok = Date.Date_Vars.Year;
                        Service_Variables_Set.Serv_Vars.Blokada_miesiac = Date.Date_Vars.Month;
  96:	774a      	strb	r2, [r1, #29]
C:\tien\PROJEKTY\procesory\STM\T104_V100a_GASTOP\sources/gui.c:2229
                        Service_Variables_Set.Serv_Vars.Blokada_dzien = Date.Date_Vars.Day;
  98:	770b      	strb	r3, [r1, #28]
  9a:	e001      	b.n	a0 <Keyboard_Set+0xa0>
C:\tien\PROJEKTY\procesory\STM\T104_V100a_GASTOP\sources/gui.c:2234
                    }
            break;

            default:
                   Menu_Keyboard();
  9c:	f7ff fffe 	bl	0 <Keyboard_Set>
C:\tien\PROJEKTY\procesory\STM\T104_V100a_GASTOP\sources/gui.c:2237
            break;
        }
        Keyboard.Keyboard_Flag = 0;
  a0:	4b06      	ldr	r3, [pc, #24]	(bc <Keyboard_Set+0xbc>)
  a2:	2200      	movs	r2, #0
  a4:	709a      	strb	r2, [r3, #2]
C:\tien\PROJEKTY\procesory\STM\T104_V100a_GASTOP\sources/gui.c:2240
    }

    if ( Keyboard.Keyboard_State == 0 )
  a6:	4a05      	ldr	r2, [pc, #20]	(bc <Keyboard_Set+0xbc>)
  a8:	7853      	ldrb	r3, [r2, #1]
  aa:	b903      	cbnz	r3, ae <Keyboard_Set+0xae>
C:\tien\PROJEKTY\procesory\STM\T104_V100a_GASTOP\sources/gui.c:2242
    {
        Keyboard.Keyboard_Memory = 0;
  ac:	7013      	strb	r3, [r2, #0]
C:\tien\PROJEKTY\procesory\STM\T104_V100a_GASTOP\sources/gui.c:2244
    }
}
  ae:	b005      	add	sp, #20
  b0:	bd30      	pop	{r4, r5, pc}
  b2:	46c0      	nop			(mov r8, r8)
  b4:	00000189 	.word	0x00000189
  b8:	0000018e 	.word	0x0000018e
	...
  c4:	00000011 	.word	0x00000011
	...
Disassembly of section .text.Keyboard_Lic:

00000000 <Keyboard_Lic>:
Keyboard_Lic():
C:\tien\PROJEKTY\procesory\STM\T104_V100a_GASTOP\sources/gui.c:2388
* Input          : None
* Output         : None
* Return         : None
*******************************************************************************/
static void Keyboard_Lic ( void )
{
   0:	b570      	push	{r4, r5, r6, lr}
C:\tien\PROJEKTY\procesory\STM\T104_V100a_GASTOP\sources/gui.c:2389
    if ( Keyboard.Keyboard_Memory != 0 && Keyboard.Keyboard_Flag == 1 )
   2:	4b17      	ldr	r3, [pc, #92]	(60 <Keyboard_Lic+0x60>)
   4:	781c      	ldrb	r4, [r3, #0]
   6:	2c00      	cmp	r4, #0
   8:	d024      	beq.n	54 <Keyboard_Lic+0x54>
   a:	789d      	ldrb	r5, [r3, #2]
   c:	2d01      	cmp	r5, #1
   e:	d121      	bne.n	54 <Keyboard_Lic+0x54>
C:\tien\PROJEKTY\procesory\STM\T104_V100a_GASTOP\sources/gui.c:2391
    {
        switch ( Keyboard.Keyboard_Memory )
  10:	2c01      	cmp	r4, #1
  12:	d00e      	beq.n	32 <Keyboard_Lic+0x32>
  14:	2c02      	cmp	r4, #2
  16:	d11a      	bne.n	4e <Keyboard_Lic+0x4e>
C:\tien\PROJEKTY\procesory\STM\T104_V100a_GASTOP\sources/gui.c:2394
        {
            case KEY_ESCAPE:
                    Variable_Editing_Ptr = NULL;
  18:	4b12      	ldr	r3, [pc, #72]	(64 <Keyboard_Lic+0x64>)
  1a:	2200      	movs	r2, #0
  1c:	601a      	str	r2, [r3, #0]
C:\tien\PROJEKTY\procesory\STM\T104_V100a_GASTOP\sources/gui.c:2395
                    Menu_Keys = Menu_Backup_Keys;
  1e:	4812      	ldr	r0, [pc, #72]	(68 <Keyboard_Lic+0x68>)
  20:	4912      	ldr	r1, [pc, #72]	(6c <Keyboard_Lic+0x6c>)
  22:	3203      	adds	r2, #3
  24:	f7ff fffe 	bl	0 <memcpy>
C:\tien\PROJEKTY\procesory\STM\T104_V100a_GASTOP\sources/gui.c:2396
                    Screen_Number = MENU;
  28:	4b11      	ldr	r3, [pc, #68]	(70 <Keyboard_Lic+0x70>)
  2a:	701c      	strb	r4, [r3, #0]
C:\tien\PROJEKTY\procesory\STM\T104_V100a_GASTOP\sources/gui.c:2397
                    Reload_Screen = TRUE;
  2c:	4b11      	ldr	r3, [pc, #68]	(74 <Keyboard_Lic+0x74>)
  2e:	701d      	strb	r5, [r3, #0]
  30:	e00d      	b.n	4e <Keyboard_Lic+0x4e>
C:\tien\PROJEKTY\procesory\STM\T104_V100a_GASTOP\sources/gui.c:2401
            break;

            case KEY_ENTER:
                    if ( Service_Variables.Serv_Vars.Blokada == 0 )
  32:	4b11      	ldr	r3, [pc, #68]	(78 <Keyboard_Lic+0x78>)
  34:	7a19      	ldrb	r1, [r3, #8]
  36:	b951      	cbnz	r1, 4e <Keyboard_Lic+0x4e>
C:\tien\PROJEKTY\procesory\STM\T104_V100a_GASTOP\sources/gui.c:2403
                    {
                        Screen_Number = ODBLOKUJ;
  38:	4b0d      	ldr	r3, [pc, #52]	(70 <Keyboard_Lic+0x70>)
  3a:	2220      	movs	r2, #32
  3c:	701a      	strb	r2, [r3, #0]
C:\tien\PROJEKTY\procesory\STM\T104_V100a_GASTOP\sources/gui.c:2404
                        Count_Add = 0;
  3e:	4b0f      	ldr	r3, [pc, #60]	(7c <Keyboard_Lic+0x7c>)
  40:	7019      	strb	r1, [r3, #0]
C:\tien\PROJEKTY\procesory\STM\T104_V100a_GASTOP\sources/gui.c:2405
                        Screen_After_Password = CONTROLLER_ON;
  42:	4b0f      	ldr	r3, [pc, #60]	(80 <Keyboard_Lic+0x80>)
  44:	701c      	strb	r4, [r3, #0]
C:\tien\PROJEKTY\procesory\STM\T104_V100a_GASTOP\sources/gui.c:2406
                        First_Editable_Variable();
  46:	f7ff fffe 	bl	0 <Keyboard_Lic>
C:\tien\PROJEKTY\procesory\STM\T104_V100a_GASTOP\sources/gui.c:2407
                        Reload_Screen = TRUE;
  4a:	4b0a      	ldr	r3, [pc, #40]	(74 <Keyboard_Lic+0x74>)
  4c:	701c      	strb	r4, [r3, #0]
C:\tien\PROJEKTY\procesory\STM\T104_V100a_GASTOP\sources/gui.c:2414
            break;

            default:
            break;
        }
        Keyboard.Keyboard_Flag = 0;
  4e:	4b04      	ldr	r3, [pc, #16]	(60 <Keyboard_Lic+0x60>)
  50:	2200      	movs	r2, #0
  52:	709a      	strb	r2, [r3, #2]
C:\tien\PROJEKTY\procesory\STM\T104_V100a_GASTOP\sources/gui.c:2417
    }

    if ( Keyboard.Keyboard_State == 0 )
  54:	4a02      	ldr	r2, [pc, #8]	(60 <Keyboard_Lic+0x60>)
  56:	7853      	ldrb	r3, [r2, #1]
  58:	b903      	cbnz	r3, 5c <Keyboard_Lic+0x5c>
C:\tien\PROJEKTY\procesory\STM\T104_V100a_GASTOP\sources/gui.c:2419
    {
        Keyboard.Keyboard_Memory = 0;
  5a:	7013      	strb	r3, [r2, #0]
C:\tien\PROJEKTY\procesory\STM\T104_V100a_GASTOP\sources/gui.c:2421
    }
}
  5c:	bd70      	pop	{r4, r5, r6, pc}
  5e:	46c0      	nop			(mov r8, r8)
	...
  68:	00000011 	.word	0x00000011
	...
Disassembly of section .text.Keyboard_Test:

00000000 <Keyboard_Test>:
Keyboard_Test():
C:\tien\PROJEKTY\procesory\STM\T104_V100a_GASTOP\sources/gui.c:2431
* Input          : None
* Output         : None
* Return         : None
*******************************************************************************/
static void Keyboard_Test ( void )
{
   0:	b530      	push	{r4, r5, lr}
   2:	b085      	sub	sp, #20
C:\tien\PROJEKTY\procesory\STM\T104_V100a_GASTOP\sources/gui.c:2439
        HASLO,
        HASLO,
        HASLO,
        ODCZYT_SERWISOWY,
        IND_TEST
    };
   4:	4930      	ldr	r1, [pc, #192]	(c8 <Keyboard_Test+0xc8>)
   6:	2206      	movs	r2, #6
   8:	f10d 000a 	add.w	r0, sp, #10	; 0xa
   c:	f7ff fffe 	bl	0 <memcpy>
C:\tien\PROJEKTY\procesory\STM\T104_V100a_GASTOP\sources/gui.c:2449
        TEST_WEWY,
        UST_ENKODERA,
        UST_SERWISOWE1,
        ODCZYT_SERWISOWY,
        IND_TEST,
    };
  10:	a801      	add	r0, sp, #4
  12:	492e      	ldr	r1, [pc, #184]	(cc <Keyboard_Test+0xcc>)
  14:	2206      	movs	r2, #6
  16:	f7ff fffe 	bl	0 <memcpy>
C:\tien\PROJEKTY\procesory\STM\T104_V100a_GASTOP\sources/gui.c:2451

    if ( Keyboard.Keyboard_Memory != 0 && Keyboard.Keyboard_Flag == 1 )
  1a:	4b2d      	ldr	r3, [pc, #180]	(d0 <Keyboard_Test+0xd0>)
  1c:	781d      	ldrb	r5, [r3, #0]
  1e:	2d00      	cmp	r5, #0
  20:	d04c      	beq.n	bc <Keyboard_Test+0xbc>
  22:	789c      	ldrb	r4, [r3, #2]
  24:	2c01      	cmp	r4, #1
  26:	d149      	bne.n	bc <Keyboard_Test+0xbc>
C:\tien\PROJEKTY\procesory\STM\T104_V100a_GASTOP\sources/gui.c:2453
    {
        switch ( Keyboard.Keyboard_Memory )
  28:	2d01      	cmp	r5, #1
  2a:	d00e      	beq.n	4a <Keyboard_Test+0x4a>
  2c:	2d02      	cmp	r5, #2
  2e:	d140      	bne.n	b2 <Keyboard_Test+0xb2>
C:\tien\PROJEKTY\procesory\STM\T104_V100a_GASTOP\sources/gui.c:2456
        {
            case KEY_ESCAPE:
                    Variable_Editing_Ptr = NULL;
  30:	4b28      	ldr	r3, [pc, #160]	(d4 <Keyboard_Test+0xd4>)
  32:	2200      	movs	r2, #0
  34:	601a      	str	r2, [r3, #0]
C:\tien\PROJEKTY\procesory\STM\T104_V100a_GASTOP\sources/gui.c:2457
                    Menu_Keys = Menu_Backup_Keys;
  36:	4828      	ldr	r0, [pc, #160]	(d8 <Keyboard_Test+0xd8>)
  38:	4928      	ldr	r1, [pc, #160]	(dc <Keyboard_Test+0xdc>)
  3a:	3203      	adds	r2, #3
  3c:	f7ff fffe 	bl	0 <memcpy>
C:\tien\PROJEKTY\procesory\STM\T104_V100a_GASTOP\sources/gui.c:2458
                    Screen_Number = MENU;
  40:	4b27      	ldr	r3, [pc, #156]	(e0 <Keyboard_Test+0xe0>)
  42:	701d      	strb	r5, [r3, #0]
C:\tien\PROJEKTY\procesory\STM\T104_V100a_GASTOP\sources/gui.c:2459
                    Reload_Screen = TRUE;
  44:	4b27      	ldr	r3, [pc, #156]	(e4 <Keyboard_Test+0xe4>)
  46:	701c      	strb	r4, [r3, #0]
  48:	e035      	b.n	b6 <Keyboard_Test+0xb6>
C:\tien\PROJEKTY\procesory\STM\T104_V100a_GASTOP\sources/gui.c:2463
            break;

            case KEY_ENTER:
                    Menu_Backup_Keys_Set = Menu_Keys;
  4a:	4c27      	ldr	r4, [pc, #156]	(e8 <Keyboard_Test+0xe8>)
  4c:	2203      	movs	r2, #3
  4e:	f104 0111 	add.w	r1, r4, #17	; 0x11
  52:	4826      	ldr	r0, [pc, #152]	(9c <memcpy+0x9c>)
  54:	f7ff fffe 	bl	0 <memcpy>
C:\tien\PROJEKTY\procesory\STM\T104_V100a_GASTOP\sources/gui.c:2464
                    Screen_Number = Next_Param_Screen[Menu_Keys.Active_String];
  58:	7ca3      	ldrb	r3, [r4, #18]
  5a:	aa04      	add	r2, sp, #16
  5c:	18d1      	adds	r1, r2, r3
  5e:	f811 2c06 	ldrb.w	r2, [r1, #-6]
  62:	4b1f      	ldr	r3, [pc, #124]	(e0 <Keyboard_Test+0xe0>)
C:\tien\PROJEKTY\procesory\STM\T104_V100a_GASTOP\sources/gui.c:2466
                    Screen_Before_Password = TEST;
                    Screen_After_Password = After_Pass_Screen[Menu_Keys.Active_String];            Reload_Screen = TRUE;
  64:	4c22      	ldr	r4, [pc, #136]	(f0 <Keyboard_Test+0xf0>)
C:\tien\PROJEKTY\procesory\STM\T104_V100a_GASTOP\sources/gui.c:2464
                    Reload_Screen = TRUE;
            break;

            case KEY_ENTER:
                    Menu_Backup_Keys_Set = Menu_Keys;
                    Screen_Number = Next_Param_Screen[Menu_Keys.Active_String];
  66:	701a      	strb	r2, [r3, #0]
C:\tien\PROJEKTY\procesory\STM\T104_V100a_GASTOP\sources/gui.c:2465
                    Screen_Before_Password = TEST;
  68:	4b22      	ldr	r3, [pc, #136]	(f4 <Keyboard_Test+0xf4>)
  6a:	2208      	movs	r2, #8
  6c:	701a      	strb	r2, [r3, #0]
C:\tien\PROJEKTY\procesory\STM\T104_V100a_GASTOP\sources/gui.c:2466
                    Screen_After_Password = After_Pass_Screen[Menu_Keys.Active_String];            Reload_Screen = TRUE;
  6e:	f811 3c0c 	ldrb.w	r3, [r1, #-12]
  72:	7023      	strb	r3, [r4, #0]
  74:	4b1b      	ldr	r3, [pc, #108]	(e4 <Keyboard_Test+0xe4>)
  76:	701d      	strb	r5, [r3, #0]
C:\tien\PROJEKTY\procesory\STM\T104_V100a_GASTOP\sources/gui.c:2467
                    Count_Add = 0;
  78:	4b1f      	ldr	r3, [pc, #124]	(f8 <Keyboard_Test+0xf8>)
  7a:	2500      	movs	r5, #0
  7c:	701d      	strb	r5, [r3, #0]
C:\tien\PROJEKTY\procesory\STM\T104_V100a_GASTOP\sources/gui.c:2468
                    First_Editable_Variable();
  7e:	f7ff fffe 	bl	0 <Keyboard_Test>
C:\tien\PROJEKTY\procesory\STM\T104_V100a_GASTOP\sources/gui.c:2470
            
                    if ( Screen_After_Password == PROG_TESTOWY )
  82:	7822      	ldrb	r2, [r4, #0]
  84:	2a1c      	cmp	r2, #28
  86:	d106      	bne.n	96 <Keyboard_Test+0x96>
C:\tien\PROJEKTY\procesory\STM\T104_V100a_GASTOP\sources/gui.c:2472
                    {
                        Counters_Variables.Counters_Vars.No_Goin_Test = 0;
  88:	4b1c      	ldr	r3, [pc, #112]	(fc <Keyboard_Test+0xfc>)
C:\tien\PROJEKTY\procesory\STM\T104_V100a_GASTOP\sources/gui.c:2474
                        Counters_Variables.Counters_Vars.No_Goout_Test = 0;
                        Test_String_Mask = TEST_STOPPED;
  8a:	3213      	adds	r2, #19
C:\tien\PROJEKTY\procesory\STM\T104_V100a_GASTOP\sources/gui.c:2472
                    Count_Add = 0;
                    First_Editable_Variable();
            
                    if ( Screen_After_Password == PROG_TESTOWY )
                    {
                        Counters_Variables.Counters_Vars.No_Goin_Test = 0;
  8c:	609d      	str	r5, [r3, #8]
C:\tien\PROJEKTY\procesory\STM\T104_V100a_GASTOP\sources/gui.c:2473
                        Counters_Variables.Counters_Vars.No_Goout_Test = 0;
  8e:	60dd      	str	r5, [r3, #12]
C:\tien\PROJEKTY\procesory\STM\T104_V100a_GASTOP\sources/gui.c:2474
                        Test_String_Mask = TEST_STOPPED;
  90:	4b1b      	ldr	r3, [pc, #108]	(100 <Keyboard_Test+0x100>)
  92:	601a      	str	r2, [r3, #0]
  94:	e00f      	b.n	b6 <Keyboard_Test+0xb6>
C:\tien\PROJEKTY\procesory\STM\T104_V100a_GASTOP\sources/gui.c:2477
                    }
                
                    if ( Screen_After_Password == TEST_WEWY )
  96:	2a29      	cmp	r2, #41
  98:	d102      	bne.n	a0 <Keyboard_Test+0xa0>
C:\tien\PROJEKTY\procesory\STM\T104_V100a_GASTOP\sources/gui.c:2479
                    {
                        Controller_Variables.Controller_Vars.Test_Status = 0;
  9a:	4b1a      	ldr	r3, [pc, #104]	(104 <Keyboard_Test+0x104>)
  9c:	761d      	strb	r5, [r3, #24]
  9e:	e005      	b.n	ac <Keyboard_Test+0xac>
C:\tien\PROJEKTY\procesory\STM\T104_V100a_GASTOP\sources/gui.c:2483
                        Machine_State = MANUAL_TEST;
                    }
                
                    if ( Screen_After_Password == IND_TEST )
  a0:	2a28      	cmp	r2, #40
  a2:	d108      	bne.n	b6 <Keyboard_Test+0xb6>
C:\tien\PROJEKTY\procesory\STM\T104_V100a_GASTOP\sources/gui.c:2485
                    {
                        Ind_Test_Mask = IND_MASK_LINES;
  a4:	4b18      	ldr	r3, [pc, #96]	(108 <Keyboard_Test+0x108>)
  a6:	2207      	movs	r2, #7
  a8:	601a      	str	r2, [r3, #0]
C:\tien\PROJEKTY\procesory\STM\T104_V100a_GASTOP\sources/gui.c:2486
                        Machine_State = IND_STOP;
  aa:	3223      	adds	r2, #35
  ac:	4b17      	ldr	r3, [pc, #92]	(10c <Keyboard_Test+0x10c>)
  ae:	701a      	strb	r2, [r3, #0]
  b0:	e001      	b.n	b6 <Keyboard_Test+0xb6>
C:\tien\PROJEKTY\procesory\STM\T104_V100a_GASTOP\sources/gui.c:2491
                    }               
            break;

            default:
                    Menu_Keyboard();
  b2:	f7ff fffe 	bl	0 <Keyboard_Test>
C:\tien\PROJEKTY\procesory\STM\T104_V100a_GASTOP\sources/gui.c:2494
            break;
        }
        Keyboard.Keyboard_Flag = 0;
  b6:	4b06      	ldr	r3, [pc, #24]	(d0 <Keyboard_Test+0xd0>)
  b8:	2200      	movs	r2, #0
  ba:	709a      	strb	r2, [r3, #2]
C:\tien\PROJEKTY\procesory\STM\T104_V100a_GASTOP\sources/gui.c:2497
    }

    if ( Keyboard.Keyboard_State == 0 )
  bc:	4a04      	ldr	r2, [pc, #16]	(d0 <Keyboard_Test+0xd0>)
  be:	7853      	ldrb	r3, [r2, #1]
  c0:	b903      	cbnz	r3, c4 <Keyboard_Test+0xc4>
C:\tien\PROJEKTY\procesory\STM\T104_V100a_GASTOP\sources/gui.c:2499
    {
        Keyboard.Keyboard_Memory = 0;
  c2:	7013      	strb	r3, [r2, #0]
C:\tien\PROJEKTY\procesory\STM\T104_V100a_GASTOP\sources/gui.c:2501
    }
}
  c4:	b005      	add	sp, #20
  c6:	bd30      	pop	{r4, r5, pc}
  c8:	00000193 	.word	0x00000193
  cc:	00000199 	.word	0x00000199
	...
  d8:	00000011 	.word	0x00000011
	...
Disassembly of section .text.Keyboard_Haslo:

00000000 <Keyboard_Haslo>:
Keyboard_Haslo():
C:\tien\PROJEKTY\procesory\STM\T104_V100a_GASTOP\sources/gui.c:2511
* Input          : None
* Output         : None
* Return         : None
*******************************************************************************/
static void Keyboard_Haslo ( void )
{
   0:	b510      	push	{r4, lr}
C:\tien\PROJEKTY\procesory\STM\T104_V100a_GASTOP\sources/gui.c:2512
    if ( Keyboard.Keyboard_Memory != 0 && Keyboard.Keyboard_Flag == 1 )
   2:	4a37      	ldr	r2, [pc, #220]	(e0 <Keyboard_Haslo+0xe0>)
   4:	7813      	ldrb	r3, [r2, #0]
   6:	2b00      	cmp	r3, #0
   8:	d065      	beq.n	d6 <Keyboard_Haslo+0xd6>
   a:	7894      	ldrb	r4, [r2, #2]
   c:	2c01      	cmp	r4, #1
   e:	d162      	bne.n	d6 <Keyboard_Haslo+0xd6>
C:\tien\PROJEKTY\procesory\STM\T104_V100a_GASTOP\sources/gui.c:2514
    {
        switch ( Keyboard.Keyboard_Memory )
  10:	2b02      	cmp	r3, #2
  12:	d008      	beq.n	26 <Keyboard_Haslo+0x26>
  14:	d802      	bhi.n	1c <Keyboard_Haslo+0x1c>
  16:	2b01      	cmp	r3, #1
  18:	d158      	bne.n	cc <Keyboard_Haslo+0xcc>
  1a:	e013      	b.n	44 <Keyboard_Haslo+0x44>
  1c:	2b08      	cmp	r3, #8
  1e:	d049      	beq.n	b4 <Keyboard_Haslo+0xb4>
  20:	2b20      	cmp	r3, #32
  22:	d153      	bne.n	cc <Keyboard_Haslo+0xcc>
  24:	e038      	b.n	98 <Keyboard_Haslo+0x98>
C:\tien\PROJEKTY\procesory\STM\T104_V100a_GASTOP\sources/gui.c:2517
        {
            case KEY_ESCAPE:
                    Variable_Editing_Ptr = NULL;
  26:	4b2f      	ldr	r3, [pc, #188]	(e4 <Keyboard_Haslo+0xe4>)
  28:	2200      	movs	r2, #0
  2a:	601a      	str	r2, [r3, #0]
C:\tien\PROJEKTY\procesory\STM\T104_V100a_GASTOP\sources/gui.c:2518
                    Menu_Keys = Menu_Backup_Keys_Set;
  2c:	482e      	ldr	r0, [pc, #184]	(e8 <Keyboard_Haslo+0xe8>)
  2e:	3203      	adds	r2, #3
  30:	492e      	ldr	r1, [pc, #184]	(ec <Keyboard_Haslo+0xec>)
  32:	f7ff fffe 	bl	0 <memcpy>
C:\tien\PROJEKTY\procesory\STM\T104_V100a_GASTOP\sources/gui.c:2519
                    Screen_Number = Screen_Before_Password;
  36:	4b2e      	ldr	r3, [pc, #184]	(f0 <Keyboard_Haslo+0xf0>)
  38:	781a      	ldrb	r2, [r3, #0]
  3a:	4b2e      	ldr	r3, [pc, #184]	(f4 <Keyboard_Haslo+0xf4>)
  3c:	701a      	strb	r2, [r3, #0]
C:\tien\PROJEKTY\procesory\STM\T104_V100a_GASTOP\sources/gui.c:2520
                    Reload_Screen = TRUE;
  3e:	4b2e      	ldr	r3, [pc, #184]	(f8 <Keyboard_Haslo+0xf8>)
  40:	701c      	strb	r4, [r3, #0]
  42:	e045      	b.n	d0 <Keyboard_Haslo+0xd0>
C:\tien\PROJEKTY\procesory\STM\T104_V100a_GASTOP\sources/gui.c:2524
            break;

            case KEY_ENTER:
                   if ( Service_Variables.Serv_Vars.Haslo_Dostepu == Password_Set || Password_Set == SERVICE_PASSWORD )
  44:	492d      	ldr	r1, [pc, #180]	(fc <Keyboard_Haslo+0xfc>)
  46:	4b2e      	ldr	r3, [pc, #184]	(100 <Keyboard_Haslo+0x100>)
  48:	6a0a      	ldr	r2, [r1, #32]
  4a:	681b      	ldr	r3, [r3, #0]
  4c:	4293      	cmp	r3, r2
  4e:	d002      	beq.n	56 <Keyboard_Haslo+0x56>
  50:	4b2c      	ldr	r3, [pc, #176]	(104 <Keyboard_Haslo+0x104>)
  52:	429a      	cmp	r2, r3
  54:	d10d      	bne.n	72 <Keyboard_Haslo+0x72>
C:\tien\PROJEKTY\procesory\STM\T104_V100a_GASTOP\sources/gui.c:2526
                   {
                        Password_Set = 0;
  56:	4b29      	ldr	r3, [pc, #164]	(fc <Keyboard_Haslo+0xfc>)
  58:	2200      	movs	r2, #0
  5a:	621a      	str	r2, [r3, #32]
C:\tien\PROJEKTY\procesory\STM\T104_V100a_GASTOP\sources/gui.c:2527
                        Count_Add = 0;
  5c:	4b2a      	ldr	r3, [pc, #168]	(108 <Keyboard_Haslo+0x108>)
  5e:	701a      	strb	r2, [r3, #0]
C:\tien\PROJEKTY\procesory\STM\T104_V100a_GASTOP\sources/gui.c:2528
                        Service_Variables_Set.Serv_Vars.Blok_Dostep_Pozostalo = Service_Variables_Set.Serv_Vars.Ilosc_Prob_Dostepu;                  
  60:	4a2a      	ldr	r2, [pc, #168]	(10c <Keyboard_Haslo+0x10c>)
  62:	7a53      	ldrb	r3, [r2, #9]
  64:	f882 3022 	strb.w	r3, [r2, #34]
C:\tien\PROJEKTY\procesory\STM\T104_V100a_GASTOP\sources/gui.c:2529
                        Screen_Number = Screen_After_Password;
  68:	4b29      	ldr	r3, [pc, #164]	(110 <Keyboard_Haslo+0x110>)
  6a:	781a      	ldrb	r2, [r3, #0]
  6c:	4b21      	ldr	r3, [pc, #132]	(f4 <Keyboard_Haslo+0xf4>)
  6e:	701a      	strb	r2, [r3, #0]
  70:	e026      	b.n	c0 <Keyboard_Haslo+0xc0>
C:\tien\PROJEKTY\procesory\STM\T104_V100a_GASTOP\sources/gui.c:2535
                        First_Editable_Variable();                        
                   }
                   else
                   {
                        Password_Set = 0;
                        Count_Add = 0; 
  72:	4b25      	ldr	r3, [pc, #148]	(108 <Keyboard_Haslo+0x108>)
C:\tien\PROJEKTY\procesory\STM\T104_V100a_GASTOP\sources/gui.c:2534
                        Screen_Number = Screen_After_Password;
                        First_Editable_Variable();                        
                   }
                   else
                   {
                        Password_Set = 0;
  74:	2200      	movs	r2, #0
C:\tien\PROJEKTY\procesory\STM\T104_V100a_GASTOP\sources/gui.c:2535
                        Count_Add = 0; 
  76:	701a      	strb	r2, [r3, #0]
C:\tien\PROJEKTY\procesory\STM\T104_V100a_GASTOP\sources/gui.c:2534
                        Screen_Number = Screen_After_Password;
                        First_Editable_Variable();                        
                   }
                   else
                   {
                        Password_Set = 0;
  78:	620a      	str	r2, [r1, #32]
C:\tien\PROJEKTY\procesory\STM\T104_V100a_GASTOP\sources/gui.c:2537
                        Count_Add = 0; 
               
                        if ( --Service_Variables_Set.Serv_Vars.Blok_Dostep_Pozostalo == 0 )
  7a:	4a24      	ldr	r2, [pc, #144]	(10c <Keyboard_Haslo+0x10c>)
  7c:	f892 3022 	ldrb.w	r3, [r2, #34]
  80:	3b01      	subs	r3, #1
  82:	b2db      	uxtb	r3, r3
  84:	f882 3022 	strb.w	r3, [r2, #34]
  88:	b9e3      	cbnz	r3, c4 <Keyboard_Haslo+0xc4>
C:\tien\PROJEKTY\procesory\STM\T104_V100a_GASTOP\sources/gui.c:2539
                        {
                            Service_Variables_Set.Serv_Vars.Marker_Blokady = STER_BLOKADA_CALKOWITA;
  8a:	3302      	adds	r3, #2
  8c:	f882 3021 	strb.w	r3, [r2, #33]
C:\tien\PROJEKTY\procesory\STM\T104_V100a_GASTOP\sources/gui.c:2540
                            Screen_Number = BLOK_CALK;
  90:	4b18      	ldr	r3, [pc, #96]	(f4 <Keyboard_Haslo+0xf4>)
  92:	221e      	movs	r2, #30
  94:	701a      	strb	r2, [r3, #0]
  96:	e015      	b.n	c4 <Keyboard_Haslo+0xc4>
C:\tien\PROJEKTY\procesory\STM\T104_V100a_GASTOP\sources/gui.c:2548
                   Write_Settings;   
                   Reload_Screen = TRUE;
            break;

            case KEY_DOWN:
              if ( ++Count_Add == Variable_Editing_Ptr->Var_Param_Ptr->Variable_Digits_Count )
  98:	491b      	ldr	r1, [pc, #108]	(108 <Keyboard_Haslo+0x108>)
  9a:	4b12      	ldr	r3, [pc, #72]	(e4 <Keyboard_Haslo+0xe4>)
  9c:	780a      	ldrb	r2, [r1, #0]
  9e:	681b      	ldr	r3, [r3, #0]
  a0:	3201      	adds	r2, #1
  a2:	b2d2      	uxtb	r2, r2
  a4:	700a      	strb	r2, [r1, #0]
  a6:	68db      	ldr	r3, [r3, #12]
  a8:	789b      	ldrb	r3, [r3, #2]
  aa:	4293      	cmp	r3, r2
  ac:	d10a      	bne.n	c4 <Keyboard_Haslo+0xc4>
C:\tien\PROJEKTY\procesory\STM\T104_V100a_GASTOP\sources/gui.c:2550
              {
                  Count_Add = 0;
  ae:	2300      	movs	r3, #0
  b0:	700b      	strb	r3, [r1, #0]
  b2:	e007      	b.n	c4 <Keyboard_Haslo+0xc4>
C:\tien\PROJEKTY\procesory\STM\T104_V100a_GASTOP\sources/gui.c:2556
              }
              Reload_Screen = TRUE;  
            break;
          
            case KEY_UP:
              Count_Add = 0;
  b4:	4b14      	ldr	r3, [pc, #80]	(108 <Keyboard_Haslo+0x108>)
  b6:	2200      	movs	r2, #0
  b8:	701a      	strb	r2, [r3, #0]
C:\tien\PROJEKTY\procesory\STM\T104_V100a_GASTOP\sources/gui.c:2557
              if ( Next_Editable_Variable() == FALSE )
  ba:	f7ff fffe 	bl	0 <Keyboard_Haslo>
  be:	b908      	cbnz	r0, 6 <Keyboard_Haslo+0x6>
C:\tien\PROJEKTY\procesory\STM\T104_V100a_GASTOP\sources/gui.c:2559
              {
                  First_Editable_Variable();
  c0:	f7ff fffe 	bl	0 <Keyboard_Haslo>
C:\tien\PROJEKTY\procesory\STM\T104_V100a_GASTOP\sources/gui.c:2561
              }
              Reload_Screen = TRUE;
  c4:	4b0c      	ldr	r3, [pc, #48]	(f8 <Keyboard_Haslo+0xf8>)
  c6:	2201      	movs	r2, #1
  c8:	701a      	strb	r2, [r3, #0]
  ca:	e001      	b.n	d0 <Keyboard_Haslo+0xd0>
C:\tien\PROJEKTY\procesory\STM\T104_V100a_GASTOP\sources/gui.c:2565
            break;

            default:
                Keyboard_Edit_Variable();
  cc:	f7ff fffe 	bl	0 <Keyboard_Haslo>
C:\tien\PROJEKTY\procesory\STM\T104_V100a_GASTOP\sources/gui.c:2568
            break;
        }
        Keyboard.Keyboard_Flag = 0;
  d0:	4b03      	ldr	r3, [pc, #12]	(e0 <Keyboard_Haslo+0xe0>)
  d2:	2200      	movs	r2, #0
  d4:	709a      	strb	r2, [r3, #2]
C:\tien\PROJEKTY\procesory\STM\T104_V100a_GASTOP\sources/gui.c:2571
    }

    if ( Keyboard.Keyboard_State == 0 )
  d6:	4a02      	ldr	r2, [pc, #8]	(e0 <Keyboard_Haslo+0xe0>)
  d8:	7853      	ldrb	r3, [r2, #1]
  da:	b903      	cbnz	r3, de <Keyboard_Haslo+0xde>
C:\tien\PROJEKTY\procesory\STM\T104_V100a_GASTOP\sources/gui.c:2573
    {
        Keyboard.Keyboard_Memory = 0;
  dc:	7013      	strb	r3, [r2, #0]
C:\tien\PROJEKTY\procesory\STM\T104_V100a_GASTOP\sources/gui.c:2575
    }
}
  de:	bd10      	pop	{r4, pc}
	...
  e8:	00000011 	.word	0x00000011
	...
 104:	0001526b 	.word	0x0001526b
	...
Disassembly of section .text.Keyboard_Prog_Test:

00000000 <Keyboard_Prog_Test>:
Keyboard_Prog_Test():
C:\tien\PROJEKTY\procesory\STM\T104_V100a_GASTOP\sources/gui.c:3070
* Input          : None
* Output         : None
* Return         : None
*******************************************************************************/
static void Keyboard_Prog_Test ( void )
{
   0:	b510      	push	{r4, lr}
C:\tien\PROJEKTY\procesory\STM\T104_V100a_GASTOP\sources/gui.c:3071
    if ( Keyboard.Keyboard_Memory != 0 && Keyboard.Keyboard_Flag == 1 )
   2:	4b20      	ldr	r3, [pc, #128]	(84 <Keyboard_Prog_Test+0x84>)
   4:	7819      	ldrb	r1, [r3, #0]
   6:	2900      	cmp	r1, #0
   8:	d037      	beq.n	7a <Keyboard_Prog_Test+0x7a>
   a:	789c      	ldrb	r4, [r3, #2]
   c:	2c01      	cmp	r4, #1
   e:	d134      	bne.n	7a <Keyboard_Prog_Test+0x7a>
C:\tien\PROJEKTY\procesory\STM\T104_V100a_GASTOP\sources/gui.c:3073
    {
        switch ( Keyboard.Keyboard_Memory )
  10:	2901      	cmp	r1, #1
  12:	d015      	beq.n	40 <Keyboard_Prog_Test+0x40>
  14:	2902      	cmp	r1, #2
  16:	d12d      	bne.n	74 <Keyboard_Prog_Test+0x74>
C:\tien\PROJEKTY\procesory\STM\T104_V100a_GASTOP\sources/gui.c:3076
        {
            case KEY_ESCAPE:
                    Machine_State = STANDBY;
  18:	4b1b      	ldr	r3, [pc, #108]	(88 <Keyboard_Prog_Test+0x88>)
  1a:	2200      	movs	r2, #0
  1c:	701a      	strb	r2, [r3, #0]
C:\tien\PROJEKTY\procesory\STM\T104_V100a_GASTOP\sources/gui.c:3077
                    TEST_ENABLE = FALSE;
  1e:	481b      	ldr	r0, [pc, #108]	(8c <Keyboard_Prog_Test+0x8c>)
C:\tien\PROJEKTY\procesory\STM\T104_V100a_GASTOP\sources/gui.c:3078
                    Variable_Editing_Ptr = NULL;
  20:	4b1b      	ldr	r3, [pc, #108]	(90 <Keyboard_Prog_Test+0x90>)
C:\tien\PROJEKTY\procesory\STM\T104_V100a_GASTOP\sources/gui.c:3077
    {
        switch ( Keyboard.Keyboard_Memory )
        {
            case KEY_ESCAPE:
                    Machine_State = STANDBY;
                    TEST_ENABLE = FALSE;
  22:	f880 2024 	strb.w	r2, [r0, #36]
C:\tien\PROJEKTY\procesory\STM\T104_V100a_GASTOP\sources/gui.c:3078
                    Variable_Editing_Ptr = NULL;
  26:	601a      	str	r2, [r3, #0]
C:\tien\PROJEKTY\procesory\STM\T104_V100a_GASTOP\sources/gui.c:3079
                    Menu_Keys = Menu_Backup_Keys_Set;
  28:	3011      	adds	r0, #17
  2a:	3203      	adds	r2, #3
  2c:	4919      	ldr	r1, [pc, #100]	(94 <Keyboard_Prog_Test+0x94>)
  2e:	f7ff fffe 	bl	0 <memcpy>
C:\tien\PROJEKTY\procesory\STM\T104_V100a_GASTOP\sources/gui.c:3080
                    Screen_Number = Screen_Before_Password;;
  32:	4b19      	ldr	r3, [pc, #100]	(98 <Keyboard_Prog_Test+0x98>)
  34:	781a      	ldrb	r2, [r3, #0]
  36:	4b19      	ldr	r3, [pc, #100]	(9c <Keyboard_Prog_Test+0x9c>)
  38:	701a      	strb	r2, [r3, #0]
C:\tien\PROJEKTY\procesory\STM\T104_V100a_GASTOP\sources/gui.c:3081
                    Reload_Screen = TRUE;
  3a:	4b19      	ldr	r3, [pc, #100]	(a0 <Keyboard_Prog_Test+0xa0>)
  3c:	701c      	strb	r4, [r3, #0]
  3e:	e019      	b.n	74 <Keyboard_Prog_Test+0x74>
C:\tien\PROJEKTY\procesory\STM\T104_V100a_GASTOP\sources/gui.c:3085
            break;

            case KEY_ENTER:
                    if ( TEST_ENABLE == TRUE )
  40:	4812      	ldr	r0, [pc, #72]	(8c <Keyboard_Prog_Test+0x8c>)
  42:	4c11      	ldr	r4, [pc, #68]	(88 <Keyboard_Prog_Test+0x88>)
  44:	f890 3024 	ldrb.w	r3, [r0, #36]
  48:	4a16      	ldr	r2, [pc, #88]	(a4 <Keyboard_Prog_Test+0xa4>)
  4a:	2b01      	cmp	r3, #1
  4c:	d106      	bne.n	5c <Keyboard_Prog_Test+0x5c>
C:\tien\PROJEKTY\procesory\STM\T104_V100a_GASTOP\sources/gui.c:3087
                    {
                        Test_String_Mask = TEST_STOPPED;
  4e:	332e      	adds	r3, #46
  50:	6013      	str	r3, [r2, #0]
C:\tien\PROJEKTY\procesory\STM\T104_V100a_GASTOP\sources/gui.c:3088
                        Machine_State = STANDBY;
  52:	2300      	movs	r3, #0
  54:	7023      	strb	r3, [r4, #0]
C:\tien\PROJEKTY\procesory\STM\T104_V100a_GASTOP\sources/gui.c:3089
                        TEST_ENABLE = FALSE;
  56:	f880 3024 	strb.w	r3, [r0, #36]
  5a:	e008      	b.n	6e <Keyboard_Prog_Test+0x6e>
C:\tien\PROJEKTY\procesory\STM\T104_V100a_GASTOP\sources/gui.c:3093
                    }
                    else
                    {
                        Test_String_Mask = TEST_STARTED;
  5c:	231f      	movs	r3, #31
  5e:	6013      	str	r3, [r2, #0]
C:\tien\PROJEKTY\procesory\STM\T104_V100a_GASTOP\sources/gui.c:3094
                        Test_Cntr = 0;
  60:	4b11      	ldr	r3, [pc, #68]	(a8 <Keyboard_Prog_Test+0xa8>)
  62:	2200      	movs	r2, #0
  64:	701a      	strb	r2, [r3, #0]
C:\tien\PROJEKTY\procesory\STM\T104_V100a_GASTOP\sources/gui.c:3095
                        Machine_State = TEST_START;
  66:	230f      	movs	r3, #15
  68:	7023      	strb	r3, [r4, #0]
C:\tien\PROJEKTY\procesory\STM\T104_V100a_GASTOP\sources/gui.c:3096
                        TEST_ENABLE = TRUE;
  6a:	f880 1024 	strb.w	r1, [r0, #36]
C:\tien\PROJEKTY\procesory\STM\T104_V100a_GASTOP\sources/gui.c:3098
                    }
                    Reload_Screen = TRUE;
  6e:	4b0c      	ldr	r3, [pc, #48]	(a0 <Keyboard_Prog_Test+0xa0>)
  70:	2201      	movs	r2, #1
  72:	701a      	strb	r2, [r3, #0]
C:\tien\PROJEKTY\procesory\STM\T104_V100a_GASTOP\sources/gui.c:3104
            break;

           default:
           break;
        }
        Keyboard.Keyboard_Flag = 0;
  74:	4b03      	ldr	r3, [pc, #12]	(84 <Keyboard_Prog_Test+0x84>)
  76:	2200      	movs	r2, #0
  78:	709a      	strb	r2, [r3, #2]
C:\tien\PROJEKTY\procesory\STM\T104_V100a_GASTOP\sources/gui.c:3107
    }

    if ( Keyboard.Keyboard_State == 0 )
  7a:	4a02      	ldr	r2, [pc, #8]	(84 <Keyboard_Prog_Test+0x84>)
  7c:	7853      	ldrb	r3, [r2, #1]
  7e:	b903      	cbnz	r3, 82 <Keyboard_Prog_Test+0x82>
C:\tien\PROJEKTY\procesory\STM\T104_V100a_GASTOP\sources/gui.c:3109
    {
        Keyboard.Keyboard_Memory = 0;
  80:	7013      	strb	r3, [r2, #0]
C:\tien\PROJEKTY\procesory\STM\T104_V100a_GASTOP\sources/gui.c:3111
    }
}
  82:	bd10      	pop	{r4, pc}
	...
Disassembly of section .text.Keyboard_Ster_Blok:

00000000 <Keyboard_Ster_Blok>:
Keyboard_Ster_Blok():
C:\tien\PROJEKTY\procesory\STM\T104_V100a_GASTOP\sources/gui.c:3157
* Input          : None
* Output         : None
* Return         : None
*******************************************************************************/
static void Keyboard_Ster_Blok ( void )
{
   0:	b510      	push	{r4, lr}
C:\tien\PROJEKTY\procesory\STM\T104_V100a_GASTOP\sources/gui.c:3158
    if ( Keyboard.Keyboard_Memory != 0 && Keyboard.Keyboard_Flag == 1 )
   2:	4b0d      	ldr	r3, [pc, #52]	(38 <Keyboard_Ster_Blok+0x38>)
   4:	781c      	ldrb	r4, [r3, #0]
   6:	b18c      	cbz	r4, 2c <Keyboard_Ster_Blok+0x2c>
   8:	789b      	ldrb	r3, [r3, #2]
   a:	2b01      	cmp	r3, #1
   c:	d10e      	bne.n	2c <Keyboard_Ster_Blok+0x2c>
C:\tien\PROJEKTY\procesory\STM\T104_V100a_GASTOP\sources/gui.c:3160
    {
        switch ( Keyboard.Keyboard_Memory )
   e:	2c01      	cmp	r4, #1
  10:	d109      	bne.n	26 <Keyboard_Ster_Blok+0x26>
C:\tien\PROJEKTY\procesory\STM\T104_V100a_GASTOP\sources/gui.c:3163
        {
            case KEY_ENTER:
                   Screen_Number = ODBLOKUJ;
  12:	4b0a      	ldr	r3, [pc, #40]	(3c <Keyboard_Ster_Blok+0x3c>)
  14:	2220      	movs	r2, #32
  16:	701a      	strb	r2, [r3, #0]
C:\tien\PROJEKTY\procesory\STM\T104_V100a_GASTOP\sources/gui.c:3164
                   Count_Add = 0;
  18:	4b09      	ldr	r3, [pc, #36]	(40 <Keyboard_Ster_Blok+0x40>)
  1a:	2200      	movs	r2, #0
  1c:	701a      	strb	r2, [r3, #0]
C:\tien\PROJEKTY\procesory\STM\T104_V100a_GASTOP\sources/gui.c:3165
                   First_Editable_Variable();
  1e:	f7ff fffe 	bl	0 <Keyboard_Ster_Blok>
C:\tien\PROJEKTY\procesory\STM\T104_V100a_GASTOP\sources/gui.c:3166
                   Reload_Screen = TRUE;
  22:	4b08      	ldr	r3, [pc, #32]	(44 <Keyboard_Ster_Blok+0x44>)
  24:	701c      	strb	r4, [r3, #0]
C:\tien\PROJEKTY\procesory\STM\T104_V100a_GASTOP\sources/gui.c:3172
            break;

            default:
            break;
        }
        Keyboard.Keyboard_Flag = 0;
  26:	4b04      	ldr	r3, [pc, #16]	(38 <Keyboard_Ster_Blok+0x38>)
  28:	2200      	movs	r2, #0
  2a:	709a      	strb	r2, [r3, #2]
C:\tien\PROJEKTY\procesory\STM\T104_V100a_GASTOP\sources/gui.c:3175
    }

    if ( Keyboard.Keyboard_State == 0 )
  2c:	4a02      	ldr	r2, [pc, #8]	(38 <Keyboard_Ster_Blok+0x38>)
  2e:	7853      	ldrb	r3, [r2, #1]
  30:	b903      	cbnz	r3, 34 <Keyboard_Ster_Blok+0x34>
C:\tien\PROJEKTY\procesory\STM\T104_V100a_GASTOP\sources/gui.c:3177
    {
        Keyboard.Keyboard_Memory = 0;
  32:	7013      	strb	r3, [r2, #0]
C:\tien\PROJEKTY\procesory\STM\T104_V100a_GASTOP\sources/gui.c:3179
    }
}
  34:	bd10      	pop	{r4, pc}
  36:	46c0      	nop			(mov r8, r8)
	...
Disassembly of section .text.Keyboard_Odczyt_Serwis:

00000000 <Keyboard_Odczyt_Serwis>:
Keyboard_Odczyt_Serwis():
C:\tien\PROJEKTY\procesory\STM\T104_V100a_GASTOP\sources/gui.c:3448
* Input          : None
* Output         : None
* Return         : None
*******************************************************************************/
static void Keyboard_Odczyt_Serwis ( void )
{
   0:	b510      	push	{r4, lr}
C:\tien\PROJEKTY\procesory\STM\T104_V100a_GASTOP\sources/gui.c:3449
    if ( Keyboard.Keyboard_Memory != 0 && Keyboard.Keyboard_Flag == 1 )
   2:	4a0d      	ldr	r2, [pc, #52]	(38 <Keyboard_Odczyt_Serwis+0x38>)
   4:	7813      	ldrb	r3, [r2, #0]
   6:	b193      	cbz	r3, 2e <Keyboard_Odczyt_Serwis+0x2e>
   8:	7894      	ldrb	r4, [r2, #2]
   a:	2c01      	cmp	r4, #1
   c:	d10f      	bne.n	2e <Keyboard_Odczyt_Serwis+0x2e>
C:\tien\PROJEKTY\procesory\STM\T104_V100a_GASTOP\sources/gui.c:3451
    {
        switch ( Keyboard.Keyboard_Memory )
   e:	2b02      	cmp	r3, #2
  10:	d10a      	bne.n	28 <Keyboard_Odczyt_Serwis+0x28>
C:\tien\PROJEKTY\procesory\STM\T104_V100a_GASTOP\sources/gui.c:3454
        {
            case KEY_ESCAPE:
                    Menu_Keys = Menu_Backup_Keys_Set;
  12:	2203      	movs	r2, #3
  14:	4809      	ldr	r0, [pc, #36]	(3c <Keyboard_Odczyt_Serwis+0x3c>)
  16:	490a      	ldr	r1, [pc, #40]	(40 <Keyboard_Odczyt_Serwis+0x40>)
  18:	f7ff fffe 	bl	0 <memcpy>
C:\tien\PROJEKTY\procesory\STM\T104_V100a_GASTOP\sources/gui.c:3455
                    Screen_Number = Screen_Before_Password;
  1c:	4b09      	ldr	r3, [pc, #36]	(44 <Keyboard_Odczyt_Serwis+0x44>)
  1e:	781a      	ldrb	r2, [r3, #0]
  20:	4b09      	ldr	r3, [pc, #36]	(48 <Keyboard_Odczyt_Serwis+0x48>)
  22:	701a      	strb	r2, [r3, #0]
C:\tien\PROJEKTY\procesory\STM\T104_V100a_GASTOP\sources/gui.c:3456
                    Reload_Screen = TRUE;
  24:	4b09      	ldr	r3, [pc, #36]	(4c <Keyboard_Odczyt_Serwis+0x4c>)
  26:	701c      	strb	r4, [r3, #0]
C:\tien\PROJEKTY\procesory\STM\T104_V100a_GASTOP\sources/gui.c:3462
            break;

            default:
            break;
        }
        Keyboard.Keyboard_Flag = 0;
  28:	4b03      	ldr	r3, [pc, #12]	(38 <Keyboard_Odczyt_Serwis+0x38>)
  2a:	2200      	movs	r2, #0
  2c:	709a      	strb	r2, [r3, #2]
C:\tien\PROJEKTY\procesory\STM\T104_V100a_GASTOP\sources/gui.c:3465
    }

    if ( Keyboard.Keyboard_State == 0 )
  2e:	4a02      	ldr	r2, [pc, #8]	(38 <Keyboard_Odczyt_Serwis+0x38>)
  30:	7853      	ldrb	r3, [r2, #1]
  32:	b903      	cbnz	r3, 36 <Keyboard_Odczyt_Serwis+0x36>
C:\tien\PROJEKTY\procesory\STM\T104_V100a_GASTOP\sources/gui.c:3467
    {
        Keyboard.Keyboard_Memory = 0;
  34:	7013      	strb	r3, [r2, #0]
C:\tien\PROJEKTY\procesory\STM\T104_V100a_GASTOP\sources/gui.c:3469
    }
}
  36:	bd10      	pop	{r4, pc}
  38:	00000000 	.word	0x00000000
  3c:	00000011 	.word	0x00000011
	...
Disassembly of section .text.Keyboard_Ind_Test:

00000000 <Keyboard_Ind_Test>:
Keyboard_Ind_Test():
C:\tien\PROJEKTY\procesory\STM\T104_V100a_GASTOP\sources/gui.c:3479
* Input          : None
* Output         : None
* Return         : None
*******************************************************************************/
static void Keyboard_Ind_Test ( void )
{
   0:	b510      	push	{r4, lr}
C:\tien\PROJEKTY\procesory\STM\T104_V100a_GASTOP\sources/gui.c:3480
    if ( Keyboard.Keyboard_Memory != 0 && Keyboard.Keyboard_Flag == 1 )
   2:	4b16      	ldr	r3, [pc, #88]	(5c <Keyboard_Ind_Test+0x5c>)
   4:	7819      	ldrb	r1, [r3, #0]
   6:	b319      	cbz	r1, 50 <Keyboard_Ind_Test+0x50>
   8:	789c      	ldrb	r4, [r3, #2]
   a:	2c01      	cmp	r4, #1
   c:	d120      	bne.n	50 <Keyboard_Ind_Test+0x50>
C:\tien\PROJEKTY\procesory\STM\T104_V100a_GASTOP\sources/gui.c:3482
    {
        switch ( Keyboard.Keyboard_Memory )
   e:	2901      	cmp	r1, #1
  10:	d010      	beq.n	34 <Keyboard_Ind_Test+0x34>
  12:	2902      	cmp	r1, #2
  14:	d119      	bne.n	4a <Keyboard_Ind_Test+0x4a>
C:\tien\PROJEKTY\procesory\STM\T104_V100a_GASTOP\sources/gui.c:3485
        {
            case KEY_ESCAPE:
                    Machine_State = STANDBY;
  16:	4b12      	ldr	r3, [pc, #72]	(60 <Keyboard_Ind_Test+0x60>)
  18:	2200      	movs	r2, #0
  1a:	701a      	strb	r2, [r3, #0]
C:\tien\PROJEKTY\procesory\STM\T104_V100a_GASTOP\sources/gui.c:3486
                    Menu_Keys = Menu_Backup_Keys_Set;
  1c:	4811      	ldr	r0, [pc, #68]	(64 <Keyboard_Ind_Test+0x64>)
  1e:	3203      	adds	r2, #3
  20:	4911      	ldr	r1, [pc, #68]	(68 <Keyboard_Ind_Test+0x68>)
  22:	f7ff fffe 	bl	0 <memcpy>
C:\tien\PROJEKTY\procesory\STM\T104_V100a_GASTOP\sources/gui.c:3487
                    Screen_Number = Screen_Before_Password;
  26:	4b11      	ldr	r3, [pc, #68]	(6c <Keyboard_Ind_Test+0x6c>)
  28:	781a      	ldrb	r2, [r3, #0]
  2a:	4b11      	ldr	r3, [pc, #68]	(70 <Keyboard_Ind_Test+0x70>)
  2c:	701a      	strb	r2, [r3, #0]
C:\tien\PROJEKTY\procesory\STM\T104_V100a_GASTOP\sources/gui.c:3488
                    Reload_Screen = TRUE;
  2e:	4b11      	ldr	r3, [pc, #68]	(74 <Keyboard_Ind_Test+0x74>)
  30:	701c      	strb	r4, [r3, #0]
  32:	e00a      	b.n	4a <Keyboard_Ind_Test+0x4a>
C:\tien\PROJEKTY\procesory\STM\T104_V100a_GASTOP\sources/gui.c:3492
            break;
            
            case KEY_ENTER:
                    Controller_Variables.Controller_Vars.Sensor_Counter = IND_OFFSET;
  34:	4b10      	ldr	r3, [pc, #64]	(78 <Keyboard_Ind_Test+0x78>)
  36:	2264      	movs	r2, #100
  38:	711a      	strb	r2, [r3, #4]
C:\tien\PROJEKTY\procesory\STM\T104_V100a_GASTOP\sources/gui.c:3493
                    Machine_State = IND_START;
  3a:	4b09      	ldr	r3, [pc, #36]	(60 <Keyboard_Ind_Test+0x60>)
  3c:	222b      	movs	r2, #43
  3e:	701a      	strb	r2, [r3, #0]
C:\tien\PROJEKTY\procesory\STM\T104_V100a_GASTOP\sources/gui.c:3494
                    Ind_Test_Mask = IND_MASK_TEST;
  40:	4b0e      	ldr	r3, [pc, #56]	(7c <Keyboard_Ind_Test+0x7c>)
  42:	220b      	movs	r2, #11
  44:	601a      	str	r2, [r3, #0]
C:\tien\PROJEKTY\procesory\STM\T104_V100a_GASTOP\sources/gui.c:3495
                    Reload_Screen = TRUE;
  46:	4b0b      	ldr	r3, [pc, #44]	(74 <Keyboard_Ind_Test+0x74>)
  48:	7019      	strb	r1, [r3, #0]
C:\tien\PROJEKTY\procesory\STM\T104_V100a_GASTOP\sources/gui.c:3501
            break;         

            default:
            break;
        }
        Keyboard.Keyboard_Flag = 0;
  4a:	4b04      	ldr	r3, [pc, #16]	(5c <Keyboard_Ind_Test+0x5c>)
  4c:	2200      	movs	r2, #0
  4e:	709a      	strb	r2, [r3, #2]
C:\tien\PROJEKTY\procesory\STM\T104_V100a_GASTOP\sources/gui.c:3504
    }

    if ( Keyboard.Keyboard_State == 0 )
  50:	4a02      	ldr	r2, [pc, #8]	(5c <Keyboard_Ind_Test+0x5c>)
  52:	7853      	ldrb	r3, [r2, #1]
  54:	b903      	cbnz	r3, 58 <Keyboard_Ind_Test+0x58>
C:\tien\PROJEKTY\procesory\STM\T104_V100a_GASTOP\sources/gui.c:3506
    {
        Keyboard.Keyboard_Memory = 0;
  56:	7013      	strb	r3, [r2, #0]
C:\tien\PROJEKTY\procesory\STM\T104_V100a_GASTOP\sources/gui.c:3508
    }
}
  58:	bd10      	pop	{r4, pc}
  5a:	46c0      	nop			(mov r8, r8)
	...
  64:	00000011 	.word	0x00000011
	...
Disassembly of section .text.Keyboard_Test_WeWy:

00000000 <Keyboard_Test_WeWy>:
Keyboard_Test_WeWy():
C:\tien\PROJEKTY\procesory\STM\T104_V100a_GASTOP\sources/gui.c:3517
* Input          : None
* Output         : None
* Return         : None
*******************************************************************************/
static void Keyboard_Test_WeWy ( void )
{
   0:	b510      	push	{r4, lr}
C:\tien\PROJEKTY\procesory\STM\T104_V100a_GASTOP\sources/gui.c:3518
    if ( Keyboard.Keyboard_Memory != 0 && Keyboard.Keyboard_Flag == 1 )
   2:	4a13      	ldr	r2, [pc, #76]	(50 <Keyboard_Test_WeWy+0x50>)
   4:	7813      	ldrb	r3, [r2, #0]
   6:	b1f3      	cbz	r3, 46 <Keyboard_Test_WeWy+0x46>
   8:	7894      	ldrb	r4, [r2, #2]
   a:	2c01      	cmp	r4, #1
   c:	d11b      	bne.n	46 <Keyboard_Test_WeWy+0x46>
C:\tien\PROJEKTY\procesory\STM\T104_V100a_GASTOP\sources/gui.c:3520
    {
        switch ( Keyboard.Keyboard_Memory )
   e:	2b02      	cmp	r3, #2
  10:	d114      	bne.n	3c <Keyboard_Test_WeWy+0x3c>
C:\tien\PROJEKTY\procesory\STM\T104_V100a_GASTOP\sources/gui.c:3523
        {
            case KEY_ESCAPE:
                if ( Controller_Variables.Controller_Vars.Test_Marker != GO_2_TEST_PROGRAM )
  12:	4b10      	ldr	r3, [pc, #64]	(54 <Keyboard_Test_WeWy+0x54>)
  14:	8ada      	ldrh	r2, [r3, #22]
  16:	f24a 53a5 	movw	r3, #42405	; 0xa5a5
  1a:	429a      	cmp	r2, r3
  1c:	d010      	beq.n	40 <Keyboard_Test_WeWy+0x40>
C:\tien\PROJEKTY\procesory\STM\T104_V100a_GASTOP\sources/gui.c:3525
                {
                    Machine_State = STANDBY;
  1e:	4b0e      	ldr	r3, [pc, #56]	(58 <Keyboard_Test_WeWy+0x58>)
  20:	2200      	movs	r2, #0
  22:	701a      	strb	r2, [r3, #0]
C:\tien\PROJEKTY\procesory\STM\T104_V100a_GASTOP\sources/gui.c:3526
                    Menu_Keys = Menu_Backup_Keys_Set;
  24:	480d      	ldr	r0, [pc, #52]	(5c <Keyboard_Test_WeWy+0x5c>)
  26:	3203      	adds	r2, #3
  28:	490d      	ldr	r1, [pc, #52]	(60 <Keyboard_Test_WeWy+0x60>)
  2a:	f7ff fffe 	bl	0 <memcpy>
C:\tien\PROJEKTY\procesory\STM\T104_V100a_GASTOP\sources/gui.c:3527
                    Screen_Number = Screen_Before_Password;
  2e:	4b0d      	ldr	r3, [pc, #52]	(64 <Keyboard_Test_WeWy+0x64>)
  30:	781a      	ldrb	r2, [r3, #0]
  32:	4b0d      	ldr	r3, [pc, #52]	(68 <Keyboard_Test_WeWy+0x68>)
  34:	701a      	strb	r2, [r3, #0]
C:\tien\PROJEKTY\procesory\STM\T104_V100a_GASTOP\sources/gui.c:3528
                    Reload_Screen = TRUE;
  36:	4b0d      	ldr	r3, [pc, #52]	(6c <Keyboard_Test_WeWy+0x6c>)
  38:	701c      	strb	r4, [r3, #0]
  3a:	e001      	b.n	40 <Keyboard_Test_WeWy+0x40>
C:\tien\PROJEKTY\procesory\STM\T104_V100a_GASTOP\sources/gui.c:3533
                }
            break;

            default:
                Keyboard_Edit_Variable();
  3c:	f7ff fffe 	bl	0 <Keyboard_Test_WeWy>
C:\tien\PROJEKTY\procesory\STM\T104_V100a_GASTOP\sources/gui.c:3536
            break;
        }
        Keyboard.Keyboard_Flag = 0;
  40:	4b03      	ldr	r3, [pc, #12]	(50 <Keyboard_Test_WeWy+0x50>)
  42:	2200      	movs	r2, #0
  44:	709a      	strb	r2, [r3, #2]
C:\tien\PROJEKTY\procesory\STM\T104_V100a_GASTOP\sources/gui.c:3539
    }

    if ( Keyboard.Keyboard_State == 0 )
  46:	4a02      	ldr	r2, [pc, #8]	(50 <Keyboard_Test_WeWy+0x50>)
  48:	7853      	ldrb	r3, [r2, #1]
  4a:	b903      	cbnz	r3, 4e <Keyboard_Test_WeWy+0x4e>
C:\tien\PROJEKTY\procesory\STM\T104_V100a_GASTOP\sources/gui.c:3541
    {
        Keyboard.Keyboard_Memory = 0;
  4c:	7013      	strb	r3, [r2, #0]
C:\tien\PROJEKTY\procesory\STM\T104_V100a_GASTOP\sources/gui.c:3543
    }
}
  4e:	bd10      	pop	{r4, pc}
	...
  5c:	00000011 	.word	0x00000011
	...
Disassembly of section .text.Keyboard_Info:

00000000 <Keyboard_Info>:
Keyboard_Info():
C:\tien\PROJEKTY\procesory\STM\T104_V100a_GASTOP\sources/gui.c:3553
* Input          : None
* Output         : None
* Return         : None
*******************************************************************************/
static void Keyboard_Info ( void )
{
   0:	b570      	push	{r4, r5, r6, lr}
C:\tien\PROJEKTY\procesory\STM\T104_V100a_GASTOP\sources/gui.c:3554
    if ( Keyboard.Keyboard_Memory != 0 && Keyboard.Keyboard_Flag == 1 )
   2:	4b0e      	ldr	r3, [pc, #56]	(3c <Keyboard_Info+0x3c>)
   4:	781c      	ldrb	r4, [r3, #0]
   6:	b19c      	cbz	r4, 30 <Keyboard_Info+0x30>
   8:	789d      	ldrb	r5, [r3, #2]
   a:	2d01      	cmp	r5, #1
   c:	d110      	bne.n	30 <Keyboard_Info+0x30>
C:\tien\PROJEKTY\procesory\STM\T104_V100a_GASTOP\sources/gui.c:3556
    {
        switch ( Keyboard.Keyboard_Memory )
   e:	2c02      	cmp	r4, #2
  10:	d10b      	bne.n	2a <Keyboard_Info+0x2a>
C:\tien\PROJEKTY\procesory\STM\T104_V100a_GASTOP\sources/gui.c:3559
        {
            case KEY_ESCAPE:
                    Variable_Editing_Ptr = NULL;
  12:	4b0b      	ldr	r3, [pc, #44]	(40 <Keyboard_Info+0x40>)
  14:	2200      	movs	r2, #0
  16:	601a      	str	r2, [r3, #0]
C:\tien\PROJEKTY\procesory\STM\T104_V100a_GASTOP\sources/gui.c:3560
                    Menu_Keys = Menu_Backup_Keys;
  18:	480a      	ldr	r0, [pc, #40]	(44 <Keyboard_Info+0x44>)
  1a:	490b      	ldr	r1, [pc, #44]	(48 <Keyboard_Info+0x48>)
  1c:	3203      	adds	r2, #3
  1e:	f7ff fffe 	bl	0 <memcpy>
C:\tien\PROJEKTY\procesory\STM\T104_V100a_GASTOP\sources/gui.c:3561
                    Screen_Number = MENU;
  22:	4b0a      	ldr	r3, [pc, #40]	(4c <Keyboard_Info+0x4c>)
  24:	701c      	strb	r4, [r3, #0]
C:\tien\PROJEKTY\procesory\STM\T104_V100a_GASTOP\sources/gui.c:3562
                    Reload_Screen = TRUE;
  26:	4b0a      	ldr	r3, [pc, #40]	(50 <Keyboard_Info+0x50>)
  28:	701d      	strb	r5, [r3, #0]
C:\tien\PROJEKTY\procesory\STM\T104_V100a_GASTOP\sources/gui.c:3568
            break;

            default:
            break;
        }
        Keyboard.Keyboard_Flag = 0;
  2a:	4b04      	ldr	r3, [pc, #16]	(3c <Keyboard_Info+0x3c>)
  2c:	2200      	movs	r2, #0
  2e:	709a      	strb	r2, [r3, #2]
C:\tien\PROJEKTY\procesory\STM\T104_V100a_GASTOP\sources/gui.c:3571
    }

    if ( Keyboard.Keyboard_State == 0 )
  30:	4a02      	ldr	r2, [pc, #8]	(3c <Keyboard_Info+0x3c>)
  32:	7853      	ldrb	r3, [r2, #1]
  34:	b903      	cbnz	r3, 38 <Keyboard_Info+0x38>
C:\tien\PROJEKTY\procesory\STM\T104_V100a_GASTOP\sources/gui.c:3573
    {
        Keyboard.Keyboard_Memory = 0;
  36:	7013      	strb	r3, [r2, #0]
C:\tien\PROJEKTY\procesory\STM\T104_V100a_GASTOP\sources/gui.c:3575
    }
}
  38:	bd70      	pop	{r4, r5, r6, pc}
  3a:	46c0      	nop			(mov r8, r8)
	...
  44:	00000011 	.word	0x00000011
	...
Disassembly of section .text.Lock_Init:

00000000 <Lock_Init>:
Lock_Init():
C:\tien\PROJEKTY\procesory\STM\T104_V100a_GASTOP\sources/gui.c:3751
* Input          : None
* Output         : None
* Return         : None
*******************************************************************************/
void Lock_Init ( void )
{
   0:	b510      	push	{r4, lr}
C:\tien\PROJEKTY\procesory\STM\T104_V100a_GASTOP\sources/gui.c:3752
    if ( Service_Variables.Serv_Vars.Marker_Blokady == STER_ODBLOKOWANY )
   2:	4b18      	ldr	r3, [pc, #96]	(64 <Lock_Init+0x64>)
   4:	f893 1021 	ldrb.w	r1, [r3, #33]
   8:	b969      	cbnz	r1, 26 <Lock_Init+0x26>
C:\tien\PROJEKTY\procesory\STM\T104_V100a_GASTOP\sources/gui.c:3754
    {
        if ( Controller_Variables.Controller_Vars.Test_Marker == GO_2_TEST_PROGRAM )
   a:	4b17      	ldr	r3, [pc, #92]	(68 <Lock_Init+0x68>)
   c:	8ada      	ldrh	r2, [r3, #22]
   e:	f24a 53a5 	movw	r3, #42405	; 0xa5a5
  12:	429a      	cmp	r2, r3
  14:	4a15      	ldr	r2, [pc, #84]	(6c <Lock_Init+0x6c>)
  16:	d104      	bne.n	22 <Lock_Init+0x22>
C:\tien\PROJEKTY\procesory\STM\T104_V100a_GASTOP\sources/gui.c:3756
        {
            Screen_Number = TEST_WEWY;
  18:	2329      	movs	r3, #41
  1a:	7013      	strb	r3, [r2, #0]
C:\tien\PROJEKTY\procesory\STM\T104_V100a_GASTOP\sources/gui.c:3757
            Count_Add = 0;
  1c:	4b14      	ldr	r3, [pc, #80]	(70 <Lock_Init+0x70>)
  1e:	7019      	strb	r1, [r3, #0]
  20:	e00f      	b.n	42 <Lock_Init+0x42>
C:\tien\PROJEKTY\procesory\STM\T104_V100a_GASTOP\sources/gui.c:3762
            First_Editable_Variable();        
        }
        else
        {
            Screen_Number = STANDBY_SCR;
  22:	7011      	strb	r1, [r2, #0]
  24:	e01c      	b.n	60 <Lock_Init+0x60>
C:\tien\PROJEKTY\procesory\STM\T104_V100a_GASTOP\sources/gui.c:3765
        }
    }
    else if ( Service_Variables.Serv_Vars.Marker_Blokady == STER_BLOKOWANY )
  26:	2903      	cmp	r1, #3
  28:	d111      	bne.n	4e <Lock_Init+0x4e>
C:\tien\PROJEKTY\procesory\STM\T104_V100a_GASTOP\sources/gui.c:3767
    {
        if ( Controller_Variables.Controller_Vars.Test_Marker == GO_2_TEST_PROGRAM )
  2a:	4b0f      	ldr	r3, [pc, #60]	(68 <Lock_Init+0x68>)
  2c:	8ada      	ldrh	r2, [r3, #22]
  2e:	f24a 53a5 	movw	r3, #42405	; 0xa5a5
  32:	429a      	cmp	r2, r3
  34:	4a0d      	ldr	r2, [pc, #52]	(6c <Lock_Init+0x6c>)
  36:	d107      	bne.n	48 <Lock_Init+0x48>
C:\tien\PROJEKTY\procesory\STM\T104_V100a_GASTOP\sources/gui.c:3769
        {
            Screen_Number = TEST_WEWY; 
  38:	2329      	movs	r3, #41
  3a:	7013      	strb	r3, [r2, #0]
C:\tien\PROJEKTY\procesory\STM\T104_V100a_GASTOP\sources/gui.c:3770
            Count_Add = 0;
  3c:	4b0c      	ldr	r3, [pc, #48]	(70 <Lock_Init+0x70>)
  3e:	2200      	movs	r2, #0
  40:	701a      	strb	r2, [r3, #0]
C:\tien\PROJEKTY\procesory\STM\T104_V100a_GASTOP\sources/gui.c:3771
            First_Editable_Variable();
  42:	f7ff fffe 	bl	0 <Lock_Init>
  46:	e00b      	b.n	60 <Lock_Init+0x60>
C:\tien\PROJEKTY\procesory\STM\T104_V100a_GASTOP\sources/gui.c:3775
        }
        else
        {
            Screen_Number = STANDBY_SCR;
  48:	2300      	movs	r3, #0
  4a:	7013      	strb	r3, [r2, #0]
  4c:	e008      	b.n	60 <Lock_Init+0x60>
C:\tien\PROJEKTY\procesory\STM\T104_V100a_GASTOP\sources/gui.c:3778
        }
    }
    else if ( Service_Variables.Serv_Vars.Marker_Blokady == STER_ZABLOKOWANY )
  4e:	2901      	cmp	r1, #1
  50:	d101      	bne.n	56 <Lock_Init+0x56>
C:\tien\PROJEKTY\procesory\STM\T104_V100a_GASTOP\sources/gui.c:3780
    {
        Screen_Number = STER_BLOK;  
  52:	221f      	movs	r2, #31
  54:	e002      	b.n	5c <Lock_Init+0x5c>
C:\tien\PROJEKTY\procesory\STM\T104_V100a_GASTOP\sources/gui.c:3782
    }
    else if ( Service_Variables.Serv_Vars.Marker_Blokady == STER_BLOKADA_CALKOWITA )
  56:	2902      	cmp	r1, #2
  58:	d102      	bne.n	60 <Lock_Init+0x60>
C:\tien\PROJEKTY\procesory\STM\T104_V100a_GASTOP\sources/gui.c:3784
    {
        Screen_Number = BLOK_CALK;
  5a:	221e      	movs	r2, #30
  5c:	4b03      	ldr	r3, [pc, #12]	(6c <Lock_Init+0x6c>)
  5e:	701a      	strb	r2, [r3, #0]
C:\tien\PROJEKTY\procesory\STM\T104_V100a_GASTOP\sources/gui.c:3786
    }
}
  60:	bd10      	pop	{r4, pc}
  62:	46c0      	nop			(mov r8, r8)
	...
Disassembly of section .text.Keyboard_Date:

00000000 <Keyboard_Date>:
Keyboard_Date():
C:\tien\PROJEKTY\procesory\STM\T104_V100a_GASTOP\sources/gui.c:2065
* Input          : None
* Output         : None
* Return         : None
*******************************************************************************/
static void Keyboard_Date ( void )
{
   0:	b570      	push	{r4, r5, r6, lr}
C:\tien\PROJEKTY\procesory\STM\T104_V100a_GASTOP\sources/gui.c:2067

    if ( Keyboard.Keyboard_Memory != 0 && Keyboard.Keyboard_Flag == 1 )
   2:	4b24      	ldr	r3, [pc, #144]	(94 <Keyboard_Date+0x94>)
   4:	781c      	ldrb	r4, [r3, #0]
   6:	2c00      	cmp	r4, #0
   8:	d03f      	beq.n	8a <Keyboard_Date+0x8a>
   a:	789d      	ldrb	r5, [r3, #2]
   c:	2d01      	cmp	r5, #1
   e:	d13c      	bne.n	8a <Keyboard_Date+0x8a>
C:\tien\PROJEKTY\procesory\STM\T104_V100a_GASTOP\sources/gui.c:2069
    {
        switch ( Keyboard.Keyboard_Memory )
  10:	2c02      	cmp	r4, #2
  12:	d008      	beq.n	26 <Keyboard_Date+0x26>
  14:	d802      	bhi.n	1c <Keyboard_Date+0x1c>
  16:	2c01      	cmp	r4, #1
  18:	d132      	bne.n	80 <Keyboard_Date+0x80>
  1a:	e033      	b.n	84 <Keyboard_Date+0x84>
  1c:	2c08      	cmp	r4, #8
  1e:	d023      	beq.n	68 <Keyboard_Date+0x68>
  20:	2c20      	cmp	r4, #32
  22:	d12d      	bne.n	80 <Keyboard_Date+0x80>
  24:	e012      	b.n	4c <Keyboard_Date+0x4c>
C:\tien\PROJEKTY\procesory\STM\T104_V100a_GASTOP\sources/gui.c:2072
        {
            case KEY_ESCAPE:
                    Variable_Editing_Ptr = NULL;
  26:	4b1c      	ldr	r3, [pc, #112]	(98 <Keyboard_Date+0x98>)
  28:	2200      	movs	r2, #0
  2a:	601a      	str	r2, [r3, #0]
C:\tien\PROJEKTY\procesory\STM\T104_V100a_GASTOP\sources/gui.c:2073
                    Write_Date ( &Date_Set );
  2c:	481b      	ldr	r0, [pc, #108]	(9c <Keyboard_Date+0x9c>)
  2e:	f7ff fffe 	bl	0 <Write_Date>
C:\tien\PROJEKTY\procesory\STM\T104_V100a_GASTOP\sources/gui.c:2074
                    Update_Time ( &Time_Set );
  32:	481b      	ldr	r0, [pc, #108]	(70 <Update_Time+0x70>)
  34:	f7ff fffe 	bl	0 <Update_Time>
C:\tien\PROJEKTY\procesory\STM\T104_V100a_GASTOP\sources/gui.c:2075
                    Menu_Keys = Menu_Backup_Keys;
  38:	481a      	ldr	r0, [pc, #104]	(a4 <Keyboard_Date+0xa4>)
  3a:	491b      	ldr	r1, [pc, #108]	(a8 <Keyboard_Date+0xa8>)
  3c:	2203      	movs	r2, #3
  3e:	f7ff fffe 	bl	0 <memcpy>
C:\tien\PROJEKTY\procesory\STM\T104_V100a_GASTOP\sources/gui.c:2076
                    Screen_Number = MENU;
  42:	4b1a      	ldr	r3, [pc, #104]	(ac <Keyboard_Date+0xac>)
  44:	701c      	strb	r4, [r3, #0]
C:\tien\PROJEKTY\procesory\STM\T104_V100a_GASTOP\sources/gui.c:2077
                    Reload_Screen = TRUE;
  46:	4b1a      	ldr	r3, [pc, #104]	(b0 <Keyboard_Date+0xb0>)
  48:	701d      	strb	r5, [r3, #0]
  4a:	e01b      	b.n	84 <Keyboard_Date+0x84>
C:\tien\PROJEKTY\procesory\STM\T104_V100a_GASTOP\sources/gui.c:2092
                   Reload_Screen = TRUE;
*/
            break;

            case KEY_DOWN:
              if ( ++Count_Add == Variable_Editing_Ptr->Var_Param_Ptr->Variable_Digits_Count )
  4c:	4919      	ldr	r1, [pc, #100]	(b4 <Keyboard_Date+0xb4>)
  4e:	4b12      	ldr	r3, [pc, #72]	(98 <Keyboard_Date+0x98>)
  50:	780a      	ldrb	r2, [r1, #0]
  52:	681b      	ldr	r3, [r3, #0]
  54:	3201      	adds	r2, #1
  56:	b2d2      	uxtb	r2, r2
  58:	700a      	strb	r2, [r1, #0]
  5a:	68db      	ldr	r3, [r3, #12]
  5c:	789b      	ldrb	r3, [r3, #2]
  5e:	4293      	cmp	r3, r2
  60:	d10a      	bne.n	78 <Keyboard_Date+0x78>
C:\tien\PROJEKTY\procesory\STM\T104_V100a_GASTOP\sources/gui.c:2094
              {
                  Count_Add = 0;
  62:	2300      	movs	r3, #0
  64:	700b      	strb	r3, [r1, #0]
  66:	e007      	b.n	78 <Keyboard_Date+0x78>
C:\tien\PROJEKTY\procesory\STM\T104_V100a_GASTOP\sources/gui.c:2100
              }
              Reload_Screen = TRUE;  
            break;
          
            case KEY_UP:
              Count_Add = 0;
  68:	4b12      	ldr	r3, [pc, #72]	(b4 <Keyboard_Date+0xb4>)
  6a:	2200      	movs	r2, #0
  6c:	701a      	strb	r2, [r3, #0]
C:\tien\PROJEKTY\procesory\STM\T104_V100a_GASTOP\sources/gui.c:2101
              if ( Next_Editable_Variable() == FALSE )
  6e:	f7ff fffe 	bl	0 <Keyboard_Date>
  72:	b908      	cbnz	r0, 6 <Keyboard_Date+0x6>
C:\tien\PROJEKTY\procesory\STM\T104_V100a_GASTOP\sources/gui.c:2103
              {
                  First_Editable_Variable();
  74:	f7ff fffe 	bl	0 <Keyboard_Date>
C:\tien\PROJEKTY\procesory\STM\T104_V100a_GASTOP\sources/gui.c:2105
              }
              Reload_Screen = TRUE;
  78:	4b0d      	ldr	r3, [pc, #52]	(b0 <Keyboard_Date+0xb0>)
  7a:	2201      	movs	r2, #1
  7c:	701a      	strb	r2, [r3, #0]
  7e:	e001      	b.n	84 <Keyboard_Date+0x84>
C:\tien\PROJEKTY\procesory\STM\T104_V100a_GASTOP\sources/gui.c:2109
            break;

            default:
                Keyboard_Edit_Variable();
  80:	f7ff fffe 	bl	0 <Keyboard_Date>
C:\tien\PROJEKTY\procesory\STM\T104_V100a_GASTOP\sources/gui.c:2112
            break;
        }
        Keyboard.Keyboard_Flag = 0;
  84:	4b03      	ldr	r3, [pc, #12]	(94 <Keyboard_Date+0x94>)
  86:	2200      	movs	r2, #0
  88:	709a      	strb	r2, [r3, #2]
C:\tien\PROJEKTY\procesory\STM\T104_V100a_GASTOP\sources/gui.c:2115
    }

    if ( Keyboard.Keyboard_State == 0 )
  8a:	4a02      	ldr	r2, [pc, #8]	(94 <Keyboard_Date+0x94>)
  8c:	7853      	ldrb	r3, [r2, #1]
  8e:	b903      	cbnz	r3, 92 <Keyboard_Date+0x92>
C:\tien\PROJEKTY\procesory\STM\T104_V100a_GASTOP\sources/gui.c:2117
    {
        Keyboard.Keyboard_Memory = 0;
  90:	7013      	strb	r3, [r2, #0]
C:\tien\PROJEKTY\procesory\STM\T104_V100a_GASTOP\sources/gui.c:2119
    }
}
  92:	bd70      	pop	{r4, r5, r6, pc}
	...
  a4:	00000011 	.word	0x00000011
	...
Disassembly of section .text.Update_Counters:

00000000 <Update_Counters>:
Update_Counters():
C:\tien\PROJEKTY\procesory\STM\T104_V100a_GASTOP\sources/gui.c:3714
* Input          : None
* Output         : None
* Return         : None
*******************************************************************************/
void Update_Counters ( void )
{
   0:	b510      	push	{r4, lr}
C:\tien\PROJEKTY\procesory\STM\T104_V100a_GASTOP\sources/gui.c:3718
    uint32_t Bkp_Tmp;

    Bkp_Tmp = (Counters_Variables.Counters_Vars.No_Goin >> 16);
    BKP_WriteBackupRegister(BKP_DR5, Bkp_Tmp);
   2:	4c09      	ldr	r4, [pc, #36]	(28 <Update_Counters+0x28>)
   4:	2014      	movs	r0, #20
   6:	8861      	ldrh	r1, [r4, #2]
   8:	f7ff fffe 	bl	0 <BKP_WriteBackupRegister>
C:\tien\PROJEKTY\procesory\STM\T104_V100a_GASTOP\sources/gui.c:3720
    Bkp_Tmp = Counters_Variables.Counters_Vars.No_Goin;
    BKP_WriteBackupRegister(BKP_DR6, Bkp_Tmp);
   c:	2018      	movs	r0, #24
   e:	8821      	ldrh	r1, [r4, #0]
  10:	f7ff fffe 	bl	0 <BKP_WriteBackupRegister>
C:\tien\PROJEKTY\procesory\STM\T104_V100a_GASTOP\sources/gui.c:3722
    Bkp_Tmp = (Counters_Variables.Counters_Vars.No_Goout >> 16);
    BKP_WriteBackupRegister(BKP_DR7, Bkp_Tmp);
  14:	201c      	movs	r0, #28
  16:	88e1      	ldrh	r1, [r4, #6]
  18:	f7ff fffe 	bl	0 <BKP_WriteBackupRegister>
C:\tien\PROJEKTY\procesory\STM\T104_V100a_GASTOP\sources/gui.c:3724
    Bkp_Tmp = Counters_Variables.Counters_Vars.No_Goout;
    BKP_WriteBackupRegister(BKP_DR8, Bkp_Tmp);
  1c:	2020      	movs	r0, #32
  1e:	88a1      	ldrh	r1, [r4, #4]
  20:	f7ff fffe 	bl	0 <BKP_WriteBackupRegister>
C:\tien\PROJEKTY\procesory\STM\T104_V100a_GASTOP\sources/gui.c:3725
}
  24:	bd10      	pop	{r4, pc}
  26:	46c0      	nop			(mov r8, r8)
  28:	00000000 	.word	0x00000000
Disassembly of section .text.Write_Settings:

00000000 <Write_Settings>:
Write_Settings():
C:\tien\PROJEKTY\procesory\STM\T104_V100a_GASTOP\sources/gui.c:3584
* Input          : None
* Output         : None
* Return         : None
*******************************************************************************/
void Write_Settings ( void )
{
   0:	b570      	push	{r4, r5, r6, lr}
C:\tien\PROJEKTY\procesory\STM\T104_V100a_GASTOP\sources/gui.c:3588
    uint32_t i;
    uint32_t NoOfWords;

    Flash_Address = EEPROM_BASE_ADDRESS;
   2:	4b1d      	ldr	r3, [pc, #116]	(78 <Write_Settings+0x78>)
   4:	4c1d      	ldr	r4, [pc, #116]	(7c <Write_Settings+0x7c>)
C:\tien\PROJEKTY\procesory\STM\T104_V100a_GASTOP\sources/gui.c:3590

    FLASH_ClearFlag(FLASH_FLAG_BSY | FLASH_FLAG_EOP | FLASH_FLAG_PGERR | FLASH_FLAG_WRPRTERR);	
   6:	2035      	movs	r0, #53
C:\tien\PROJEKTY\procesory\STM\T104_V100a_GASTOP\sources/gui.c:3588
void Write_Settings ( void )
{
    uint32_t i;
    uint32_t NoOfWords;

    Flash_Address = EEPROM_BASE_ADDRESS;
   8:	6023      	str	r3, [r4, #0]
C:\tien\PROJEKTY\procesory\STM\T104_V100a_GASTOP\sources/gui.c:3590

    FLASH_ClearFlag(FLASH_FLAG_BSY | FLASH_FLAG_EOP | FLASH_FLAG_PGERR | FLASH_FLAG_WRPRTERR);	
   a:	f7ff fffe 	bl	0 <FLASH_ClearFlag>
C:\tien\PROJEKTY\procesory\STM\T104_V100a_GASTOP\sources/gui.c:3591
    FLASH_ErasePage(Flash_Address);
   e:	6820      	ldr	r0, [r4, #0]
  10:	f7ff fffe 	bl	0 <FLASH_ErasePage>
  14:	2400      	movs	r4, #0
C:\tien\PROJEKTY\procesory\STM\T104_V100a_GASTOP\sources/gui.c:3597

    NoOfWords = (sizeof ( Service_Variables_Set.Service_Tab )>>2);

    for ( i = 0; i < NoOfWords; i++ )
    {
        FLASH_ProgramWord(Flash_Address, Service_Variables_Set.Service_Tab[i] );
  16:	4d19      	ldr	r5, [pc, #100]	(7c <Write_Settings+0x7c>)
  18:	4b19      	ldr	r3, [pc, #100]	(80 <Write_Settings+0x80>)
  1a:	6828      	ldr	r0, [r5, #0]
  1c:	5919      	ldr	r1, [r3, r4]
  1e:	f7ff fffe 	bl	0 <FLASH_ProgramWord>
C:\tien\PROJEKTY\procesory\STM\T104_V100a_GASTOP\sources/gui.c:3598
        Flash_Address+=4;    
  22:	682b      	ldr	r3, [r5, #0]
  24:	3404      	adds	r4, #4
  26:	3304      	adds	r3, #4
C:\tien\PROJEKTY\procesory\STM\T104_V100a_GASTOP\sources/gui.c:3595
    FLASH_ClearFlag(FLASH_FLAG_BSY | FLASH_FLAG_EOP | FLASH_FLAG_PGERR | FLASH_FLAG_WRPRTERR);	
    FLASH_ErasePage(Flash_Address);

    NoOfWords = (sizeof ( Service_Variables_Set.Service_Tab )>>2);

    for ( i = 0; i < NoOfWords; i++ )
  28:	2c80      	cmp	r4, #128
C:\tien\PROJEKTY\procesory\STM\T104_V100a_GASTOP\sources/gui.c:3598
    {
        FLASH_ProgramWord(Flash_Address, Service_Variables_Set.Service_Tab[i] );
        Flash_Address+=4;    
  2a:	602b      	str	r3, [r5, #0]
C:\tien\PROJEKTY\procesory\STM\T104_V100a_GASTOP\sources/gui.c:3595
    FLASH_ClearFlag(FLASH_FLAG_BSY | FLASH_FLAG_EOP | FLASH_FLAG_PGERR | FLASH_FLAG_WRPRTERR);	
    FLASH_ErasePage(Flash_Address);

    NoOfWords = (sizeof ( Service_Variables_Set.Service_Tab )>>2);

    for ( i = 0; i < NoOfWords; i++ )
  2c:	d1f3      	bne.n	16 <Write_Settings+0x16>
C:\tien\PROJEKTY\procesory\STM\T104_V100a_GASTOP\sources/gui.c:3601
    {
        FLASH_ProgramWord(Flash_Address, Service_Variables_Set.Service_Tab[i] );
        Flash_Address+=4;    
    }

    Flash_Address = EEPROM_BASE_ADDRESS + sizeof ( Service_Variables.Service_Tab );
  2e:	4b15      	ldr	r3, [pc, #84]	(84 <Write_Settings+0x84>)
  30:	602b      	str	r3, [r5, #0]
  32:	2500      	movs	r5, #0
C:\tien\PROJEKTY\procesory\STM\T104_V100a_GASTOP\sources/gui.c:3606
    NoOfWords = (sizeof ( Controlling_Variables_Set.Variables_Tab ) >> 2);

    for ( i = 0; i < NoOfWords; i++ )
    {
        FLASH_ProgramWord(Flash_Address, Controlling_Variables_Set.Variables_Tab[i] );
  34:	4c11      	ldr	r4, [pc, #68]	(7c <Write_Settings+0x7c>)
  36:	4e14      	ldr	r6, [pc, #80]	(88 <Write_Settings+0x88>)
  38:	6820      	ldr	r0, [r4, #0]
  3a:	5971      	ldr	r1, [r6, r5]
  3c:	f7ff fffe 	bl	0 <FLASH_ProgramWord>
C:\tien\PROJEKTY\procesory\STM\T104_V100a_GASTOP\sources/gui.c:3607
        Flash_Address += 4;
  40:	6823      	ldr	r3, [r4, #0]
  42:	3504      	adds	r5, #4
  44:	3304      	adds	r3, #4
C:\tien\PROJEKTY\procesory\STM\T104_V100a_GASTOP\sources/gui.c:3604
    }

    Flash_Address = EEPROM_BASE_ADDRESS + sizeof ( Service_Variables.Service_Tab );
    NoOfWords = (sizeof ( Controlling_Variables_Set.Variables_Tab ) >> 2);

    for ( i = 0; i < NoOfWords; i++ )
  46:	2d20      	cmp	r5, #32
C:\tien\PROJEKTY\procesory\STM\T104_V100a_GASTOP\sources/gui.c:3607
    {
        FLASH_ProgramWord(Flash_Address, Controlling_Variables_Set.Variables_Tab[i] );
        Flash_Address += 4;
  48:	6023      	str	r3, [r4, #0]
C:\tien\PROJEKTY\procesory\STM\T104_V100a_GASTOP\sources/gui.c:3604
    }

    Flash_Address = EEPROM_BASE_ADDRESS + sizeof ( Service_Variables.Service_Tab );
    NoOfWords = (sizeof ( Controlling_Variables_Set.Variables_Tab ) >> 2);

    for ( i = 0; i < NoOfWords; i++ )
  4a:	d1f3      	bne.n	34 <Write_Settings+0x34>
C:\tien\PROJEKTY\procesory\STM\T104_V100a_GASTOP\sources/gui.c:3610
    {
        FLASH_ProgramWord(Flash_Address, Controlling_Variables_Set.Variables_Tab[i] );
        Flash_Address += 4;
    }

    Controlling_Variables = Controlling_Variables_Set;
  4c:	4d0f      	ldr	r5, [pc, #60]	(8c <Write_Settings+0x8c>)
  4e:	4634      	mov	r4, r6
  50:	462e      	mov	r6, r5
  52:	cc0f      	ldmia	r4!, {r0, r1, r2, r3}
  54:	c60f      	stmia	r6!, {r0, r1, r2, r3}
  56:	e894 000f 	ldmia.w	r4, {r0, r1, r2, r3}
C:\tien\PROJEKTY\procesory\STM\T104_V100a_GASTOP\sources/gui.c:3611
    Service_Variables = Service_Variables_Set;
  5a:	4c0d      	ldr	r4, [pc, #52]	(90 <Write_Settings+0x90>)
C:\tien\PROJEKTY\procesory\STM\T104_V100a_GASTOP\sources/gui.c:3610
    {
        FLASH_ProgramWord(Flash_Address, Controlling_Variables_Set.Variables_Tab[i] );
        Flash_Address += 4;
    }

    Controlling_Variables = Controlling_Variables_Set;
  5c:	e886 000f 	stmia.w	r6, {r0, r1, r2, r3}
C:\tien\PROJEKTY\procesory\STM\T104_V100a_GASTOP\sources/gui.c:3611
    Service_Variables = Service_Variables_Set;
  60:	2280      	movs	r2, #128
  62:	4620      	mov	r0, r4
  64:	4906      	ldr	r1, [pc, #24]	(80 <Write_Settings+0x80>)
  66:	f7ff fffe 	bl	0 <memcpy>
C:\tien\PROJEKTY\procesory\STM\T104_V100a_GASTOP\sources/gui.c:3613

    Language_Num = Service_Variables.Serv_Vars.Jezyk;
  6a:	7e22      	ldrb	r2, [r4, #24]
  6c:	4b09      	ldr	r3, [pc, #36]	(94 <Write_Settings+0x94>)
  6e:	701a      	strb	r2, [r3, #0]
C:\tien\PROJEKTY\procesory\STM\T104_V100a_GASTOP\sources/gui.c:3615

    Stop_Angles_Set();
  70:	f7ff fffe 	bl	0 <Stop_Angles_Set>
C:\tien\PROJEKTY\procesory\STM\T104_V100a_GASTOP\sources/gui.c:3616
}
  74:	bd70      	pop	{r4, r5, r6, pc}
  76:	46c0      	nop			(mov r8, r8)
  78:	0801fc00 	.word	0x0801fc00
	...
  84:	0801fc80 	.word	0x0801fc80
	...
Disassembly of section .text.Keyboard_Ust_Serwis:

00000000 <Keyboard_Ust_Serwis>:
Keyboard_Ust_Serwis():
C:\tien\PROJEKTY\procesory\STM\T104_V100a_GASTOP\sources/gui.c:3385
* Input          : None
* Output         : None
* Return         : None
*******************************************************************************/
static void Keyboard_Ust_Serwis ( void )
{
   0:	b570      	push	{r4, r5, r6, lr}
C:\tien\PROJEKTY\procesory\STM\T104_V100a_GASTOP\sources/gui.c:3386
    if ( Keyboard.Keyboard_Memory != 0 && Keyboard.Keyboard_Flag == 1 )
   2:	4a29      	ldr	r2, [pc, #164]	(a8 <Keyboard_Ust_Serwis+0xa8>)
   4:	7813      	ldrb	r3, [r2, #0]
   6:	2b00      	cmp	r3, #0
   8:	d049      	beq.n	9e <Keyboard_Ust_Serwis+0x9e>
   a:	7895      	ldrb	r5, [r2, #2]
   c:	2d01      	cmp	r5, #1
   e:	d146      	bne.n	9e <Keyboard_Ust_Serwis+0x9e>
C:\tien\PROJEKTY\procesory\STM\T104_V100a_GASTOP\sources/gui.c:3388
    {
        switch ( Keyboard.Keyboard_Memory )
  10:	2b02      	cmp	r3, #2
  12:	d008      	beq.n	26 <Keyboard_Ust_Serwis+0x26>
  14:	d802      	bhi.n	1c <Keyboard_Ust_Serwis+0x1c>
  16:	2b01      	cmp	r3, #1
  18:	d13c      	bne.n	94 <Keyboard_Ust_Serwis+0x94>
  1a:	e017      	b.n	4c <Keyboard_Ust_Serwis+0x4c>
  1c:	2b08      	cmp	r3, #8
  1e:	d02d      	beq.n	7c <Keyboard_Ust_Serwis+0x7c>
  20:	2b20      	cmp	r3, #32
  22:	d137      	bne.n	94 <Keyboard_Ust_Serwis+0x94>
  24:	e01c      	b.n	60 <Keyboard_Ust_Serwis+0x60>
C:\tien\PROJEKTY\procesory\STM\T104_V100a_GASTOP\sources/gui.c:3391
        {
            case KEY_ESCAPE:
                    Variable_Editing_Ptr = NULL;
  26:	4b21      	ldr	r3, [pc, #132]	(ac <Keyboard_Ust_Serwis+0xac>)
  28:	2400      	movs	r4, #0
  2a:	601c      	str	r4, [r3, #0]
C:\tien\PROJEKTY\procesory\STM\T104_V100a_GASTOP\sources/gui.c:3392
                    Write_Settings();
  2c:	f7ff fffe 	bl	0 <Keyboard_Ust_Serwis>
C:\tien\PROJEKTY\procesory\STM\T104_V100a_GASTOP\sources/gui.c:3393
                    Menu_Keys = Menu_Backup_Keys_Set;
  30:	2203      	movs	r2, #3
  32:	481f      	ldr	r0, [pc, #124]	(b0 <Keyboard_Ust_Serwis+0xb0>)
  34:	491f      	ldr	r1, [pc, #124]	(b4 <Keyboard_Ust_Serwis+0xb4>)
  36:	f7ff fffe 	bl	0 <memcpy>
C:\tien\PROJEKTY\procesory\STM\T104_V100a_GASTOP\sources/gui.c:3394
                    Screen_Number = Screen_Before_Password;
  3a:	4b1f      	ldr	r3, [pc, #124]	(b8 <Keyboard_Ust_Serwis+0xb8>)
  3c:	781a      	ldrb	r2, [r3, #0]
  3e:	4b1f      	ldr	r3, [pc, #124]	(bc <Keyboard_Ust_Serwis+0xbc>)
  40:	701a      	strb	r2, [r3, #0]
C:\tien\PROJEKTY\procesory\STM\T104_V100a_GASTOP\sources/gui.c:3395
                    Reload_Screen = TRUE;
  42:	4b1f      	ldr	r3, [pc, #124]	(c0 <Keyboard_Ust_Serwis+0xc0>)
  44:	701d      	strb	r5, [r3, #0]
C:\tien\PROJEKTY\procesory\STM\T104_V100a_GASTOP\sources/gui.c:3396
                    Machine_State = STANDBY;
  46:	4b1f      	ldr	r3, [pc, #124]	(c4 <Keyboard_Ust_Serwis+0xc4>)
  48:	701c      	strb	r4, [r3, #0]
  4a:	e025      	b.n	98 <Keyboard_Ust_Serwis+0x98>
C:\tien\PROJEKTY\procesory\STM\T104_V100a_GASTOP\sources/gui.c:3400
            break;

            case KEY_ENTER:
                   if ( ++Screen_Number == ODCZYT_SERWISOWY )
  4c:	4a1b      	ldr	r2, [pc, #108]	(bc <Keyboard_Ust_Serwis+0xbc>)
  4e:	7813      	ldrb	r3, [r2, #0]
  50:	3301      	adds	r3, #1
  52:	b2db      	uxtb	r3, r3
  54:	2b27      	cmp	r3, #39
  56:	7013      	strb	r3, [r2, #0]
  58:	d116      	bne.n	88 <Keyboard_Ust_Serwis+0x88>
C:\tien\PROJEKTY\procesory\STM\T104_V100a_GASTOP\sources/gui.c:3402
                   {
                       Screen_Number = UST_SERWISOWE1;
  5a:	2323      	movs	r3, #35
  5c:	7013      	strb	r3, [r2, #0]
  5e:	e013      	b.n	88 <Keyboard_Ust_Serwis+0x88>
C:\tien\PROJEKTY\procesory\STM\T104_V100a_GASTOP\sources/gui.c:3409
                   First_Editable_Variable();
                   Reload_Screen = TRUE;
            break;

            case KEY_DOWN:
              if ( ++Count_Add == Variable_Editing_Ptr->Var_Param_Ptr->Variable_Digits_Count )
  60:	4919      	ldr	r1, [pc, #100]	(c8 <Keyboard_Ust_Serwis+0xc8>)
  62:	4b12      	ldr	r3, [pc, #72]	(ac <Keyboard_Ust_Serwis+0xac>)
  64:	780a      	ldrb	r2, [r1, #0]
  66:	681b      	ldr	r3, [r3, #0]
  68:	3201      	adds	r2, #1
  6a:	b2d2      	uxtb	r2, r2
  6c:	700a      	strb	r2, [r1, #0]
  6e:	68db      	ldr	r3, [r3, #12]
  70:	789b      	ldrb	r3, [r3, #2]
  72:	4293      	cmp	r3, r2
  74:	d10a      	bne.n	8c <Keyboard_Ust_Serwis+0x8c>
C:\tien\PROJEKTY\procesory\STM\T104_V100a_GASTOP\sources/gui.c:3411
              {
                  Count_Add = 0;
  76:	2300      	movs	r3, #0
  78:	700b      	strb	r3, [r1, #0]
  7a:	e007      	b.n	8c <Keyboard_Ust_Serwis+0x8c>
C:\tien\PROJEKTY\procesory\STM\T104_V100a_GASTOP\sources/gui.c:3417
              }
              Reload_Screen = TRUE;  
            break;
          
            case KEY_UP:
              Count_Add = 0;
  7c:	4b12      	ldr	r3, [pc, #72]	(c8 <Keyboard_Ust_Serwis+0xc8>)
  7e:	2200      	movs	r2, #0
  80:	701a      	strb	r2, [r3, #0]
C:\tien\PROJEKTY\procesory\STM\T104_V100a_GASTOP\sources/gui.c:3418
              if ( Next_Editable_Variable() == FALSE )
  82:	f7ff fffe 	bl	0 <Keyboard_Ust_Serwis>
  86:	b908      	cbnz	r0, 6 <Keyboard_Ust_Serwis+0x6>
C:\tien\PROJEKTY\procesory\STM\T104_V100a_GASTOP\sources/gui.c:3420
              {
                  First_Editable_Variable();
  88:	f7ff fffe 	bl	0 <Keyboard_Ust_Serwis>
C:\tien\PROJEKTY\procesory\STM\T104_V100a_GASTOP\sources/gui.c:3422
              }
              Reload_Screen = TRUE;
  8c:	4b0c      	ldr	r3, [pc, #48]	(c0 <Keyboard_Ust_Serwis+0xc0>)
  8e:	2201      	movs	r2, #1
  90:	701a      	strb	r2, [r3, #0]
  92:	e001      	b.n	98 <Keyboard_Ust_Serwis+0x98>
C:\tien\PROJEKTY\procesory\STM\T104_V100a_GASTOP\sources/gui.c:3426
            break;

            default:
                Keyboard_Edit_Variable();
  94:	f7ff fffe 	bl	0 <Keyboard_Ust_Serwis>
C:\tien\PROJEKTY\procesory\STM\T104_V100a_GASTOP\sources/gui.c:3429
            break;
        }
        Keyboard.Keyboard_Flag = 0;
  98:	4b03      	ldr	r3, [pc, #12]	(a8 <Keyboard_Ust_Serwis+0xa8>)
  9a:	2200      	movs	r2, #0
  9c:	709a      	strb	r2, [r3, #2]
C:\tien\PROJEKTY\procesory\STM\T104_V100a_GASTOP\sources/gui.c:3432
    }

    if ( Keyboard.Keyboard_State == 0 )
  9e:	4a02      	ldr	r2, [pc, #8]	(a8 <Keyboard_Ust_Serwis+0xa8>)
  a0:	7853      	ldrb	r3, [r2, #1]
  a2:	b903      	cbnz	r3, a6 <Keyboard_Ust_Serwis+0xa6>
C:\tien\PROJEKTY\procesory\STM\T104_V100a_GASTOP\sources/gui.c:3434
    {
        Keyboard.Keyboard_Memory = 0;
  a4:	7013      	strb	r3, [r2, #0]
C:\tien\PROJEKTY\procesory\STM\T104_V100a_GASTOP\sources/gui.c:3436
    }
}
  a6:	bd70      	pop	{r4, r5, r6, pc}
	...
  b0:	0011      	.short	0x0011
	...
Disassembly of section .text.Keyboard_Zerowanie:

00000000 <Keyboard_Zerowanie>:
Keyboard_Zerowanie():
C:\tien\PROJEKTY\procesory\STM\T104_V100a_GASTOP\sources/gui.c:3341
* Input          : None
* Output         : None
* Return         : None
*******************************************************************************/
static void Keyboard_Zerowanie ( void )
{
   0:	b570      	push	{r4, r5, r6, lr}
C:\tien\PROJEKTY\procesory\STM\T104_V100a_GASTOP\sources/gui.c:3342
    if ( Keyboard.Keyboard_Memory != 0 && Keyboard.Keyboard_Flag == 1 )
   2:	4b16      	ldr	r3, [pc, #88]	(5c <Keyboard_Zerowanie+0x5c>)
   4:	781c      	ldrb	r4, [r3, #0]
   6:	b31c      	cbz	r4, 50 <Keyboard_Zerowanie+0x50>
   8:	789d      	ldrb	r5, [r3, #2]
   a:	2d01      	cmp	r5, #1
   c:	d120      	bne.n	50 <Keyboard_Zerowanie+0x50>
C:\tien\PROJEKTY\procesory\STM\T104_V100a_GASTOP\sources/gui.c:3344
    {
        switch ( Keyboard.Keyboard_Memory )
   e:	2c01      	cmp	r4, #1
  10:	d011      	beq.n	36 <Keyboard_Zerowanie+0x36>
  12:	2c02      	cmp	r4, #2
  14:	d119      	bne.n	4a <Keyboard_Zerowanie+0x4a>
C:\tien\PROJEKTY\procesory\STM\T104_V100a_GASTOP\sources/gui.c:3347
        {
            case KEY_ESCAPE:
                    Write_Settings();
  16:	f7ff fffe 	bl	0 <Keyboard_Zerowanie>
C:\tien\PROJEKTY\procesory\STM\T104_V100a_GASTOP\sources/gui.c:3348
                    Variable_Editing_Ptr = NULL;
  1a:	4b11      	ldr	r3, [pc, #68]	(60 <Keyboard_Zerowanie+0x60>)
  1c:	2200      	movs	r2, #0
  1e:	601a      	str	r2, [r3, #0]
C:\tien\PROJEKTY\procesory\STM\T104_V100a_GASTOP\sources/gui.c:3349
                    Menu_Keys = Menu_Backup_Keys_Set;
  20:	4810      	ldr	r0, [pc, #64]	(64 <Keyboard_Zerowanie+0x64>)
  22:	3203      	adds	r2, #3
  24:	4910      	ldr	r1, [pc, #64]	(68 <Keyboard_Zerowanie+0x68>)
  26:	f7ff fffe 	bl	0 <memcpy>
C:\tien\PROJEKTY\procesory\STM\T104_V100a_GASTOP\sources/gui.c:3350
                    Screen_Number = UST_STER;
  2a:	4b10      	ldr	r3, [pc, #64]	(6c <Keyboard_Zerowanie+0x6c>)
  2c:	2204      	movs	r2, #4
  2e:	701a      	strb	r2, [r3, #0]
C:\tien\PROJEKTY\procesory\STM\T104_V100a_GASTOP\sources/gui.c:3351
                    Reload_Screen = TRUE;
  30:	4b0f      	ldr	r3, [pc, #60]	(70 <Keyboard_Zerowanie+0x70>)
  32:	701d      	strb	r5, [r3, #0]
  34:	e009      	b.n	4a <Keyboard_Zerowanie+0x4a>
C:\tien\PROJEKTY\procesory\STM\T104_V100a_GASTOP\sources/gui.c:3355
            break;
            
            case KEY_ENTER:
                   Counters_Variables.Counters_Vars.No_Goin = 0;
  36:	4a0f      	ldr	r2, [pc, #60]	(74 <Keyboard_Zerowanie+0x74>)
  38:	2300      	movs	r3, #0
  3a:	6013      	str	r3, [r2, #0]
C:\tien\PROJEKTY\procesory\STM\T104_V100a_GASTOP\sources/gui.c:3356
                   Counters_Variables.Counters_Vars.No_Goout = 0;
  3c:	6053      	str	r3, [r2, #4]
C:\tien\PROJEKTY\procesory\STM\T104_V100a_GASTOP\sources/gui.c:3357
                   Update_Counters();
  3e:	f7ff fffe 	bl	0 <Keyboard_Zerowanie>
C:\tien\PROJEKTY\procesory\STM\T104_V100a_GASTOP\sources/gui.c:3358
                   Screen_Number = CONTROLLER_ON;
  42:	4b0a      	ldr	r3, [pc, #40]	(6c <Keyboard_Zerowanie+0x6c>)
  44:	701c      	strb	r4, [r3, #0]
C:\tien\PROJEKTY\procesory\STM\T104_V100a_GASTOP\sources/gui.c:3359
                   Reload_Screen = TRUE;
  46:	4b0a      	ldr	r3, [pc, #40]	(70 <Keyboard_Zerowanie+0x70>)
  48:	701c      	strb	r4, [r3, #0]
C:\tien\PROJEKTY\procesory\STM\T104_V100a_GASTOP\sources/gui.c:3365
            break;

            default:
            break;
        }
        Keyboard.Keyboard_Flag = 0;
  4a:	4b04      	ldr	r3, [pc, #16]	(5c <Keyboard_Zerowanie+0x5c>)
  4c:	2200      	movs	r2, #0
  4e:	709a      	strb	r2, [r3, #2]
C:\tien\PROJEKTY\procesory\STM\T104_V100a_GASTOP\sources/gui.c:3368
    }

    if ( Keyboard.Keyboard_State == 0 )
  50:	4a02      	ldr	r2, [pc, #8]	(5c <Keyboard_Zerowanie+0x5c>)
  52:	7853      	ldrb	r3, [r2, #1]
  54:	b903      	cbnz	r3, 58 <Keyboard_Zerowanie+0x58>
C:\tien\PROJEKTY\procesory\STM\T104_V100a_GASTOP\sources/gui.c:3370
    {
        Keyboard.Keyboard_Memory = 0;
  56:	7013      	strb	r3, [r2, #0]
C:\tien\PROJEKTY\procesory\STM\T104_V100a_GASTOP\sources/gui.c:3372
    }
}
  58:	bd70      	pop	{r4, r5, r6, pc}
  5a:	46c0      	nop			(mov r8, r8)
	...
  64:	00000011 	.word	0x00000011
	...
Disassembly of section .text.Keyboard_Fabryczne:

00000000 <Keyboard_Fabryczne>:
Keyboard_Fabryczne():
C:\tien\PROJEKTY\procesory\STM\T104_V100a_GASTOP\sources/gui.c:3272
* Input          : None
* Output         : None
* Return         : None
*******************************************************************************/
static void Keyboard_Fabryczne ( void )
{
   0:	e92d 41f0 	stmdb	sp!, {r4, r5, r6, r7, r8, lr}
C:\tien\PROJEKTY\procesory\STM\T104_V100a_GASTOP\sources/gui.c:3276
    uint32_t i;
    uint32_t NoOfWords;

    if ( Keyboard.Keyboard_Memory != 0 && Keyboard.Keyboard_Flag == 1 )
   4:	4b2a      	ldr	r3, [pc, #168]	(b0 <Keyboard_Fabryczne+0xb0>)
   6:	781c      	ldrb	r4, [r3, #0]
   8:	2c00      	cmp	r4, #0
   a:	d04b      	beq.n	a4 <Keyboard_Fabryczne+0xa4>
   c:	789d      	ldrb	r5, [r3, #2]
   e:	2d01      	cmp	r5, #1
  10:	d148      	bne.n	a4 <Keyboard_Fabryczne+0xa4>
C:\tien\PROJEKTY\procesory\STM\T104_V100a_GASTOP\sources/gui.c:3278
    {
        switch ( Keyboard.Keyboard_Memory )
  12:	2c01      	cmp	r4, #1
  14:	d00e      	beq.n	34 <Keyboard_Fabryczne+0x34>
  16:	2c02      	cmp	r4, #2
  18:	d13f      	bne.n	9a <Keyboard_Fabryczne+0x9a>
C:\tien\PROJEKTY\procesory\STM\T104_V100a_GASTOP\sources/gui.c:3281
        {
            case KEY_ESCAPE:
                    Variable_Editing_Ptr = NULL;
  1a:	4b26      	ldr	r3, [pc, #152]	(b4 <Keyboard_Fabryczne+0xb4>)
  1c:	2200      	movs	r2, #0
  1e:	601a      	str	r2, [r3, #0]
C:\tien\PROJEKTY\procesory\STM\T104_V100a_GASTOP\sources/gui.c:3282
                    Menu_Keys = Menu_Backup_Keys;
  20:	4825      	ldr	r0, [pc, #148]	(b8 <Keyboard_Fabryczne+0xb8>)
  22:	4926      	ldr	r1, [pc, #152]	(bc <Keyboard_Fabryczne+0xbc>)
  24:	3203      	adds	r2, #3
  26:	f7ff fffe 	bl	0 <memcpy>
C:\tien\PROJEKTY\procesory\STM\T104_V100a_GASTOP\sources/gui.c:3283
                    Screen_Number = MENU;
  2a:	4b25      	ldr	r3, [pc, #148]	(c0 <Keyboard_Fabryczne+0xc0>)
  2c:	701c      	strb	r4, [r3, #0]
C:\tien\PROJEKTY\procesory\STM\T104_V100a_GASTOP\sources/gui.c:3284
                    Reload_Screen = TRUE;
  2e:	4b25      	ldr	r3, [pc, #148]	(c4 <Keyboard_Fabryczne+0xc4>)
  30:	701d      	strb	r5, [r3, #0]
  32:	e034      	b.n	9e <Keyboard_Fabryczne+0x9e>
C:\tien\PROJEKTY\procesory\STM\T104_V100a_GASTOP\sources/gui.c:3285
            break;
  34:	2100      	movs	r1, #0
C:\tien\PROJEKTY\procesory\STM\T104_V100a_GASTOP\sources/gui.c:3292
            case KEY_ENTER:
                    NoOfWords = (sizeof ( Service_Variables.Service_Tab )>>2);

                    for ( i = 0; i < NoOfWords; i++ )
                    {
                        Service_Variables.Service_Tab[i] = Settings_Default[i];
  36:	4b24      	ldr	r3, [pc, #144]	(c8 <Keyboard_Fabryczne+0xc8>)
  38:	585a      	ldr	r2, [r3, r1]
  3a:	4b24      	ldr	r3, [pc, #144]	(cc <Keyboard_Fabryczne+0xcc>)
  3c:	505a      	str	r2, [r3, r1]
  3e:	3104      	adds	r1, #4
C:\tien\PROJEKTY\procesory\STM\T104_V100a_GASTOP\sources/gui.c:3290
            break;

            case KEY_ENTER:
                    NoOfWords = (sizeof ( Service_Variables.Service_Tab )>>2);

                    for ( i = 0; i < NoOfWords; i++ )
  40:	2980      	cmp	r1, #128
  42:	d1f8      	bne.n	36 <Keyboard_Fabryczne+0x36>
  44:	2200      	movs	r2, #0
C:\tien\PROJEKTY\procesory\STM\T104_V100a_GASTOP\sources/gui.c:3299
    
                    NoOfWords = (sizeof ( Controlling_Variables.Variables_Tab )>>2);
   
                    for ( i = 0; i < NoOfWords; i++ )
                    {
                        Controlling_Variables.Variables_Tab[i] = Controlling_Default[i];
  46:	4b22      	ldr	r3, [pc, #136]	(d0 <Keyboard_Fabryczne+0xd0>)
  48:	4c22      	ldr	r4, [pc, #136]	(d4 <Keyboard_Fabryczne+0xd4>)
  4a:	589b      	ldr	r3, [r3, r2]
  4c:	50a3      	str	r3, [r4, r2]
  4e:	3204      	adds	r2, #4
C:\tien\PROJEKTY\procesory\STM\T104_V100a_GASTOP\sources/gui.c:3297
                        Service_Variables.Service_Tab[i] = Settings_Default[i];
                    }
    
                    NoOfWords = (sizeof ( Controlling_Variables.Variables_Tab )>>2);
   
                    for ( i = 0; i < NoOfWords; i++ )
  50:	2a20      	cmp	r2, #32
  52:	d1f8      	bne.n	46 <Keyboard_Fabryczne+0x46>
C:\tien\PROJEKTY\procesory\STM\T104_V100a_GASTOP\sources/gui.c:3301
                    {
                        Controlling_Variables.Variables_Tab[i] = Controlling_Default[i];
                    } 
                    Service_Variables_Set = Service_Variables;
  54:	f8df 8074 	ldr.w	r8, [pc, #116]	; cc <Keyboard_Fabryczne+0xcc>
C:\tien\PROJEKTY\procesory\STM\T104_V100a_GASTOP\sources/gui.c:3302
                    Controlling_Variables_Set = Controlling_Variables;
  58:	4d1f      	ldr	r5, [pc, #124]	(d8 <Keyboard_Fabryczne+0xd8>)
C:\tien\PROJEKTY\procesory\STM\T104_V100a_GASTOP\sources/gui.c:3301
   
                    for ( i = 0; i < NoOfWords; i++ )
                    {
                        Controlling_Variables.Variables_Tab[i] = Controlling_Default[i];
                    } 
                    Service_Variables_Set = Service_Variables;
  5a:	3260      	adds	r2, #96
  5c:	4641      	mov	r1, r8
  5e:	481f      	ldr	r0, [pc, #124]	(dc <Keyboard_Fabryczne+0xdc>)
C:\tien\PROJEKTY\procesory\STM\T104_V100a_GASTOP\sources/gui.c:3302
                    Controlling_Variables_Set = Controlling_Variables;
  60:	462e      	mov	r6, r5
C:\tien\PROJEKTY\procesory\STM\T104_V100a_GASTOP\sources/gui.c:3301
   
                    for ( i = 0; i < NoOfWords; i++ )
                    {
                        Controlling_Variables.Variables_Tab[i] = Controlling_Default[i];
                    } 
                    Service_Variables_Set = Service_Variables;
  62:	f7ff fffe 	bl	0 <memcpy>
C:\tien\PROJEKTY\procesory\STM\T104_V100a_GASTOP\sources/gui.c:3302
                    Controlling_Variables_Set = Controlling_Variables;
  66:	cc0f      	ldmia	r4!, {r0, r1, r2, r3}
  68:	c60f      	stmia	r6!, {r0, r1, r2, r3}
  6a:	e894 000f 	ldmia.w	r4, {r0, r1, r2, r3}
  6e:	e886 000f 	stmia.w	r6, {r0, r1, r2, r3}
C:\tien\PROJEKTY\procesory\STM\T104_V100a_GASTOP\sources/gui.c:3303
                    Write_Settings();
  72:	f7ff fffe 	bl	0 <Keyboard_Fabryczne>
C:\tien\PROJEKTY\procesory\STM\T104_V100a_GASTOP\sources/gui.c:3305

                    if ( Service_Variables.Serv_Vars.Jezyk > NUM_OF_LANG )
  76:	f898 3018 	ldrb.w	r3, [r8, #24]
  7a:	4a19      	ldr	r2, [pc, #100]	(e0 <Keyboard_Fabryczne+0xe0>)
  7c:	2b01      	cmp	r3, #1
C:\tien\PROJEKTY\procesory\STM\T104_V100a_GASTOP\sources/gui.c:3307
                    {
                        Language_Num = 0;
  7e:	bf88      	it	hi
  80:	2300      	movhi	r3, #0
C:\tien\PROJEKTY\procesory\STM\T104_V100a_GASTOP\sources/gui.c:3311
                    }
                    else
                    {
                        Language_Num = Service_Variables.Serv_Vars.Jezyk;
  82:	7013      	strb	r3, [r2, #0]
C:\tien\PROJEKTY\procesory\STM\T104_V100a_GASTOP\sources/gui.c:3314
                    }  

                    Stop_Angles_Set();  
  84:	f7ff fffe 	bl	0 <Stop_Angles_Set>
C:\tien\PROJEKTY\procesory\STM\T104_V100a_GASTOP\sources/gui.c:3315
                    Screen_Number = CONTROLLER_ON;
  88:	4b0d      	ldr	r3, [pc, #52]	(c0 <Keyboard_Fabryczne+0xc0>)
  8a:	2101      	movs	r1, #1
  8c:	7019      	strb	r1, [r3, #0]
C:\tien\PROJEKTY\procesory\STM\T104_V100a_GASTOP\sources/gui.c:3316
                    Machine_State = STANDBY;
  8e:	4b15      	ldr	r3, [pc, #84]	(e4 <Keyboard_Fabryczne+0xe4>)
  90:	2200      	movs	r2, #0
  92:	701a      	strb	r2, [r3, #0]
C:\tien\PROJEKTY\procesory\STM\T104_V100a_GASTOP\sources/gui.c:3317
                    Reload_Screen = TRUE;
  94:	4b0b      	ldr	r3, [pc, #44]	(c4 <Keyboard_Fabryczne+0xc4>)
  96:	7019      	strb	r1, [r3, #0]
  98:	e001      	b.n	9e <Keyboard_Fabryczne+0x9e>
C:\tien\PROJEKTY\procesory\STM\T104_V100a_GASTOP\sources/gui.c:3321
            break;

            default:
                    Menu_Keyboard();
  9a:	f7ff fffe 	bl	0 <Keyboard_Fabryczne>
C:\tien\PROJEKTY\procesory\STM\T104_V100a_GASTOP\sources/gui.c:3324
            break;
        }
        Keyboard.Keyboard_Flag = 0;
  9e:	4b04      	ldr	r3, [pc, #16]	(b0 <Keyboard_Fabryczne+0xb0>)
  a0:	2200      	movs	r2, #0
  a2:	709a      	strb	r2, [r3, #2]
C:\tien\PROJEKTY\procesory\STM\T104_V100a_GASTOP\sources/gui.c:3327
    }

    if ( Keyboard.Keyboard_State == 0 )
  a4:	4a02      	ldr	r2, [pc, #8]	(b0 <Keyboard_Fabryczne+0xb0>)
  a6:	7853      	ldrb	r3, [r2, #1]
  a8:	b903      	cbnz	r3, ac <Keyboard_Fabryczne+0xac>
C:\tien\PROJEKTY\procesory\STM\T104_V100a_GASTOP\sources/gui.c:3329
    {
        Keyboard.Keyboard_Memory = 0;
  aa:	7013      	strb	r3, [r2, #0]
C:\tien\PROJEKTY\procesory\STM\T104_V100a_GASTOP\sources/gui.c:3331
    }
}
  ac:	e8bd 81f0 	ldmia.w	sp!, {r4, r5, r6, r7, r8, pc}
	...
  b8:	00000011 	.word	0x00000011
	...
  c8:	000001a0 	.word	0x000001a0
  cc:	00000000 	.word	0x00000000
  d0:	00000220 	.word	0x00000220
	...
Disassembly of section .text.Keyboard_Odblokuj:

00000000 <Keyboard_Odblokuj>:
Keyboard_Odblokuj():
C:\tien\PROJEKTY\procesory\STM\T104_V100a_GASTOP\sources/gui.c:3189
* Input          : None
* Output         : None
* Return         : None
*******************************************************************************/
static void Keyboard_Odblokuj ( void )
{
   0:	b510      	push	{r4, lr}
C:\tien\PROJEKTY\procesory\STM\T104_V100a_GASTOP\sources/gui.c:3190
    if ( Keyboard.Keyboard_Memory != 0 && Keyboard.Keyboard_Flag == 1 )
   2:	4b3c      	ldr	r3, [pc, #240]	(f4 <Keyboard_Odblokuj+0xf4>)
   4:	781a      	ldrb	r2, [r3, #0]
   6:	2a00      	cmp	r2, #0
   8:	d06f      	beq.n	ea <Keyboard_Odblokuj+0xea>
   a:	789b      	ldrb	r3, [r3, #2]
   c:	2b01      	cmp	r3, #1
   e:	d16c      	bne.n	ea <Keyboard_Odblokuj+0xea>
C:\tien\PROJEKTY\procesory\STM\T104_V100a_GASTOP\sources/gui.c:3192
    {
        switch ( Keyboard.Keyboard_Memory )
  10:	2a02      	cmp	r2, #2
  12:	d008      	beq.n	26 <Keyboard_Odblokuj+0x26>
  14:	d802      	bhi.n	1c <Keyboard_Odblokuj+0x1c>
  16:	2a01      	cmp	r2, #1
  18:	d162      	bne.n	e0 <Keyboard_Odblokuj+0xe0>
  1a:	e016      	b.n	4a <Keyboard_Odblokuj+0x4a>
  1c:	2a08      	cmp	r2, #8
  1e:	d055      	beq.n	cc <Keyboard_Odblokuj+0xcc>
  20:	2a20      	cmp	r2, #32
  22:	d15d      	bne.n	e0 <Keyboard_Odblokuj+0xe0>
  24:	e044      	b.n	b0 <Keyboard_Odblokuj+0xb0>
C:\tien\PROJEKTY\procesory\STM\T104_V100a_GASTOP\sources/gui.c:3195
        {
            case KEY_ESCAPE:
                    if ( Service_Variables.Serv_Vars.Marker_Blokady == STER_BLOKOWANY || Service_Variables.Serv_Vars.Marker_Blokady == STER_ODBLOKOWANY )
  26:	4b34      	ldr	r3, [pc, #208]	(f8 <Keyboard_Odblokuj+0xf8>)
  28:	f893 3021 	ldrb.w	r3, [r3, #33]
  2c:	2b03      	cmp	r3, #3
  2e:	d000      	beq.n	32 <Keyboard_Odblokuj+0x32>
  30:	b90b      	cbnz	r3, 36 <Keyboard_Odblokuj+0x36>
C:\tien\PROJEKTY\procesory\STM\T104_V100a_GASTOP\sources/gui.c:3197
                    {
                        Screen_Number = LICENCJA;
  32:	2207      	movs	r2, #7
  34:	e002      	b.n	3c <Keyboard_Odblokuj+0x3c>
C:\tien\PROJEKTY\procesory\STM\T104_V100a_GASTOP\sources/gui.c:3199
                    }
                    else if ( Service_Variables.Serv_Vars.Marker_Blokady == STER_ZABLOKOWANY )
  36:	2b01      	cmp	r3, #1
  38:	d102      	bne.n	40 <Keyboard_Odblokuj+0x40>
C:\tien\PROJEKTY\procesory\STM\T104_V100a_GASTOP\sources/gui.c:3201
                    {
                        Screen_Number = STER_BLOK;
  3a:	221f      	movs	r2, #31
  3c:	4b2f      	ldr	r3, [pc, #188]	(fc <Keyboard_Odblokuj+0xfc>)
  3e:	701a      	strb	r2, [r3, #0]
C:\tien\PROJEKTY\procesory\STM\T104_V100a_GASTOP\sources/gui.c:3203
                    }
                    Variable_Editing_Ptr = NULL;
  40:	4b2f      	ldr	r3, [pc, #188]	(100 <Keyboard_Odblokuj+0x100>)
  42:	2200      	movs	r2, #0
  44:	601a      	str	r2, [r3, #0]
C:\tien\PROJEKTY\procesory\STM\T104_V100a_GASTOP\sources/gui.c:3204
                    Reload_Screen = TRUE;
  46:	3201      	adds	r2, #1
  48:	e02f      	b.n	aa <Keyboard_Odblokuj+0xaa>
C:\tien\PROJEKTY\procesory\STM\T104_V100a_GASTOP\sources/gui.c:3208
            break;

            case KEY_ENTER:
                   if ( Service_Variables.Serv_Vars.Haslo_Blokady == Password_Set || Password_Set == SERVICE_PASSWORD )
  4a:	492e      	ldr	r1, [pc, #184]	(104 <Keyboard_Odblokuj+0x104>)
  4c:	4b2a      	ldr	r3, [pc, #168]	(f8 <Keyboard_Odblokuj+0xf8>)
  4e:	6a0a      	ldr	r2, [r1, #32]
  50:	685b      	ldr	r3, [r3, #4]
  52:	4293      	cmp	r3, r2
  54:	d002      	beq.n	5c <Keyboard_Odblokuj+0x5c>
  56:	4b2c      	ldr	r3, [pc, #176]	(108 <Keyboard_Odblokuj+0x108>)
  58:	429a      	cmp	r2, r3
  5a:	d111      	bne.n	80 <Keyboard_Odblokuj+0x80>
C:\tien\PROJEKTY\procesory\STM\T104_V100a_GASTOP\sources/gui.c:3210
                   {
                        Password_Set = 0;
  5c:	4b29      	ldr	r3, [pc, #164]	(104 <Keyboard_Odblokuj+0x104>)
  5e:	2100      	movs	r1, #0
  60:	6219      	str	r1, [r3, #32]
C:\tien\PROJEKTY\procesory\STM\T104_V100a_GASTOP\sources/gui.c:3211
                        Machine_State = STANDBY;
  62:	4b2a      	ldr	r3, [pc, #168]	(10c <Keyboard_Odblokuj+0x10c>)
  64:	7019      	strb	r1, [r3, #0]
C:\tien\PROJEKTY\procesory\STM\T104_V100a_GASTOP\sources/gui.c:3212
                        Service_Variables_Set.Serv_Vars.Blok_Prog_Pozostalo = Service_Variables_Set.Serv_Vars.Ilosc_Prob_Blokady;                  
  66:	4b2a      	ldr	r3, [pc, #168]	(110 <Keyboard_Odblokuj+0x110>)
  68:	7a9a      	ldrb	r2, [r3, #10]
C:\tien\PROJEKTY\procesory\STM\T104_V100a_GASTOP\sources/gui.c:3213
                        Service_Variables_Set.Serv_Vars.Marker_Blokady = STER_ODBLOKOWANY;
  6a:	f883 1021 	strb.w	r1, [r3, #33]
C:\tien\PROJEKTY\procesory\STM\T104_V100a_GASTOP\sources/gui.c:3212
            case KEY_ENTER:
                   if ( Service_Variables.Serv_Vars.Haslo_Blokady == Password_Set || Password_Set == SERVICE_PASSWORD )
                   {
                        Password_Set = 0;
                        Machine_State = STANDBY;
                        Service_Variables_Set.Serv_Vars.Blok_Prog_Pozostalo = Service_Variables_Set.Serv_Vars.Ilosc_Prob_Blokady;                  
  6e:	f883 2023 	strb.w	r2, [r3, #35]
C:\tien\PROJEKTY\procesory\STM\T104_V100a_GASTOP\sources/gui.c:3214
                        Service_Variables_Set.Serv_Vars.Marker_Blokady = STER_ODBLOKOWANY;
                        Service_Variables_Set.Serv_Vars.Blokada = 1;
  72:	2201      	movs	r2, #1
  74:	721a      	strb	r2, [r3, #8]
C:\tien\PROJEKTY\procesory\STM\T104_V100a_GASTOP\sources/gui.c:3215
                        Variable_Editing_Ptr = NULL;                   
  76:	4b22      	ldr	r3, [pc, #136]	(100 <Keyboard_Odblokuj+0x100>)
  78:	6019      	str	r1, [r3, #0]
C:\tien\PROJEKTY\procesory\STM\T104_V100a_GASTOP\sources/gui.c:3216
                        Screen_Number = Screen_After_Password;
  7a:	4b26      	ldr	r3, [pc, #152]	(114 <Keyboard_Odblokuj+0x114>)
  7c:	781a      	ldrb	r2, [r3, #0]
  7e:	e00f      	b.n	a0 <Keyboard_Odblokuj+0xa0>
C:\tien\PROJEKTY\procesory\STM\T104_V100a_GASTOP\sources/gui.c:3221
                   }
                   else
                   {
                        Password_Set = 0;
                        Count_Add = 0; 
  80:	4b25      	ldr	r3, [pc, #148]	(118 <Keyboard_Odblokuj+0x118>)
C:\tien\PROJEKTY\procesory\STM\T104_V100a_GASTOP\sources/gui.c:3220
                        Variable_Editing_Ptr = NULL;                   
                        Screen_Number = Screen_After_Password;
                   }
                   else
                   {
                        Password_Set = 0;
  82:	2200      	movs	r2, #0
C:\tien\PROJEKTY\procesory\STM\T104_V100a_GASTOP\sources/gui.c:3221
                        Count_Add = 0; 
  84:	701a      	strb	r2, [r3, #0]
C:\tien\PROJEKTY\procesory\STM\T104_V100a_GASTOP\sources/gui.c:3220
                        Variable_Editing_Ptr = NULL;                   
                        Screen_Number = Screen_After_Password;
                   }
                   else
                   {
                        Password_Set = 0;
  86:	620a      	str	r2, [r1, #32]
C:\tien\PROJEKTY\procesory\STM\T104_V100a_GASTOP\sources/gui.c:3223
                        Count_Add = 0; 
               
                        if ( --Service_Variables_Set.Serv_Vars.Blok_Prog_Pozostalo == 0 )
  88:	4a21      	ldr	r2, [pc, #132]	(110 <Keyboard_Odblokuj+0x110>)
  8a:	f892 3023 	ldrb.w	r3, [r2, #35]
  8e:	3b01      	subs	r3, #1
  90:	b2db      	uxtb	r3, r3
  92:	f882 3023 	strb.w	r3, [r2, #35]
  96:	b92b      	cbnz	r3, a4 <Keyboard_Odblokuj+0xa4>
C:\tien\PROJEKTY\procesory\STM\T104_V100a_GASTOP\sources/gui.c:3225
                        {
                            Service_Variables_Set.Serv_Vars.Marker_Blokady = STER_BLOKADA_CALKOWITA;
  98:	3302      	adds	r3, #2
  9a:	f882 3021 	strb.w	r3, [r2, #33]
C:\tien\PROJEKTY\procesory\STM\T104_V100a_GASTOP\sources/gui.c:3226
                            Screen_Number = BLOK_CALK;
  9e:	221e      	movs	r2, #30
  a0:	4b16      	ldr	r3, [pc, #88]	(fc <Keyboard_Odblokuj+0xfc>)
  a2:	701a      	strb	r2, [r3, #0]
C:\tien\PROJEKTY\procesory\STM\T104_V100a_GASTOP\sources/gui.c:3230
                        }
                   }
               
                   Write_Settings();  
  a4:	f7ff fffe 	bl	0 <Keyboard_Odblokuj>
C:\tien\PROJEKTY\procesory\STM\T104_V100a_GASTOP\sources/gui.c:3231
                   Reload_Screen = TRUE;
  a8:	2201      	movs	r2, #1
  aa:	4b1c      	ldr	r3, [pc, #112]	(11c <Keyboard_Odblokuj+0x11c>)
  ac:	701a      	strb	r2, [r3, #0]
  ae:	e019      	b.n	e4 <Keyboard_Odblokuj+0xe4>
C:\tien\PROJEKTY\procesory\STM\T104_V100a_GASTOP\sources/gui.c:3235
            break;

            case KEY_DOWN:
              if ( ++Count_Add == Variable_Editing_Ptr->Var_Param_Ptr->Variable_Digits_Count )
  b0:	4919      	ldr	r1, [pc, #100]	(118 <Keyboard_Odblokuj+0x118>)
  b2:	4b13      	ldr	r3, [pc, #76]	(100 <Keyboard_Odblokuj+0x100>)
  b4:	780a      	ldrb	r2, [r1, #0]
  b6:	681b      	ldr	r3, [r3, #0]
  b8:	3201      	adds	r2, #1
  ba:	b2d2      	uxtb	r2, r2
  bc:	700a      	strb	r2, [r1, #0]
  be:	68db      	ldr	r3, [r3, #12]
  c0:	789b      	ldrb	r3, [r3, #2]
  c2:	4293      	cmp	r3, r2
  c4:	d1f0      	bne.n	a8 <Keyboard_Odblokuj+0xa8>
C:\tien\PROJEKTY\procesory\STM\T104_V100a_GASTOP\sources/gui.c:3237
              {
                  Count_Add = 0;
  c6:	2300      	movs	r3, #0
  c8:	700b      	strb	r3, [r1, #0]
  ca:	e7ed      	b.n	a8 <Keyboard_Odblokuj+0xa8>
C:\tien\PROJEKTY\procesory\STM\T104_V100a_GASTOP\sources/gui.c:3243
              }
              Reload_Screen = TRUE;  
            break;
          
            case KEY_UP:
              Count_Add = 0;
  cc:	4b12      	ldr	r3, [pc, #72]	(118 <Keyboard_Odblokuj+0x118>)
  ce:	2200      	movs	r2, #0
  d0:	701a      	strb	r2, [r3, #0]
C:\tien\PROJEKTY\procesory\STM\T104_V100a_GASTOP\sources/gui.c:3244
              if ( Next_Editable_Variable() == FALSE )
  d2:	f7ff fffe 	bl	0 <Keyboard_Odblokuj>
  d6:	2800      	cmp	r0, #0
  d8:	d1e6      	bne.n	a8 <Keyboard_Odblokuj+0xa8>
C:\tien\PROJEKTY\procesory\STM\T104_V100a_GASTOP\sources/gui.c:3246
              {
                  First_Editable_Variable();
  da:	f7ff fffe 	bl	0 <Keyboard_Odblokuj>
  de:	e7e3      	b.n	ffffffca <Screen_Info+0xffffdd66>
C:\tien\PROJEKTY\procesory\STM\T104_V100a_GASTOP\sources/gui.c:3252
              }
              Reload_Screen = TRUE;
            break;

            default:
                Keyboard_Edit_Variable();
  e0:	f7ff fffe 	bl	0 <Keyboard_Odblokuj>
C:\tien\PROJEKTY\procesory\STM\T104_V100a_GASTOP\sources/gui.c:3255
            break;
        }
        Keyboard.Keyboard_Flag = 0;
  e4:	4b03      	ldr	r3, [pc, #12]	(f4 <Keyboard_Odblokuj+0xf4>)
  e6:	2200      	movs	r2, #0
  e8:	709a      	strb	r2, [r3, #2]
C:\tien\PROJEKTY\procesory\STM\T104_V100a_GASTOP\sources/gui.c:3258
    }

    if ( Keyboard.Keyboard_State == 0 )
  ea:	4a02      	ldr	r2, [pc, #8]	(f4 <Keyboard_Odblokuj+0xf4>)
  ec:	7853      	ldrb	r3, [r2, #1]
  ee:	b903      	cbnz	r3, f2 <Keyboard_Odblokuj+0xf2>
C:\tien\PROJEKTY\procesory\STM\T104_V100a_GASTOP\sources/gui.c:3260
    {
        Keyboard.Keyboard_Memory = 0;
  f0:	7013      	strb	r3, [r2, #0]
C:\tien\PROJEKTY\procesory\STM\T104_V100a_GASTOP\sources/gui.c:3262
    }
}
  f2:	bd10      	pop	{r4, pc}
	...
 108:	0001526b 	.word	0x0001526b
	...
Disassembly of section .text.Keyboard_Ust_Enk:

00000000 <Keyboard_Ust_Enk>:
Keyboard_Ust_Enk():
C:\tien\PROJEKTY\procesory\STM\T104_V100a_GASTOP\sources/gui.c:3122
* Input          : None
* Output         : None
* Return         : None
*******************************************************************************/
static void Keyboard_Ust_Enk ( void )
{
   0:	b570      	push	{r4, r5, r6, lr}
C:\tien\PROJEKTY\procesory\STM\T104_V100a_GASTOP\sources/gui.c:3123
    if ( Keyboard.Keyboard_Memory != 0 && Keyboard.Keyboard_Flag == 1 )
   2:	4a13      	ldr	r2, [pc, #76]	(50 <Keyboard_Ust_Enk+0x50>)
   4:	7813      	ldrb	r3, [r2, #0]
   6:	b1eb      	cbz	r3, 44 <Keyboard_Ust_Enk+0x44>
   8:	7895      	ldrb	r5, [r2, #2]
   a:	2d01      	cmp	r5, #1
   c:	d11a      	bne.n	44 <Keyboard_Ust_Enk+0x44>
C:\tien\PROJEKTY\procesory\STM\T104_V100a_GASTOP\sources/gui.c:3125
    {
        switch ( Keyboard.Keyboard_Memory )
   e:	2b02      	cmp	r3, #2
  10:	d115      	bne.n	3e <Keyboard_Ust_Enk+0x3e>
C:\tien\PROJEKTY\procesory\STM\T104_V100a_GASTOP\sources/gui.c:3128
        {
            case KEY_ESCAPE:
                    Variable_Editing_Ptr = NULL;
  12:	4b10      	ldr	r3, [pc, #64]	(54 <Keyboard_Ust_Enk+0x54>)
C:\tien\PROJEKTY\procesory\STM\T104_V100a_GASTOP\sources/gui.c:3129
                    Controlling_Variables_Set.Ctrl_Vars.Encoder = Controller_Variables.Controller_Vars.Encoder_Var;
  14:	4a10      	ldr	r2, [pc, #64]	(58 <Keyboard_Ust_Enk+0x58>)
C:\tien\PROJEKTY\procesory\STM\T104_V100a_GASTOP\sources/gui.c:3128
    if ( Keyboard.Keyboard_Memory != 0 && Keyboard.Keyboard_Flag == 1 )
    {
        switch ( Keyboard.Keyboard_Memory )
        {
            case KEY_ESCAPE:
                    Variable_Editing_Ptr = NULL;
  16:	2400      	movs	r4, #0
C:\tien\PROJEKTY\procesory\STM\T104_V100a_GASTOP\sources/gui.c:3129
                    Controlling_Variables_Set.Ctrl_Vars.Encoder = Controller_Variables.Controller_Vars.Encoder_Var;
  18:	8812      	ldrh	r2, [r2, #0]
C:\tien\PROJEKTY\procesory\STM\T104_V100a_GASTOP\sources/gui.c:3128
    if ( Keyboard.Keyboard_Memory != 0 && Keyboard.Keyboard_Flag == 1 )
    {
        switch ( Keyboard.Keyboard_Memory )
        {
            case KEY_ESCAPE:
                    Variable_Editing_Ptr = NULL;
  1a:	601c      	str	r4, [r3, #0]
C:\tien\PROJEKTY\procesory\STM\T104_V100a_GASTOP\sources/gui.c:3129
                    Controlling_Variables_Set.Ctrl_Vars.Encoder = Controller_Variables.Controller_Vars.Encoder_Var;
  1c:	4b0f      	ldr	r3, [pc, #60]	(5c <Keyboard_Ust_Enk+0x5c>)
  1e:	80da      	strh	r2, [r3, #6]
C:\tien\PROJEKTY\procesory\STM\T104_V100a_GASTOP\sources/gui.c:3130
                    Write_Settings();
  20:	f7ff fffe 	bl	0 <Keyboard_Ust_Enk>
C:\tien\PROJEKTY\procesory\STM\T104_V100a_GASTOP\sources/gui.c:3131
                    Menu_Keys = Menu_Backup_Keys_Set;
  24:	2203      	movs	r2, #3
  26:	480e      	ldr	r0, [pc, #56]	(60 <Keyboard_Ust_Enk+0x60>)
  28:	490e      	ldr	r1, [pc, #56]	(64 <Keyboard_Ust_Enk+0x64>)
  2a:	f7ff fffe 	bl	0 <memcpy>
C:\tien\PROJEKTY\procesory\STM\T104_V100a_GASTOP\sources/gui.c:3132
                    Screen_Number = Screen_Before_Password;
  2e:	4b0e      	ldr	r3, [pc, #56]	(68 <Keyboard_Ust_Enk+0x68>)
  30:	781a      	ldrb	r2, [r3, #0]
  32:	4b0e      	ldr	r3, [pc, #56]	(6c <Keyboard_Ust_Enk+0x6c>)
  34:	701a      	strb	r2, [r3, #0]
C:\tien\PROJEKTY\procesory\STM\T104_V100a_GASTOP\sources/gui.c:3133
                    Reload_Screen = TRUE;
  36:	4b0e      	ldr	r3, [pc, #56]	(70 <Keyboard_Ust_Enk+0x70>)
  38:	701d      	strb	r5, [r3, #0]
C:\tien\PROJEKTY\procesory\STM\T104_V100a_GASTOP\sources/gui.c:3134
                    Machine_State = STANDBY;
  3a:	4b0e      	ldr	r3, [pc, #56]	(74 <Keyboard_Ust_Enk+0x74>)
  3c:	701c      	strb	r4, [r3, #0]
C:\tien\PROJEKTY\procesory\STM\T104_V100a_GASTOP\sources/gui.c:3140
            break;

            default:
            break;
        }
        Keyboard.Keyboard_Flag = 0;
  3e:	4b04      	ldr	r3, [pc, #16]	(50 <Keyboard_Ust_Enk+0x50>)
  40:	2200      	movs	r2, #0
  42:	709a      	strb	r2, [r3, #2]
C:\tien\PROJEKTY\procesory\STM\T104_V100a_GASTOP\sources/gui.c:3143
    }

    if ( Keyboard.Keyboard_State == 0 )
  44:	4a02      	ldr	r2, [pc, #8]	(50 <Keyboard_Ust_Enk+0x50>)
  46:	7853      	ldrb	r3, [r2, #1]
  48:	b903      	cbnz	r3, 4c <Keyboard_Ust_Enk+0x4c>
C:\tien\PROJEKTY\procesory\STM\T104_V100a_GASTOP\sources/gui.c:3145
    {
        Keyboard.Keyboard_Memory = 0;
  4a:	7013      	strb	r3, [r2, #0]
C:\tien\PROJEKTY\procesory\STM\T104_V100a_GASTOP\sources/gui.c:3147
    }
}
  4c:	bd70      	pop	{r4, r5, r6, pc}
  4e:	46c0      	nop			(mov r8, r8)
	...
  60:	00000011 	.word	0x00000011
	...
Disassembly of section .text.Keyboard_Functions1:

00000000 <Keyboard_Functions1>:
Keyboard_Functions1():
C:\tien\PROJEKTY\procesory\STM\T104_V100a_GASTOP\sources/gui.c:2255
* Input          : None
* Output         : None
* Return         : None
*******************************************************************************/
static void Keyboard_Functions1 ( void )
{
   0:	b570      	push	{r4, r5, r6, lr}
C:\tien\PROJEKTY\procesory\STM\T104_V100a_GASTOP\sources/gui.c:2256
    if ( Keyboard.Keyboard_Memory != 0 && Keyboard.Keyboard_Flag == 1 )
   2:	4b26      	ldr	r3, [pc, #152]	(9c <Keyboard_Functions1+0x9c>)
   4:	781d      	ldrb	r5, [r3, #0]
   6:	2d00      	cmp	r5, #0
   8:	d042      	beq.n	90 <Keyboard_Functions1+0x90>
   a:	789e      	ldrb	r6, [r3, #2]
   c:	2e01      	cmp	r6, #1
   e:	d13f      	bne.n	90 <Keyboard_Functions1+0x90>
C:\tien\PROJEKTY\procesory\STM\T104_V100a_GASTOP\sources/gui.c:2258
    {
        switch ( Keyboard.Keyboard_Memory )
  10:	2d02      	cmp	r5, #2
  12:	d008      	beq.n	26 <Keyboard_Functions1+0x26>
  14:	d802      	bhi.n	1c <Keyboard_Functions1+0x1c>
  16:	2d01      	cmp	r5, #1
  18:	d135      	bne.n	86 <Keyboard_Functions1+0x86>
  1a:	e010      	b.n	3e <Keyboard_Functions1+0x3e>
  1c:	2d08      	cmp	r5, #8
  1e:	d026      	beq.n	6e <Keyboard_Functions1+0x6e>
  20:	2d20      	cmp	r5, #32
  22:	d130      	bne.n	86 <Keyboard_Functions1+0x86>
  24:	e015      	b.n	52 <Keyboard_Functions1+0x52>
C:\tien\PROJEKTY\procesory\STM\T104_V100a_GASTOP\sources/gui.c:2261
        {
            case KEY_ESCAPE:
                    Machine_State = STANDBY;
  26:	4b1e      	ldr	r3, [pc, #120]	(a0 <Keyboard_Functions1+0xa0>)
  28:	2400      	movs	r4, #0
  2a:	701c      	strb	r4, [r3, #0]
C:\tien\PROJEKTY\procesory\STM\T104_V100a_GASTOP\sources/gui.c:2262
                    Write_Settings();
  2c:	f7ff fffe 	bl	0 <Keyboard_Functions1>
C:\tien\PROJEKTY\procesory\STM\T104_V100a_GASTOP\sources/gui.c:2263
                    Variable_Editing_Ptr = NULL;
  30:	4b1c      	ldr	r3, [pc, #112]	(a4 <Keyboard_Functions1+0xa4>)
  32:	601c      	str	r4, [r3, #0]
C:\tien\PROJEKTY\procesory\STM\T104_V100a_GASTOP\sources/gui.c:2264
                    Screen_Number = MENU;
  34:	4b1c      	ldr	r3, [pc, #112]	(a8 <Keyboard_Functions1+0xa8>)
  36:	701d      	strb	r5, [r3, #0]
C:\tien\PROJEKTY\procesory\STM\T104_V100a_GASTOP\sources/gui.c:2265
                    Reload_Screen = TRUE;
  38:	4b1c      	ldr	r3, [pc, #112]	(ac <Keyboard_Functions1+0xac>)
  3a:	701e      	strb	r6, [r3, #0]
  3c:	e025      	b.n	8a <Keyboard_Functions1+0x8a>
C:\tien\PROJEKTY\procesory\STM\T104_V100a_GASTOP\sources/gui.c:2269
            break;

            case KEY_ENTER:
                   if ( ++Screen_Number == PROG_TESTOWY )
  3e:	4a1a      	ldr	r2, [pc, #104]	(a8 <Keyboard_Functions1+0xa8>)
  40:	7813      	ldrb	r3, [r2, #0]
  42:	3301      	adds	r3, #1
  44:	b2db      	uxtb	r3, r3
  46:	2b1c      	cmp	r3, #28
  48:	7013      	strb	r3, [r2, #0]
  4a:	d116      	bne.n	7a <Keyboard_Functions1+0x7a>
C:\tien\PROJEKTY\procesory\STM\T104_V100a_GASTOP\sources/gui.c:2271
                   {
                       Screen_Number = FUNCTIONS1;
  4c:	2317      	movs	r3, #23
  4e:	7013      	strb	r3, [r2, #0]
  50:	e013      	b.n	7a <Keyboard_Functions1+0x7a>
C:\tien\PROJEKTY\procesory\STM\T104_V100a_GASTOP\sources/gui.c:2278
                   First_Editable_Variable();
                   Reload_Screen = TRUE;
            break;

            case KEY_DOWN:
              if ( ++Count_Add == Variable_Editing_Ptr->Var_Param_Ptr->Variable_Digits_Count )
  52:	4917      	ldr	r1, [pc, #92]	(b0 <Keyboard_Functions1+0xb0>)
  54:	4b13      	ldr	r3, [pc, #76]	(a4 <Keyboard_Functions1+0xa4>)
  56:	780a      	ldrb	r2, [r1, #0]
  58:	681b      	ldr	r3, [r3, #0]
  5a:	3201      	adds	r2, #1
  5c:	b2d2      	uxtb	r2, r2
  5e:	700a      	strb	r2, [r1, #0]
  60:	68db      	ldr	r3, [r3, #12]
  62:	789b      	ldrb	r3, [r3, #2]
  64:	4293      	cmp	r3, r2
  66:	d10a      	bne.n	7e <Keyboard_Functions1+0x7e>
C:\tien\PROJEKTY\procesory\STM\T104_V100a_GASTOP\sources/gui.c:2280
              {
                  Count_Add = 0;
  68:	2300      	movs	r3, #0
  6a:	700b      	strb	r3, [r1, #0]
  6c:	e007      	b.n	7e <Keyboard_Functions1+0x7e>
C:\tien\PROJEKTY\procesory\STM\T104_V100a_GASTOP\sources/gui.c:2286
              }
              Reload_Screen = TRUE;  
            break;
          
            case KEY_UP:
              Count_Add = 0;
  6e:	4b10      	ldr	r3, [pc, #64]	(b0 <Keyboard_Functions1+0xb0>)
  70:	2200      	movs	r2, #0
  72:	701a      	strb	r2, [r3, #0]
C:\tien\PROJEKTY\procesory\STM\T104_V100a_GASTOP\sources/gui.c:2287
              if ( Next_Editable_Variable() == FALSE )
  74:	f7ff fffe 	bl	0 <Keyboard_Functions1>
  78:	b908      	cbnz	r0, 6 <Keyboard_Functions1+0x6>
C:\tien\PROJEKTY\procesory\STM\T104_V100a_GASTOP\sources/gui.c:2289
              {
                  First_Editable_Variable();
  7a:	f7ff fffe 	bl	0 <Keyboard_Functions1>
C:\tien\PROJEKTY\procesory\STM\T104_V100a_GASTOP\sources/gui.c:2291
              }
              Reload_Screen = TRUE;
  7e:	4b0b      	ldr	r3, [pc, #44]	(ac <Keyboard_Functions1+0xac>)
  80:	2201      	movs	r2, #1
  82:	701a      	strb	r2, [r3, #0]
  84:	e001      	b.n	8a <Keyboard_Functions1+0x8a>
C:\tien\PROJEKTY\procesory\STM\T104_V100a_GASTOP\sources/gui.c:2295
            break;

            default:
                Keyboard_Edit_Variable();
  86:	f7ff fffe 	bl	0 <Keyboard_Functions1>
C:\tien\PROJEKTY\procesory\STM\T104_V100a_GASTOP\sources/gui.c:2298
            break;
        }
        Keyboard.Keyboard_Flag = 0;
  8a:	4b04      	ldr	r3, [pc, #16]	(9c <Keyboard_Functions1+0x9c>)
  8c:	2200      	movs	r2, #0
  8e:	709a      	strb	r2, [r3, #2]
C:\tien\PROJEKTY\procesory\STM\T104_V100a_GASTOP\sources/gui.c:2301
    }

    if ( Keyboard.Keyboard_State == 0 )
  90:	4a02      	ldr	r2, [pc, #8]	(9c <Keyboard_Functions1+0x9c>)
  92:	7853      	ldrb	r3, [r2, #1]
  94:	b903      	cbnz	r3, 98 <Keyboard_Functions1+0x98>
C:\tien\PROJEKTY\procesory\STM\T104_V100a_GASTOP\sources/gui.c:2303
    {
        Keyboard.Keyboard_Memory = 0;
  96:	7013      	strb	r3, [r2, #0]
C:\tien\PROJEKTY\procesory\STM\T104_V100a_GASTOP\sources/gui.c:2305
    }
}
  98:	bd70      	pop	{r4, r5, r6, pc}
  9a:	46c0      	nop			(mov r8, r8)
	...
Disassembly of section .text.Keyboard_Lights:

00000000 <Keyboard_Lights>:
Keyboard_Lights():
C:\tien\PROJEKTY\procesory\STM\T104_V100a_GASTOP\sources/gui.c:2828
* Input          : None
* Output         : None
* Return         : None
*******************************************************************************/
static void Keyboard_Lights ( void )
{
   0:	b510      	push	{r4, lr}
C:\tien\PROJEKTY\procesory\STM\T104_V100a_GASTOP\sources/gui.c:2829
    if ( Keyboard.Keyboard_Memory != 0 && Keyboard.Keyboard_Flag == 1 )
   2:	4a23      	ldr	r2, [pc, #140]	(90 <Keyboard_Lights+0x90>)
   4:	7813      	ldrb	r3, [r2, #0]
   6:	2b00      	cmp	r3, #0
   8:	d03d      	beq.n	86 <Keyboard_Lights+0x86>
   a:	7894      	ldrb	r4, [r2, #2]
   c:	2c01      	cmp	r4, #1
   e:	d13a      	bne.n	86 <Keyboard_Lights+0x86>
C:\tien\PROJEKTY\procesory\STM\T104_V100a_GASTOP\sources/gui.c:2831
    {
        switch ( Keyboard.Keyboard_Memory )
  10:	2b02      	cmp	r3, #2
  12:	d008      	beq.n	26 <Keyboard_Lights+0x26>
  14:	d802      	bhi.n	1c <Keyboard_Lights+0x1c>
  16:	2b01      	cmp	r3, #1
  18:	d130      	bne.n	7c <Keyboard_Lights+0x7c>
  1a:	e031      	b.n	80 <Keyboard_Lights+0x80>
  1c:	2b08      	cmp	r3, #8
  1e:	d021      	beq.n	64 <Keyboard_Lights+0x64>
  20:	2b20      	cmp	r3, #32
  22:	d12b      	bne.n	7c <Keyboard_Lights+0x7c>
  24:	e010      	b.n	48 <Keyboard_Lights+0x48>
C:\tien\PROJEKTY\procesory\STM\T104_V100a_GASTOP\sources/gui.c:2834
        {
            case KEY_ESCAPE:
                    Write_Settings();
  26:	f7ff fffe 	bl	0 <Keyboard_Lights>
C:\tien\PROJEKTY\procesory\STM\T104_V100a_GASTOP\sources/gui.c:2835
                    Variable_Editing_Ptr = NULL;
  2a:	4b1a      	ldr	r3, [pc, #104]	(94 <Keyboard_Lights+0x94>)
  2c:	2200      	movs	r2, #0
  2e:	601a      	str	r2, [r3, #0]
C:\tien\PROJEKTY\procesory\STM\T104_V100a_GASTOP\sources/gui.c:2836
                    Menu_Keys = Menu_Backup_Keys_Set;
  30:	4819      	ldr	r0, [pc, #100]	(98 <Keyboard_Lights+0x98>)
  32:	3203      	adds	r2, #3
  34:	4919      	ldr	r1, [pc, #100]	(9c <Keyboard_Lights+0x9c>)
  36:	f7ff fffe 	bl	0 <memcpy>
C:\tien\PROJEKTY\procesory\STM\T104_V100a_GASTOP\sources/gui.c:2837
                    Screen_Number = Screen_Before_Password;;
  3a:	4b19      	ldr	r3, [pc, #100]	(a0 <Keyboard_Lights+0xa0>)
  3c:	781a      	ldrb	r2, [r3, #0]
  3e:	4b19      	ldr	r3, [pc, #100]	(a4 <Keyboard_Lights+0xa4>)
  40:	701a      	strb	r2, [r3, #0]
C:\tien\PROJEKTY\procesory\STM\T104_V100a_GASTOP\sources/gui.c:2838
                    Reload_Screen = TRUE;
  42:	4b19      	ldr	r3, [pc, #100]	(a8 <Keyboard_Lights+0xa8>)
  44:	701c      	strb	r4, [r3, #0]
  46:	e01b      	b.n	80 <Keyboard_Lights+0x80>
C:\tien\PROJEKTY\procesory\STM\T104_V100a_GASTOP\sources/gui.c:2853
                    Reload_Screen = TRUE;
                */
            break;

            case KEY_DOWN:
              if ( ++Count_Add == Variable_Editing_Ptr->Var_Param_Ptr->Variable_Digits_Count )
  48:	4918      	ldr	r1, [pc, #96]	(ac <Keyboard_Lights+0xac>)
  4a:	4b12      	ldr	r3, [pc, #72]	(94 <Keyboard_Lights+0x94>)
  4c:	780a      	ldrb	r2, [r1, #0]
  4e:	681b      	ldr	r3, [r3, #0]
  50:	3201      	adds	r2, #1
  52:	b2d2      	uxtb	r2, r2
  54:	700a      	strb	r2, [r1, #0]
  56:	68db      	ldr	r3, [r3, #12]
  58:	789b      	ldrb	r3, [r3, #2]
  5a:	4293      	cmp	r3, r2
  5c:	d10a      	bne.n	74 <Keyboard_Lights+0x74>
C:\tien\PROJEKTY\procesory\STM\T104_V100a_GASTOP\sources/gui.c:2855
              {
                  Count_Add = 0;
  5e:	2300      	movs	r3, #0
  60:	700b      	strb	r3, [r1, #0]
  62:	e007      	b.n	74 <Keyboard_Lights+0x74>
C:\tien\PROJEKTY\procesory\STM\T104_V100a_GASTOP\sources/gui.c:2861
              }
              Reload_Screen = TRUE;  
            break;
          
            case KEY_UP:
              Count_Add = 0;
  64:	4b11      	ldr	r3, [pc, #68]	(ac <Keyboard_Lights+0xac>)
  66:	2200      	movs	r2, #0
  68:	701a      	strb	r2, [r3, #0]
C:\tien\PROJEKTY\procesory\STM\T104_V100a_GASTOP\sources/gui.c:2862
              if ( Next_Editable_Variable() == FALSE )
  6a:	f7ff fffe 	bl	0 <Keyboard_Lights>
  6e:	b908      	cbnz	r0, 6 <Keyboard_Lights+0x6>
C:\tien\PROJEKTY\procesory\STM\T104_V100a_GASTOP\sources/gui.c:2864
              {
                  First_Editable_Variable();
  70:	f7ff fffe 	bl	0 <Keyboard_Lights>
C:\tien\PROJEKTY\procesory\STM\T104_V100a_GASTOP\sources/gui.c:2866
              }
              Reload_Screen = TRUE;
  74:	4b0c      	ldr	r3, [pc, #48]	(a8 <Keyboard_Lights+0xa8>)
  76:	2201      	movs	r2, #1
  78:	701a      	strb	r2, [r3, #0]
  7a:	e001      	b.n	80 <Keyboard_Lights+0x80>
C:\tien\PROJEKTY\procesory\STM\T104_V100a_GASTOP\sources/gui.c:2870
            break;

            default:
                Keyboard_Edit_Variable();
  7c:	f7ff fffe 	bl	0 <Keyboard_Lights>
C:\tien\PROJEKTY\procesory\STM\T104_V100a_GASTOP\sources/gui.c:2873
            break;
        }
        Keyboard.Keyboard_Flag = 0;
  80:	4b03      	ldr	r3, [pc, #12]	(90 <Keyboard_Lights+0x90>)
  82:	2200      	movs	r2, #0
  84:	709a      	strb	r2, [r3, #2]
C:\tien\PROJEKTY\procesory\STM\T104_V100a_GASTOP\sources/gui.c:2876
    }

    if ( Keyboard.Keyboard_State == 0 )
  86:	4a02      	ldr	r2, [pc, #8]	(90 <Keyboard_Lights+0x90>)
  88:	7853      	ldrb	r3, [r2, #1]
  8a:	b903      	cbnz	r3, 8e <Keyboard_Lights+0x8e>
C:\tien\PROJEKTY\procesory\STM\T104_V100a_GASTOP\sources/gui.c:2878
    {
        Keyboard.Keyboard_Memory = 0;
  8c:	7013      	strb	r3, [r2, #0]
C:\tien\PROJEKTY\procesory\STM\T104_V100a_GASTOP\sources/gui.c:2880
    }
}
  8e:	bd10      	pop	{r4, pc}
	...
  98:	00000011 	.word	0x00000011
	...
Disassembly of section .text.Keyboard_Heat_Cool:

00000000 <Keyboard_Heat_Cool>:
Keyboard_Heat_Cool():
C:\tien\PROJEKTY\procesory\STM\T104_V100a_GASTOP\sources/gui.c:2765
* Input          : None
* Output         : None
* Return         : None
*******************************************************************************/
static void Keyboard_Heat_Cool ( void )
{
   0:	b510      	push	{r4, lr}
C:\tien\PROJEKTY\procesory\STM\T104_V100a_GASTOP\sources/gui.c:2766
    if ( Keyboard.Keyboard_Memory != 0 && Keyboard.Keyboard_Flag == 1 )
   2:	4a23      	ldr	r2, [pc, #140]	(90 <Keyboard_Heat_Cool+0x90>)
   4:	7813      	ldrb	r3, [r2, #0]
   6:	2b00      	cmp	r3, #0
   8:	d03d      	beq.n	86 <Keyboard_Heat_Cool+0x86>
   a:	7894      	ldrb	r4, [r2, #2]
   c:	2c01      	cmp	r4, #1
   e:	d13a      	bne.n	86 <Keyboard_Heat_Cool+0x86>
C:\tien\PROJEKTY\procesory\STM\T104_V100a_GASTOP\sources/gui.c:2768
    {
        switch ( Keyboard.Keyboard_Memory )
  10:	2b02      	cmp	r3, #2
  12:	d008      	beq.n	26 <Keyboard_Heat_Cool+0x26>
  14:	d802      	bhi.n	1c <Keyboard_Heat_Cool+0x1c>
  16:	2b01      	cmp	r3, #1
  18:	d130      	bne.n	7c <Keyboard_Heat_Cool+0x7c>
  1a:	e031      	b.n	80 <Keyboard_Heat_Cool+0x80>
  1c:	2b08      	cmp	r3, #8
  1e:	d021      	beq.n	64 <Keyboard_Heat_Cool+0x64>
  20:	2b20      	cmp	r3, #32
  22:	d12b      	bne.n	7c <Keyboard_Heat_Cool+0x7c>
  24:	e010      	b.n	48 <Keyboard_Heat_Cool+0x48>
C:\tien\PROJEKTY\procesory\STM\T104_V100a_GASTOP\sources/gui.c:2771
        {
            case KEY_ESCAPE:
                    Write_Settings();
  26:	f7ff fffe 	bl	0 <Keyboard_Heat_Cool>
C:\tien\PROJEKTY\procesory\STM\T104_V100a_GASTOP\sources/gui.c:2772
                    Variable_Editing_Ptr = NULL;
  2a:	4b1a      	ldr	r3, [pc, #104]	(94 <Keyboard_Heat_Cool+0x94>)
  2c:	2200      	movs	r2, #0
  2e:	601a      	str	r2, [r3, #0]
C:\tien\PROJEKTY\procesory\STM\T104_V100a_GASTOP\sources/gui.c:2773
                    Menu_Keys = Menu_Backup_Keys_Set;
  30:	4819      	ldr	r0, [pc, #100]	(98 <Keyboard_Heat_Cool+0x98>)
  32:	3203      	adds	r2, #3
  34:	4919      	ldr	r1, [pc, #100]	(9c <Keyboard_Heat_Cool+0x9c>)
  36:	f7ff fffe 	bl	0 <memcpy>
C:\tien\PROJEKTY\procesory\STM\T104_V100a_GASTOP\sources/gui.c:2774
                    Screen_Number = Screen_Before_Password;;
  3a:	4b19      	ldr	r3, [pc, #100]	(a0 <Keyboard_Heat_Cool+0xa0>)
  3c:	781a      	ldrb	r2, [r3, #0]
  3e:	4b19      	ldr	r3, [pc, #100]	(a4 <Keyboard_Heat_Cool+0xa4>)
  40:	701a      	strb	r2, [r3, #0]
C:\tien\PROJEKTY\procesory\STM\T104_V100a_GASTOP\sources/gui.c:2775
                    Reload_Screen = TRUE;
  42:	4b19      	ldr	r3, [pc, #100]	(a8 <Keyboard_Heat_Cool+0xa8>)
  44:	701c      	strb	r4, [r3, #0]
  46:	e01b      	b.n	80 <Keyboard_Heat_Cool+0x80>
C:\tien\PROJEKTY\procesory\STM\T104_V100a_GASTOP\sources/gui.c:2790
                    Reload_Screen = TRUE;
                */
            break;

            case KEY_DOWN:
              if ( ++Count_Add == Variable_Editing_Ptr->Var_Param_Ptr->Variable_Digits_Count )
  48:	4918      	ldr	r1, [pc, #96]	(ac <Keyboard_Heat_Cool+0xac>)
  4a:	4b12      	ldr	r3, [pc, #72]	(94 <Keyboard_Heat_Cool+0x94>)
  4c:	780a      	ldrb	r2, [r1, #0]
  4e:	681b      	ldr	r3, [r3, #0]
  50:	3201      	adds	r2, #1
  52:	b2d2      	uxtb	r2, r2
  54:	700a      	strb	r2, [r1, #0]
  56:	68db      	ldr	r3, [r3, #12]
  58:	789b      	ldrb	r3, [r3, #2]
  5a:	4293      	cmp	r3, r2
  5c:	d10a      	bne.n	74 <Keyboard_Heat_Cool+0x74>
C:\tien\PROJEKTY\procesory\STM\T104_V100a_GASTOP\sources/gui.c:2792
              {
                  Count_Add = 0;
  5e:	2300      	movs	r3, #0
  60:	700b      	strb	r3, [r1, #0]
  62:	e007      	b.n	74 <Keyboard_Heat_Cool+0x74>
C:\tien\PROJEKTY\procesory\STM\T104_V100a_GASTOP\sources/gui.c:2798
              }
              Reload_Screen = TRUE;  
            break;
          
            case KEY_UP:
              Count_Add = 0;
  64:	4b11      	ldr	r3, [pc, #68]	(ac <Keyboard_Heat_Cool+0xac>)
  66:	2200      	movs	r2, #0
  68:	701a      	strb	r2, [r3, #0]
C:\tien\PROJEKTY\procesory\STM\T104_V100a_GASTOP\sources/gui.c:2799
              if ( Next_Editable_Variable() == FALSE )
  6a:	f7ff fffe 	bl	0 <Keyboard_Heat_Cool>
  6e:	b908      	cbnz	r0, 6 <Keyboard_Heat_Cool+0x6>
C:\tien\PROJEKTY\procesory\STM\T104_V100a_GASTOP\sources/gui.c:2801
              {
                  First_Editable_Variable();
  70:	f7ff fffe 	bl	0 <Keyboard_Heat_Cool>
C:\tien\PROJEKTY\procesory\STM\T104_V100a_GASTOP\sources/gui.c:2803
              }
              Reload_Screen = TRUE;
  74:	4b0c      	ldr	r3, [pc, #48]	(a8 <Keyboard_Heat_Cool+0xa8>)
  76:	2201      	movs	r2, #1
  78:	701a      	strb	r2, [r3, #0]
  7a:	e001      	b.n	80 <Keyboard_Heat_Cool+0x80>
C:\tien\PROJEKTY\procesory\STM\T104_V100a_GASTOP\sources/gui.c:2807
            break;

            default:
                Keyboard_Edit_Variable();
  7c:	f7ff fffe 	bl	0 <Keyboard_Heat_Cool>
C:\tien\PROJEKTY\procesory\STM\T104_V100a_GASTOP\sources/gui.c:2810
            break;
        }
        Keyboard.Keyboard_Flag = 0;
  80:	4b03      	ldr	r3, [pc, #12]	(90 <Keyboard_Heat_Cool+0x90>)
  82:	2200      	movs	r2, #0
  84:	709a      	strb	r2, [r3, #2]
C:\tien\PROJEKTY\procesory\STM\T104_V100a_GASTOP\sources/gui.c:2813
    }

    if ( Keyboard.Keyboard_State == 0 )
  86:	4a02      	ldr	r2, [pc, #8]	(90 <Keyboard_Heat_Cool+0x90>)
  88:	7853      	ldrb	r3, [r2, #1]
  8a:	b903      	cbnz	r3, 8e <Keyboard_Heat_Cool+0x8e>
C:\tien\PROJEKTY\procesory\STM\T104_V100a_GASTOP\sources/gui.c:2815
    {
        Keyboard.Keyboard_Memory = 0;
  8c:	7013      	strb	r3, [r2, #0]
C:\tien\PROJEKTY\procesory\STM\T104_V100a_GASTOP\sources/gui.c:2817
    }
}
  8e:	bd10      	pop	{r4, pc}
	...
  98:	00000011 	.word	0x00000011
	...
Disassembly of section .text.Keyboard_Param_Ster:

00000000 <Keyboard_Param_Ster>:
Keyboard_Param_Ster():
C:\tien\PROJEKTY\procesory\STM\T104_V100a_GASTOP\sources/gui.c:2705
* Input          : None
* Output         : None
* Return         : None
*******************************************************************************/
static void Keyboard_Param_Ster ( void )
{
   0:	b510      	push	{r4, lr}
C:\tien\PROJEKTY\procesory\STM\T104_V100a_GASTOP\sources/gui.c:2706
    if ( Keyboard.Keyboard_Memory != 0 && Keyboard.Keyboard_Flag == 1 )
   2:	4a28      	ldr	r2, [pc, #160]	(a4 <Keyboard_Param_Ster+0xa4>)
   4:	7813      	ldrb	r3, [r2, #0]
   6:	2b00      	cmp	r3, #0
   8:	d047      	beq.n	9a <Keyboard_Param_Ster+0x9a>
   a:	7894      	ldrb	r4, [r2, #2]
   c:	2c01      	cmp	r4, #1
   e:	d144      	bne.n	9a <Keyboard_Param_Ster+0x9a>
C:\tien\PROJEKTY\procesory\STM\T104_V100a_GASTOP\sources/gui.c:2708
    {
        switch ( Keyboard.Keyboard_Memory )
  10:	2b02      	cmp	r3, #2
  12:	d008      	beq.n	26 <Keyboard_Param_Ster+0x26>
  14:	d802      	bhi.n	1c <Keyboard_Param_Ster+0x1c>
  16:	2b01      	cmp	r3, #1
  18:	d13a      	bne.n	90 <Keyboard_Param_Ster+0x90>
  1a:	e015      	b.n	48 <Keyboard_Param_Ster+0x48>
  1c:	2b08      	cmp	r3, #8
  1e:	d02b      	beq.n	78 <Keyboard_Param_Ster+0x78>
  20:	2b20      	cmp	r3, #32
  22:	d135      	bne.n	90 <Keyboard_Param_Ster+0x90>
  24:	e01a      	b.n	5c <Keyboard_Param_Ster+0x5c>
C:\tien\PROJEKTY\procesory\STM\T104_V100a_GASTOP\sources/gui.c:2711
        {
            case KEY_ESCAPE:
                    Write_Settings();
  26:	f7ff fffe 	bl	0 <Keyboard_Param_Ster>
C:\tien\PROJEKTY\procesory\STM\T104_V100a_GASTOP\sources/gui.c:2712
                    Variable_Editing_Ptr = NULL;
  2a:	4b1f      	ldr	r3, [pc, #124]	(a8 <Keyboard_Param_Ster+0xa8>)
  2c:	2200      	movs	r2, #0
  2e:	601a      	str	r2, [r3, #0]
C:\tien\PROJEKTY\procesory\STM\T104_V100a_GASTOP\sources/gui.c:2713
                    Menu_Keys = Menu_Backup_Keys_Set;
  30:	481e      	ldr	r0, [pc, #120]	(ac <Keyboard_Param_Ster+0xac>)
  32:	3203      	adds	r2, #3
  34:	491e      	ldr	r1, [pc, #120]	(b0 <Keyboard_Param_Ster+0xb0>)
  36:	f7ff fffe 	bl	0 <memcpy>
C:\tien\PROJEKTY\procesory\STM\T104_V100a_GASTOP\sources/gui.c:2714
                    Screen_Number = Screen_Before_Password;;
  3a:	4b1e      	ldr	r3, [pc, #120]	(b4 <Keyboard_Param_Ster+0xb4>)
  3c:	781a      	ldrb	r2, [r3, #0]
  3e:	4b1e      	ldr	r3, [pc, #120]	(b8 <Keyboard_Param_Ster+0xb8>)
  40:	701a      	strb	r2, [r3, #0]
C:\tien\PROJEKTY\procesory\STM\T104_V100a_GASTOP\sources/gui.c:2715
                    Reload_Screen = TRUE;
  42:	4b1e      	ldr	r3, [pc, #120]	(bc <Keyboard_Param_Ster+0xbc>)
  44:	701c      	strb	r4, [r3, #0]
  46:	e025      	b.n	94 <Keyboard_Param_Ster+0x94>
C:\tien\PROJEKTY\procesory\STM\T104_V100a_GASTOP\sources/gui.c:2719
            break;

            case KEY_ENTER:
                   if ( ++Screen_Number == HEAT_COOL1 )
  48:	4a1b      	ldr	r2, [pc, #108]	(b8 <Keyboard_Param_Ster+0xb8>)
  4a:	7813      	ldrb	r3, [r2, #0]
  4c:	3301      	adds	r3, #1
  4e:	b2db      	uxtb	r3, r3
  50:	2b15      	cmp	r3, #21
  52:	7013      	strb	r3, [r2, #0]
  54:	d116      	bne.n	84 <Keyboard_Param_Ster+0x84>
C:\tien\PROJEKTY\procesory\STM\T104_V100a_GASTOP\sources/gui.c:2721
                   {
                       Screen_Number = PARAM_STER1;
  56:	2312      	movs	r3, #18
  58:	7013      	strb	r3, [r2, #0]
  5a:	e013      	b.n	84 <Keyboard_Param_Ster+0x84>
C:\tien\PROJEKTY\procesory\STM\T104_V100a_GASTOP\sources/gui.c:2728
                   First_Editable_Variable();
                Reload_Screen = TRUE;
            break;

            case KEY_DOWN:
              if ( ++Count_Add == Variable_Editing_Ptr->Var_Param_Ptr->Variable_Digits_Count )
  5c:	4918      	ldr	r1, [pc, #96]	(c0 <Keyboard_Param_Ster+0xc0>)
  5e:	4b12      	ldr	r3, [pc, #72]	(a8 <Keyboard_Param_Ster+0xa8>)
  60:	780a      	ldrb	r2, [r1, #0]
  62:	681b      	ldr	r3, [r3, #0]
  64:	3201      	adds	r2, #1
  66:	b2d2      	uxtb	r2, r2
  68:	700a      	strb	r2, [r1, #0]
  6a:	68db      	ldr	r3, [r3, #12]
  6c:	789b      	ldrb	r3, [r3, #2]
  6e:	4293      	cmp	r3, r2
  70:	d10a      	bne.n	88 <Keyboard_Param_Ster+0x88>
C:\tien\PROJEKTY\procesory\STM\T104_V100a_GASTOP\sources/gui.c:2730
              {
                  Count_Add = 0;
  72:	2300      	movs	r3, #0
  74:	700b      	strb	r3, [r1, #0]
  76:	e007      	b.n	88 <Keyboard_Param_Ster+0x88>
C:\tien\PROJEKTY\procesory\STM\T104_V100a_GASTOP\sources/gui.c:2736
              }
              Reload_Screen = TRUE;  
            break;
          
            case KEY_UP:
              Count_Add = 0;
  78:	4b11      	ldr	r3, [pc, #68]	(c0 <Keyboard_Param_Ster+0xc0>)
  7a:	2200      	movs	r2, #0
  7c:	701a      	strb	r2, [r3, #0]
C:\tien\PROJEKTY\procesory\STM\T104_V100a_GASTOP\sources/gui.c:2737
              if ( Next_Editable_Variable() == FALSE )
  7e:	f7ff fffe 	bl	0 <Keyboard_Param_Ster>
  82:	b908      	cbnz	r0, 6 <Keyboard_Param_Ster+0x6>
C:\tien\PROJEKTY\procesory\STM\T104_V100a_GASTOP\sources/gui.c:2739
              {
                  First_Editable_Variable();
  84:	f7ff fffe 	bl	0 <Keyboard_Param_Ster>
C:\tien\PROJEKTY\procesory\STM\T104_V100a_GASTOP\sources/gui.c:2741
              }
              Reload_Screen = TRUE;
  88:	4b0c      	ldr	r3, [pc, #48]	(bc <Keyboard_Param_Ster+0xbc>)
  8a:	2201      	movs	r2, #1
  8c:	701a      	strb	r2, [r3, #0]
  8e:	e001      	b.n	94 <Keyboard_Param_Ster+0x94>
C:\tien\PROJEKTY\procesory\STM\T104_V100a_GASTOP\sources/gui.c:2745
            break;

            default:
                Keyboard_Edit_Variable();
  90:	f7ff fffe 	bl	0 <Keyboard_Param_Ster>
C:\tien\PROJEKTY\procesory\STM\T104_V100a_GASTOP\sources/gui.c:2748
            break;
        }
        Keyboard.Keyboard_Flag = 0;
  94:	4b03      	ldr	r3, [pc, #12]	(a4 <Keyboard_Param_Ster+0xa4>)
  96:	2200      	movs	r2, #0
  98:	709a      	strb	r2, [r3, #2]
C:\tien\PROJEKTY\procesory\STM\T104_V100a_GASTOP\sources/gui.c:2751
    }

    if ( Keyboard.Keyboard_State == 0 )
  9a:	4a02      	ldr	r2, [pc, #8]	(a4 <Keyboard_Param_Ster+0xa4>)
  9c:	7853      	ldrb	r3, [r2, #1]
  9e:	b903      	cbnz	r3, a2 <Keyboard_Param_Ster+0xa2>
C:\tien\PROJEKTY\procesory\STM\T104_V100a_GASTOP\sources/gui.c:2753
    {
        Keyboard.Keyboard_Memory = 0;
  a0:	7013      	strb	r3, [r2, #0]
C:\tien\PROJEKTY\procesory\STM\T104_V100a_GASTOP\sources/gui.c:2755
    }
}
  a2:	bd10      	pop	{r4, pc}
	...
  ac:	00000011 	.word	0x00000011
	...
Disassembly of section .text.Keyboard_Param_Mech:

00000000 <Keyboard_Param_Mech>:
Keyboard_Param_Mech():
C:\tien\PROJEKTY\procesory\STM\T104_V100a_GASTOP\sources/gui.c:2636
* Input          : None
* Output         : None
* Return         : None
*******************************************************************************/
static void Keyboard_Param_Mech ( void )
{
   0:	b510      	push	{r4, lr}
C:\tien\PROJEKTY\procesory\STM\T104_V100a_GASTOP\sources/gui.c:2637
    if ( Keyboard.Keyboard_Memory != 0 && Keyboard.Keyboard_Flag == 1 )
   2:	4b2e      	ldr	r3, [pc, #184]	(bc <Keyboard_Param_Mech+0xbc>)
   4:	781a      	ldrb	r2, [r3, #0]
   6:	2a00      	cmp	r2, #0
   8:	d052      	beq.n	b0 <Keyboard_Param_Mech+0xb0>
   a:	789b      	ldrb	r3, [r3, #2]
   c:	2b01      	cmp	r3, #1
   e:	d14f      	bne.n	b0 <Keyboard_Param_Mech+0xb0>
C:\tien\PROJEKTY\procesory\STM\T104_V100a_GASTOP\sources/gui.c:2639
    {
        switch ( Keyboard.Keyboard_Memory )
  10:	2a02      	cmp	r2, #2
  12:	d008      	beq.n	26 <Keyboard_Param_Mech+0x26>
  14:	d802      	bhi.n	1c <Keyboard_Param_Mech+0x1c>
  16:	2a01      	cmp	r2, #1
  18:	d145      	bne.n	a6 <Keyboard_Param_Mech+0xa6>
  1a:	e01f      	b.n	5c <Keyboard_Param_Mech+0x5c>
  1c:	2a08      	cmp	r2, #8
  1e:	d03a      	beq.n	96 <Keyboard_Param_Mech+0x96>
  20:	2a20      	cmp	r2, #32
  22:	d140      	bne.n	a6 <Keyboard_Param_Mech+0xa6>
  24:	e029      	b.n	7a <Keyboard_Param_Mech+0x7a>
C:\tien\PROJEKTY\procesory\STM\T104_V100a_GASTOP\sources/gui.c:2642
        {
            case KEY_ESCAPE:
                    if ( Service_Variables_Set.Serv_Vars.Sensor_Type == 0 )
  26:	4a26      	ldr	r2, [pc, #152]	(c0 <Keyboard_Param_Mech+0xc0>)
  28:	f892 306d 	ldrb.w	r3, [r2, #109]
  2c:	b913      	cbnz	r3, 34 <Keyboard_Param_Mech+0x34>
C:\tien\PROJEKTY\procesory\STM\T104_V100a_GASTOP\sources/gui.c:2644
                    {
                        Service_Variables_Set.Serv_Vars.Serwis_005 = 15;
  2e:	f04f 030f 	mov.w	r3, #15	; 0xf
  32:	e003      	b.n	3c <Keyboard_Param_Mech+0x3c>
C:\tien\PROJEKTY\procesory\STM\T104_V100a_GASTOP\sources/gui.c:2646
                    }
                    else if ( Service_Variables_Set.Serv_Vars.Sensor_Type == 1 )
  34:	2b01      	cmp	r3, #1
  36:	d102      	bne.n	3e <Keyboard_Param_Mech+0x3e>
C:\tien\PROJEKTY\procesory\STM\T104_V100a_GASTOP\sources/gui.c:2648
                    {
                        Service_Variables_Set.Serv_Vars.Serwis_005 = 30;
  38:	f04f 031e 	mov.w	r3, #30	; 0x1e
  3c:	8653      	strh	r3, [r2, #50]
C:\tien\PROJEKTY\procesory\STM\T104_V100a_GASTOP\sources/gui.c:2651
                    }
    
                    Write_Settings();
  3e:	f7ff fffe 	bl	0 <Keyboard_Param_Mech>
C:\tien\PROJEKTY\procesory\STM\T104_V100a_GASTOP\sources/gui.c:2652
                    Variable_Editing_Ptr = NULL;
  42:	4b20      	ldr	r3, [pc, #128]	(c4 <Keyboard_Param_Mech+0xc4>)
  44:	2200      	movs	r2, #0
  46:	601a      	str	r2, [r3, #0]
C:\tien\PROJEKTY\procesory\STM\T104_V100a_GASTOP\sources/gui.c:2653
                    Menu_Keys = Menu_Backup_Keys_Set;
  48:	481f      	ldr	r0, [pc, #124]	(c8 <Keyboard_Param_Mech+0xc8>)
  4a:	3203      	adds	r2, #3
  4c:	491f      	ldr	r1, [pc, #124]	(cc <Keyboard_Param_Mech+0xcc>)
  4e:	f7ff fffe 	bl	0 <memcpy>
C:\tien\PROJEKTY\procesory\STM\T104_V100a_GASTOP\sources/gui.c:2654
                    Screen_Number = Screen_Before_Password;;
  52:	4b1f      	ldr	r3, [pc, #124]	(d0 <Keyboard_Param_Mech+0xd0>)
  54:	781a      	ldrb	r2, [r3, #0]
  56:	4b1f      	ldr	r3, [pc, #124]	(d4 <Keyboard_Param_Mech+0xd4>)
  58:	701a      	strb	r2, [r3, #0]
  5a:	e00a      	b.n	72 <Keyboard_Param_Mech+0x72>
C:\tien\PROJEKTY\procesory\STM\T104_V100a_GASTOP\sources/gui.c:2659
                    Reload_Screen = TRUE;
            break;

            case KEY_ENTER:
                   if ( ++Screen_Number == PARAM_STER1 )
  5c:	4a1d      	ldr	r2, [pc, #116]	(d4 <Keyboard_Param_Mech+0xd4>)
  5e:	7813      	ldrb	r3, [r2, #0]
  60:	3301      	adds	r3, #1
  62:	b2db      	uxtb	r3, r3
  64:	2b12      	cmp	r3, #18
  66:	7013      	strb	r3, [r2, #0]
  68:	d101      	bne.n	6e <Keyboard_Param_Mech+0x6e>
C:\tien\PROJEKTY\procesory\STM\T104_V100a_GASTOP\sources/gui.c:2661
                   {
                       Screen_Number = PARAM_MECH1;
  6a:	230e      	movs	r3, #14
  6c:	7013      	strb	r3, [r2, #0]
C:\tien\PROJEKTY\procesory\STM\T104_V100a_GASTOP\sources/gui.c:2663
                   }
                   First_Editable_Variable();
  6e:	f7ff fffe 	bl	0 <Keyboard_Param_Mech>
C:\tien\PROJEKTY\procesory\STM\T104_V100a_GASTOP\sources/gui.c:2664
                   Reload_Screen = TRUE;
  72:	4b19      	ldr	r3, [pc, #100]	(d8 <Keyboard_Param_Mech+0xd8>)
  74:	2201      	movs	r2, #1
  76:	701a      	strb	r2, [r3, #0]
  78:	e017      	b.n	aa <Keyboard_Param_Mech+0xaa>
C:\tien\PROJEKTY\procesory\STM\T104_V100a_GASTOP\sources/gui.c:2668
            break;

            case KEY_DOWN:
              if ( ++Count_Add == Variable_Editing_Ptr->Var_Param_Ptr->Variable_Digits_Count )
  7a:	4918      	ldr	r1, [pc, #96]	(dc <Keyboard_Param_Mech+0xdc>)
  7c:	4b11      	ldr	r3, [pc, #68]	(c4 <Keyboard_Param_Mech+0xc4>)
  7e:	780a      	ldrb	r2, [r1, #0]
  80:	681b      	ldr	r3, [r3, #0]
  82:	3201      	adds	r2, #1
  84:	b2d2      	uxtb	r2, r2
  86:	700a      	strb	r2, [r1, #0]
  88:	68db      	ldr	r3, [r3, #12]
  8a:	789b      	ldrb	r3, [r3, #2]
  8c:	4293      	cmp	r3, r2
  8e:	d1f0      	bne.n	72 <Keyboard_Param_Mech+0x72>
C:\tien\PROJEKTY\procesory\STM\T104_V100a_GASTOP\sources/gui.c:2670
              {
                  Count_Add = 0;
  90:	2300      	movs	r3, #0
  92:	700b      	strb	r3, [r1, #0]
  94:	e7ed      	b.n	72 <Keyboard_Param_Mech+0x72>
C:\tien\PROJEKTY\procesory\STM\T104_V100a_GASTOP\sources/gui.c:2676
              }
              Reload_Screen = TRUE;  
            break;
          
            case KEY_UP:
              Count_Add = 0;
  96:	4b11      	ldr	r3, [pc, #68]	(dc <Keyboard_Param_Mech+0xdc>)
  98:	2200      	movs	r2, #0
  9a:	701a      	strb	r2, [r3, #0]
C:\tien\PROJEKTY\procesory\STM\T104_V100a_GASTOP\sources/gui.c:2677
              if ( Next_Editable_Variable() == FALSE )
  9c:	f7ff fffe 	bl	0 <Keyboard_Param_Mech>
  a0:	2800      	cmp	r0, #0
  a2:	d1e6      	bne.n	72 <Keyboard_Param_Mech+0x72>
  a4:	e7e3      	b.n	6e <Keyboard_Param_Mech+0x6e>
C:\tien\PROJEKTY\procesory\STM\T104_V100a_GASTOP\sources/gui.c:2685
              }
              Reload_Screen = TRUE;
            break;

            default:
                Keyboard_Edit_Variable();
  a6:	f7ff fffe 	bl	0 <Keyboard_Param_Mech>
C:\tien\PROJEKTY\procesory\STM\T104_V100a_GASTOP\sources/gui.c:2688
            break;
        }
        Keyboard.Keyboard_Flag = 0;
  aa:	4b04      	ldr	r3, [pc, #16]	(bc <Keyboard_Param_Mech+0xbc>)
  ac:	2200      	movs	r2, #0
  ae:	709a      	strb	r2, [r3, #2]
C:\tien\PROJEKTY\procesory\STM\T104_V100a_GASTOP\sources/gui.c:2691
    }

    if ( Keyboard.Keyboard_State == 0 )
  b0:	4a02      	ldr	r2, [pc, #8]	(bc <Keyboard_Param_Mech+0xbc>)
  b2:	7853      	ldrb	r3, [r2, #1]
  b4:	b903      	cbnz	r3, b8 <Keyboard_Param_Mech+0xb8>
C:\tien\PROJEKTY\procesory\STM\T104_V100a_GASTOP\sources/gui.c:2693
    {
        Keyboard.Keyboard_Memory = 0;
  b6:	7013      	strb	r3, [r2, #0]
C:\tien\PROJEKTY\procesory\STM\T104_V100a_GASTOP\sources/gui.c:2695
    }
}
  b8:	bd10      	pop	{r4, pc}
  ba:	46c0      	nop			(mov r8, r8)
	...
  c8:	00000011 	.word	0x00000011
	...
Disassembly of section .text.Keyboard_RTC:

00000000 <Keyboard_RTC>:
Keyboard_RTC():
C:\tien\PROJEKTY\procesory\STM\T104_V100a_GASTOP\sources/gui.c:3015
* Input          : None
* Output         : None
* Return         : None
*******************************************************************************/
static void Keyboard_RTC ( void )
{
   0:	b510      	push	{r4, lr}
C:\tien\PROJEKTY\procesory\STM\T104_V100a_GASTOP\sources/gui.c:3016
    if ( Keyboard.Keyboard_Memory != 0 && Keyboard.Keyboard_Flag == 1 )
   2:	4a20      	ldr	r2, [pc, #128]	(84 <Keyboard_RTC+0x84>)
   4:	7813      	ldrb	r3, [r2, #0]
   6:	2b00      	cmp	r3, #0
   8:	d037      	beq.n	7a <Keyboard_RTC+0x7a>
   a:	7894      	ldrb	r4, [r2, #2]
   c:	2c01      	cmp	r4, #1
   e:	d134      	bne.n	7a <Keyboard_RTC+0x7a>
C:\tien\PROJEKTY\procesory\STM\T104_V100a_GASTOP\sources/gui.c:3018
    {
        switch ( Keyboard.Keyboard_Memory )
  10:	2b08      	cmp	r3, #8
  12:	d021      	beq.n	58 <Keyboard_RTC+0x58>
  14:	2b20      	cmp	r3, #32
  16:	d011      	beq.n	3c <Keyboard_RTC+0x3c>
  18:	2b02      	cmp	r3, #2
  1a:	d129      	bne.n	70 <Keyboard_RTC+0x70>
C:\tien\PROJEKTY\procesory\STM\T104_V100a_GASTOP\sources/gui.c:3021
        {
            case KEY_ESCAPE:
                    Write_Settings();
  1c:	f7ff fffe 	bl	0 <Keyboard_RTC>
C:\tien\PROJEKTY\procesory\STM\T104_V100a_GASTOP\sources/gui.c:3022
                    Variable_Editing_Ptr = NULL;
  20:	4b19      	ldr	r3, [pc, #100]	(88 <Keyboard_RTC+0x88>)
  22:	2200      	movs	r2, #0
  24:	601a      	str	r2, [r3, #0]
C:\tien\PROJEKTY\procesory\STM\T104_V100a_GASTOP\sources/gui.c:3023
                    Menu_Keys = Menu_Backup_Keys_Set;
  26:	4819      	ldr	r0, [pc, #100]	(8c <Keyboard_RTC+0x8c>)
  28:	3203      	adds	r2, #3
  2a:	4919      	ldr	r1, [pc, #100]	(90 <Keyboard_RTC+0x90>)
  2c:	f7ff fffe 	bl	0 <memcpy>
C:\tien\PROJEKTY\procesory\STM\T104_V100a_GASTOP\sources/gui.c:3024
                    Screen_Number = UST_STER;
  30:	4b18      	ldr	r3, [pc, #96]	(94 <Keyboard_RTC+0x94>)
  32:	2204      	movs	r2, #4
  34:	701a      	strb	r2, [r3, #0]
C:\tien\PROJEKTY\procesory\STM\T104_V100a_GASTOP\sources/gui.c:3025
                    Reload_Screen = TRUE;
  36:	4b18      	ldr	r3, [pc, #96]	(98 <Keyboard_RTC+0x98>)
  38:	701c      	strb	r4, [r3, #0]
  3a:	e01b      	b.n	74 <Keyboard_RTC+0x74>
C:\tien\PROJEKTY\procesory\STM\T104_V100a_GASTOP\sources/gui.c:3029
            break;

            case KEY_DOWN:
              if ( ++Count_Add == Variable_Editing_Ptr->Var_Param_Ptr->Variable_Digits_Count )
  3c:	4917      	ldr	r1, [pc, #92]	(9c <Keyboard_RTC+0x9c>)
  3e:	4b12      	ldr	r3, [pc, #72]	(88 <Keyboard_RTC+0x88>)
  40:	780a      	ldrb	r2, [r1, #0]
  42:	681b      	ldr	r3, [r3, #0]
  44:	3201      	adds	r2, #1
  46:	b2d2      	uxtb	r2, r2
  48:	700a      	strb	r2, [r1, #0]
  4a:	68db      	ldr	r3, [r3, #12]
  4c:	789b      	ldrb	r3, [r3, #2]
  4e:	4293      	cmp	r3, r2
  50:	d10a      	bne.n	68 <Keyboard_RTC+0x68>
C:\tien\PROJEKTY\procesory\STM\T104_V100a_GASTOP\sources/gui.c:3031
              {
                  Count_Add = 0;
  52:	2300      	movs	r3, #0
  54:	700b      	strb	r3, [r1, #0]
  56:	e007      	b.n	68 <Keyboard_RTC+0x68>
C:\tien\PROJEKTY\procesory\STM\T104_V100a_GASTOP\sources/gui.c:3037
              }
              Reload_Screen = TRUE;  
            break;
          
            case KEY_UP:
              Count_Add = 0;
  58:	4b10      	ldr	r3, [pc, #64]	(9c <Keyboard_RTC+0x9c>)
  5a:	2200      	movs	r2, #0
  5c:	701a      	strb	r2, [r3, #0]
C:\tien\PROJEKTY\procesory\STM\T104_V100a_GASTOP\sources/gui.c:3038
              if ( Next_Editable_Variable() == FALSE )
  5e:	f7ff fffe 	bl	0 <Keyboard_RTC>
  62:	b908      	cbnz	r0, 6 <Keyboard_RTC+0x6>
C:\tien\PROJEKTY\procesory\STM\T104_V100a_GASTOP\sources/gui.c:3040
              {
                  First_Editable_Variable();
  64:	f7ff fffe 	bl	0 <Keyboard_RTC>
C:\tien\PROJEKTY\procesory\STM\T104_V100a_GASTOP\sources/gui.c:3042
              }
              Reload_Screen = TRUE;
  68:	4b0b      	ldr	r3, [pc, #44]	(98 <Keyboard_RTC+0x98>)
  6a:	2201      	movs	r2, #1
  6c:	701a      	strb	r2, [r3, #0]
  6e:	e001      	b.n	74 <Keyboard_RTC+0x74>
C:\tien\PROJEKTY\procesory\STM\T104_V100a_GASTOP\sources/gui.c:3046
            break;

            default:
                Keyboard_Edit_Variable();
  70:	f7ff fffe 	bl	0 <Keyboard_RTC>
C:\tien\PROJEKTY\procesory\STM\T104_V100a_GASTOP\sources/gui.c:3049
            break;
        }
        Keyboard.Keyboard_Flag = 0;
  74:	4b03      	ldr	r3, [pc, #12]	(84 <Keyboard_RTC+0x84>)
  76:	2200      	movs	r2, #0
  78:	709a      	strb	r2, [r3, #2]
C:\tien\PROJEKTY\procesory\STM\T104_V100a_GASTOP\sources/gui.c:3052
    }

    if ( Keyboard.Keyboard_State == 0 )
  7a:	4a02      	ldr	r2, [pc, #8]	(84 <Keyboard_RTC+0x84>)
  7c:	7853      	ldrb	r3, [r2, #1]
  7e:	b903      	cbnz	r3, 82 <Keyboard_RTC+0x82>
C:\tien\PROJEKTY\procesory\STM\T104_V100a_GASTOP\sources/gui.c:3054
    {
        Keyboard.Keyboard_Memory = 0;
  80:	7013      	strb	r3, [r2, #0]
C:\tien\PROJEKTY\procesory\STM\T104_V100a_GASTOP\sources/gui.c:3056
    }
}
  82:	bd10      	pop	{r4, pc}
	...
  8c:	00000011 	.word	0x00000011
	...
Disassembly of section .text.Keyboard_Lock:

00000000 <Keyboard_Lock>:
Keyboard_Lock():
C:\tien\PROJEKTY\procesory\STM\T104_V100a_GASTOP\sources/gui.c:2948
* Input          : None
* Output         : None
* Return         : None
*******************************************************************************/
static void Keyboard_Lock ( void )
{
   0:	b570      	push	{r4, r5, r6, lr}
C:\tien\PROJEKTY\procesory\STM\T104_V100a_GASTOP\sources/gui.c:2949
    if ( Keyboard.Keyboard_Memory != 0 && Keyboard.Keyboard_Flag == 1 )
   2:	4a2f      	ldr	r2, [pc, #188]	(c0 <Keyboard_Lock+0xc0>)
   4:	7813      	ldrb	r3, [r2, #0]
   6:	2b00      	cmp	r3, #0
   8:	d055      	beq.n	b6 <Keyboard_Lock+0xb6>
   a:	7896      	ldrb	r6, [r2, #2]
   c:	2e01      	cmp	r6, #1
   e:	d152      	bne.n	b6 <Keyboard_Lock+0xb6>
C:\tien\PROJEKTY\procesory\STM\T104_V100a_GASTOP\sources/gui.c:2951
    {
        switch ( Keyboard.Keyboard_Memory )
  10:	2b08      	cmp	r3, #8
  12:	d03f      	beq.n	94 <Keyboard_Lock+0x94>
  14:	2b20      	cmp	r3, #32
  16:	d02f      	beq.n	78 <Keyboard_Lock+0x78>
  18:	2b02      	cmp	r3, #2
  1a:	d147      	bne.n	ac <Keyboard_Lock+0xac>
C:\tien\PROJEKTY\procesory\STM\T104_V100a_GASTOP\sources/gui.c:2954
        {
            case KEY_ESCAPE:
                    Lock_Date_Now_Tmp = Date_2_Days ( Date.Date_Vars.Year, Date.Date_Vars.Month, Date.Date_Vars.Day );
  1c:	4b29      	ldr	r3, [pc, #164]	(c4 <Keyboard_Lock+0xc4>)
  1e:	4c2a      	ldr	r4, [pc, #168]	(c8 <Keyboard_Lock+0xc8>)
  20:	7919      	ldrb	r1, [r3, #4]
  22:	78da      	ldrb	r2, [r3, #3]
  24:	8818      	ldrh	r0, [r3, #0]
  26:	f7ff fffe 	bl	0 <Date_2_Days>
C:\tien\PROJEKTY\procesory\STM\T104_V100a_GASTOP\sources/gui.c:2955
                    Lock_Date_Set_Tmp = Date_2_Days ( Service_Variables_Set.Serv_Vars.Blokada_rok, Service_Variables_Set.Serv_Vars.Blokada_miesiac, Service_Variables_Set.Serv_Vars.Blokada_dzien );
  2a:	4d28      	ldr	r5, [pc, #160]	(cc <Keyboard_Lock+0xcc>)
C:\tien\PROJEKTY\procesory\STM\T104_V100a_GASTOP\sources/gui.c:2954
    if ( Keyboard.Keyboard_Memory != 0 && Keyboard.Keyboard_Flag == 1 )
    {
        switch ( Keyboard.Keyboard_Memory )
        {
            case KEY_ESCAPE:
                    Lock_Date_Now_Tmp = Date_2_Days ( Date.Date_Vars.Year, Date.Date_Vars.Month, Date.Date_Vars.Day );
  2c:	62a0      	str	r0, [r4, #40]
C:\tien\PROJEKTY\procesory\STM\T104_V100a_GASTOP\sources/gui.c:2955
                    Lock_Date_Set_Tmp = Date_2_Days ( Service_Variables_Set.Serv_Vars.Blokada_rok, Service_Variables_Set.Serv_Vars.Blokada_miesiac, Service_Variables_Set.Serv_Vars.Blokada_dzien );
  2e:	7f2a      	ldrb	r2, [r5, #28]
  30:	8be8      	ldrh	r0, [r5, #30]
  32:	7f69      	ldrb	r1, [r5, #29]
  34:	f7ff fffe 	bl	0 <Date_2_Days>
C:\tien\PROJEKTY\procesory\STM\T104_V100a_GASTOP\sources/gui.c:2956
                    Lock_Interval_Tmp = Lock_Date_Set_Tmp - Lock_Date_Now_Tmp;; 
  38:	6aa3      	ldr	r3, [r4, #40]
C:\tien\PROJEKTY\procesory\STM\T104_V100a_GASTOP\sources/gui.c:2955
    {
        switch ( Keyboard.Keyboard_Memory )
        {
            case KEY_ESCAPE:
                    Lock_Date_Now_Tmp = Date_2_Days ( Date.Date_Vars.Year, Date.Date_Vars.Month, Date.Date_Vars.Day );
                    Lock_Date_Set_Tmp = Date_2_Days ( Service_Variables_Set.Serv_Vars.Blokada_rok, Service_Variables_Set.Serv_Vars.Blokada_miesiac, Service_Variables_Set.Serv_Vars.Blokada_dzien );
  3a:	62e0      	str	r0, [r4, #44]
C:\tien\PROJEKTY\procesory\STM\T104_V100a_GASTOP\sources/gui.c:2956
                    Lock_Interval_Tmp = Lock_Date_Set_Tmp - Lock_Date_Now_Tmp;; 
  3c:	1ac2      	subs	r2, r0, r3
C:\tien\PROJEKTY\procesory\STM\T104_V100a_GASTOP\sources/gui.c:2958

                    if ( Lock_Date_Set_Tmp < Lock_Date_Now_Tmp )
  3e:	4298      	cmp	r0, r3
C:\tien\PROJEKTY\procesory\STM\T104_V100a_GASTOP\sources/gui.c:2956
        switch ( Keyboard.Keyboard_Memory )
        {
            case KEY_ESCAPE:
                    Lock_Date_Now_Tmp = Date_2_Days ( Date.Date_Vars.Year, Date.Date_Vars.Month, Date.Date_Vars.Day );
                    Lock_Date_Set_Tmp = Date_2_Days ( Service_Variables_Set.Serv_Vars.Blokada_rok, Service_Variables_Set.Serv_Vars.Blokada_miesiac, Service_Variables_Set.Serv_Vars.Blokada_dzien );
                    Lock_Interval_Tmp = Lock_Date_Set_Tmp - Lock_Date_Now_Tmp;; 
  40:	6322      	str	r2, [r4, #48]
C:\tien\PROJEKTY\procesory\STM\T104_V100a_GASTOP\sources/gui.c:2958

                    if ( Lock_Date_Set_Tmp < Lock_Date_Now_Tmp )
  42:	d204      	bcs.n	4e <Keyboard_Lock+0x4e>
C:\tien\PROJEKTY\procesory\STM\T104_V100a_GASTOP\sources/gui.c:2960
                    {
                        Service_Variables_Set.Serv_Vars.Marker_Blokady = STER_ODBLOKOWANY;
  44:	2300      	movs	r3, #0
  46:	f885 3021 	strb.w	r3, [r5, #33]
C:\tien\PROJEKTY\procesory\STM\T104_V100a_GASTOP\sources/gui.c:2961
                        Service_Variables_Set.Serv_Vars.Blokada = 1;
  4a:	722e      	strb	r6, [r5, #8]
  4c:	e006      	b.n	5c <Keyboard_Lock+0x5c>
C:\tien\PROJEKTY\procesory\STM\T104_V100a_GASTOP\sources/gui.c:2965
                    }
                    else
                    {
                        Service_Variables_Set.Serv_Vars.Lock_Counter = 0;
  4e:	f04f 0300 	mov.w	r3, #0	; 0x0
  52:	84eb      	strh	r3, [r5, #38]
C:\tien\PROJEKTY\procesory\STM\T104_V100a_GASTOP\sources/gui.c:2967
                        Service_Variables_Set.Serv_Vars.Lock_Interval = Lock_Interval_Tmp;
                        Service_Variables_Set.Serv_Vars.Marker_Blokady = STER_BLOKOWANY;
  54:	2303      	movs	r3, #3
C:\tien\PROJEKTY\procesory\STM\T104_V100a_GASTOP\sources/gui.c:2966
                        Service_Variables_Set.Serv_Vars.Blokada = 1;
                    }
                    else
                    {
                        Service_Variables_Set.Serv_Vars.Lock_Counter = 0;
                        Service_Variables_Set.Serv_Vars.Lock_Interval = Lock_Interval_Tmp;
  56:	84aa      	strh	r2, [r5, #36]
C:\tien\PROJEKTY\procesory\STM\T104_V100a_GASTOP\sources/gui.c:2967
                        Service_Variables_Set.Serv_Vars.Marker_Blokady = STER_BLOKOWANY;
  58:	f885 3021 	strb.w	r3, [r5, #33]
C:\tien\PROJEKTY\procesory\STM\T104_V100a_GASTOP\sources/gui.c:2970
                    }
                
                    Write_Settings();
  5c:	f7ff fffe 	bl	0 <Keyboard_Lock>
C:\tien\PROJEKTY\procesory\STM\T104_V100a_GASTOP\sources/gui.c:2971
                    Variable_Editing_Ptr = NULL;
  60:	4b1b      	ldr	r3, [pc, #108]	(d0 <Keyboard_Lock+0xd0>)
  62:	2200      	movs	r2, #0
  64:	601a      	str	r2, [r3, #0]
C:\tien\PROJEKTY\procesory\STM\T104_V100a_GASTOP\sources/gui.c:2972
                    Menu_Keys = Menu_Backup_Keys_Set;
  66:	481b      	ldr	r0, [pc, #108]	(d4 <Keyboard_Lock+0xd4>)
  68:	3203      	adds	r2, #3
  6a:	491b      	ldr	r1, [pc, #108]	(d8 <Keyboard_Lock+0xd8>)
  6c:	f7ff fffe 	bl	0 <memcpy>
C:\tien\PROJEKTY\procesory\STM\T104_V100a_GASTOP\sources/gui.c:2973
                    Screen_Number = UST_STER;
  70:	4b1a      	ldr	r3, [pc, #104]	(dc <Keyboard_Lock+0xdc>)
  72:	2204      	movs	r2, #4
  74:	701a      	strb	r2, [r3, #0]
  76:	e015      	b.n	a4 <Keyboard_Lock+0xa4>
C:\tien\PROJEKTY\procesory\STM\T104_V100a_GASTOP\sources/gui.c:2978
                    Reload_Screen = TRUE;
            break;

            case KEY_DOWN:
              if ( ++Count_Add == Variable_Editing_Ptr->Var_Param_Ptr->Variable_Digits_Count )
  78:	4919      	ldr	r1, [pc, #100]	(e0 <Keyboard_Lock+0xe0>)
  7a:	4b15      	ldr	r3, [pc, #84]	(d0 <Keyboard_Lock+0xd0>)
  7c:	780a      	ldrb	r2, [r1, #0]
  7e:	681b      	ldr	r3, [r3, #0]
  80:	3201      	adds	r2, #1
  82:	b2d2      	uxtb	r2, r2
  84:	700a      	strb	r2, [r1, #0]
  86:	68db      	ldr	r3, [r3, #12]
  88:	789b      	ldrb	r3, [r3, #2]
  8a:	4293      	cmp	r3, r2
  8c:	d10a      	bne.n	a4 <Keyboard_Lock+0xa4>
C:\tien\PROJEKTY\procesory\STM\T104_V100a_GASTOP\sources/gui.c:2980
              {
                  Count_Add = 0;
  8e:	2300      	movs	r3, #0
  90:	700b      	strb	r3, [r1, #0]
  92:	e007      	b.n	a4 <Keyboard_Lock+0xa4>
C:\tien\PROJEKTY\procesory\STM\T104_V100a_GASTOP\sources/gui.c:2986
              }
              Reload_Screen = TRUE;  
            break;
          
            case KEY_UP:
              Count_Add = 0;
  94:	4b12      	ldr	r3, [pc, #72]	(e0 <Keyboard_Lock+0xe0>)
  96:	2200      	movs	r2, #0
  98:	701a      	strb	r2, [r3, #0]
C:\tien\PROJEKTY\procesory\STM\T104_V100a_GASTOP\sources/gui.c:2987
              if ( Next_Editable_Variable() == FALSE )
  9a:	f7ff fffe 	bl	0 <Keyboard_Lock>
  9e:	b908      	cbnz	r0, 6 <Keyboard_Lock+0x6>
C:\tien\PROJEKTY\procesory\STM\T104_V100a_GASTOP\sources/gui.c:2989
              {
                  First_Editable_Variable();
  a0:	f7ff fffe 	bl	0 <Keyboard_Lock>
C:\tien\PROJEKTY\procesory\STM\T104_V100a_GASTOP\sources/gui.c:2991
              }
              Reload_Screen = TRUE;
  a4:	4b0f      	ldr	r3, [pc, #60]	(e4 <Keyboard_Lock+0xe4>)
  a6:	2201      	movs	r2, #1
  a8:	701a      	strb	r2, [r3, #0]
  aa:	e001      	b.n	b0 <Keyboard_Lock+0xb0>
C:\tien\PROJEKTY\procesory\STM\T104_V100a_GASTOP\sources/gui.c:2995
            break;

            default:
                Keyboard_Edit_Variable();
  ac:	f7ff fffe 	bl	0 <Keyboard_Lock>
C:\tien\PROJEKTY\procesory\STM\T104_V100a_GASTOP\sources/gui.c:2998
            break;
        }
        Keyboard.Keyboard_Flag = 0;
  b0:	4b03      	ldr	r3, [pc, #12]	(c0 <Keyboard_Lock+0xc0>)
  b2:	2200      	movs	r2, #0
  b4:	709a      	strb	r2, [r3, #2]
C:\tien\PROJEKTY\procesory\STM\T104_V100a_GASTOP\sources/gui.c:3001
    }

    if ( Keyboard.Keyboard_State == 0 )
  b6:	4a02      	ldr	r2, [pc, #8]	(c0 <Keyboard_Lock+0xc0>)
  b8:	7853      	ldrb	r3, [r2, #1]
  ba:	b903      	cbnz	r3, be <Keyboard_Lock+0xbe>
C:\tien\PROJEKTY\procesory\STM\T104_V100a_GASTOP\sources/gui.c:3003
    {
        Keyboard.Keyboard_Memory = 0;
  bc:	7013      	strb	r3, [r2, #0]
C:\tien\PROJEKTY\procesory\STM\T104_V100a_GASTOP\sources/gui.c:3005
    }
}
  be:	bd70      	pop	{r4, r5, r6, pc}
	...
  d4:	00000011 	.word	0x00000011
	...
Disassembly of section .text.Keyboard_Passwd:

00000000 <Keyboard_Passwd>:
Keyboard_Passwd():
C:\tien\PROJEKTY\procesory\STM\T104_V100a_GASTOP\sources/gui.c:2892
* Input          : None
* Output         : None
* Return         : None
*******************************************************************************/
static void Keyboard_Passwd ( void )
{
   0:	b510      	push	{r4, lr}
C:\tien\PROJEKTY\procesory\STM\T104_V100a_GASTOP\sources/gui.c:2893
    if ( Keyboard.Keyboard_Memory != 0 && Keyboard.Keyboard_Flag == 1 )
   2:	4a24      	ldr	r2, [pc, #144]	(94 <Keyboard_Passwd+0x94>)
   4:	7813      	ldrb	r3, [r2, #0]
   6:	2b00      	cmp	r3, #0
   8:	d03e      	beq.n	88 <Keyboard_Passwd+0x88>
   a:	7894      	ldrb	r4, [r2, #2]
   c:	2c01      	cmp	r4, #1
   e:	d13b      	bne.n	88 <Keyboard_Passwd+0x88>
C:\tien\PROJEKTY\procesory\STM\T104_V100a_GASTOP\sources/gui.c:2895
    {
        switch ( Keyboard.Keyboard_Memory )
  10:	2b08      	cmp	r3, #8
  12:	d028      	beq.n	66 <Keyboard_Passwd+0x66>
  14:	2b20      	cmp	r3, #32
  16:	d018      	beq.n	4a <Keyboard_Passwd+0x4a>
  18:	2b02      	cmp	r3, #2
  1a:	d130      	bne.n	7e <Keyboard_Passwd+0x7e>
C:\tien\PROJEKTY\procesory\STM\T104_V100a_GASTOP\sources/gui.c:2898
        {
            case KEY_ESCAPE:
                    Write_Settings();
  1c:	f7ff fffe 	bl	0 <Keyboard_Passwd>
C:\tien\PROJEKTY\procesory\STM\T104_V100a_GASTOP\sources/gui.c:2900
            
                    Service_Variables.Serv_Vars.Blok_Dostep_Pozostalo = Service_Variables.Serv_Vars.Ilosc_Prob_Dostepu;
  20:	4b1d      	ldr	r3, [pc, #116]	(98 <Keyboard_Passwd+0x98>)
C:\tien\PROJEKTY\procesory\STM\T104_V100a_GASTOP\sources/gui.c:2904
                    Service_Variables.Serv_Vars.Blok_Prog_Pozostalo = Service_Variables.Serv_Vars.Ilosc_Prob_Blokady;
            
                    Variable_Editing_Ptr = NULL;
                    Menu_Keys = Menu_Backup_Keys_Set;
  22:	481e      	ldr	r0, [pc, #120]	(9c <Keyboard_Passwd+0x9c>)
C:\tien\PROJEKTY\procesory\STM\T104_V100a_GASTOP\sources/gui.c:2900
        switch ( Keyboard.Keyboard_Memory )
        {
            case KEY_ESCAPE:
                    Write_Settings();
            
                    Service_Variables.Serv_Vars.Blok_Dostep_Pozostalo = Service_Variables.Serv_Vars.Ilosc_Prob_Dostepu;
  24:	7a5a      	ldrb	r2, [r3, #9]
C:\tien\PROJEKTY\procesory\STM\T104_V100a_GASTOP\sources/gui.c:2904
                    Service_Variables.Serv_Vars.Blok_Prog_Pozostalo = Service_Variables.Serv_Vars.Ilosc_Prob_Blokady;
            
                    Variable_Editing_Ptr = NULL;
                    Menu_Keys = Menu_Backup_Keys_Set;
  26:	491e      	ldr	r1, [pc, #120]	(a0 <Keyboard_Passwd+0xa0>)
C:\tien\PROJEKTY\procesory\STM\T104_V100a_GASTOP\sources/gui.c:2900
        switch ( Keyboard.Keyboard_Memory )
        {
            case KEY_ESCAPE:
                    Write_Settings();
            
                    Service_Variables.Serv_Vars.Blok_Dostep_Pozostalo = Service_Variables.Serv_Vars.Ilosc_Prob_Dostepu;
  28:	f883 2022 	strb.w	r2, [r3, #34]
C:\tien\PROJEKTY\procesory\STM\T104_V100a_GASTOP\sources/gui.c:2901
                    Service_Variables.Serv_Vars.Blok_Prog_Pozostalo = Service_Variables.Serv_Vars.Ilosc_Prob_Blokady;
  2c:	7a9a      	ldrb	r2, [r3, #10]
  2e:	f883 2023 	strb.w	r2, [r3, #35]
C:\tien\PROJEKTY\procesory\STM\T104_V100a_GASTOP\sources/gui.c:2903
            
                    Variable_Editing_Ptr = NULL;
  32:	4b1c      	ldr	r3, [pc, #112]	(a4 <Keyboard_Passwd+0xa4>)
  34:	2200      	movs	r2, #0
  36:	601a      	str	r2, [r3, #0]
C:\tien\PROJEKTY\procesory\STM\T104_V100a_GASTOP\sources/gui.c:2904
                    Menu_Keys = Menu_Backup_Keys_Set;
  38:	3203      	adds	r2, #3
  3a:	f7ff fffe 	bl	0 <memcpy>
C:\tien\PROJEKTY\procesory\STM\T104_V100a_GASTOP\sources/gui.c:2905
                    Screen_Number = UST_STER;
  3e:	4b1a      	ldr	r3, [pc, #104]	(a8 <Keyboard_Passwd+0xa8>)
  40:	2204      	movs	r2, #4
  42:	701a      	strb	r2, [r3, #0]
C:\tien\PROJEKTY\procesory\STM\T104_V100a_GASTOP\sources/gui.c:2906
                    Reload_Screen = TRUE;
  44:	4b19      	ldr	r3, [pc, #100]	(ac <Keyboard_Passwd+0xac>)
  46:	701c      	strb	r4, [r3, #0]
  48:	e01b      	b.n	82 <Keyboard_Passwd+0x82>
C:\tien\PROJEKTY\procesory\STM\T104_V100a_GASTOP\sources/gui.c:2910
            break;

            case KEY_DOWN:
              if ( ++Count_Add == Variable_Editing_Ptr->Var_Param_Ptr->Variable_Digits_Count )
  4a:	4919      	ldr	r1, [pc, #100]	(b0 <Keyboard_Passwd+0xb0>)
  4c:	4b15      	ldr	r3, [pc, #84]	(a4 <Keyboard_Passwd+0xa4>)
  4e:	780a      	ldrb	r2, [r1, #0]
  50:	681b      	ldr	r3, [r3, #0]
  52:	3201      	adds	r2, #1
  54:	b2d2      	uxtb	r2, r2
  56:	700a      	strb	r2, [r1, #0]
  58:	68db      	ldr	r3, [r3, #12]
  5a:	789b      	ldrb	r3, [r3, #2]
  5c:	4293      	cmp	r3, r2
  5e:	d10a      	bne.n	76 <Keyboard_Passwd+0x76>
C:\tien\PROJEKTY\procesory\STM\T104_V100a_GASTOP\sources/gui.c:2912
              {
                  Count_Add = 0;
  60:	2300      	movs	r3, #0
  62:	700b      	strb	r3, [r1, #0]
  64:	e007      	b.n	76 <Keyboard_Passwd+0x76>
C:\tien\PROJEKTY\procesory\STM\T104_V100a_GASTOP\sources/gui.c:2918
              }
              Reload_Screen = TRUE;  
            break;
          
            case KEY_UP:
              Count_Add = 0;
  66:	4b12      	ldr	r3, [pc, #72]	(b0 <Keyboard_Passwd+0xb0>)
  68:	2200      	movs	r2, #0
  6a:	701a      	strb	r2, [r3, #0]
C:\tien\PROJEKTY\procesory\STM\T104_V100a_GASTOP\sources/gui.c:2919
              if ( Next_Editable_Variable() == FALSE )
  6c:	f7ff fffe 	bl	0 <Keyboard_Passwd>
  70:	b908      	cbnz	r0, 6 <Keyboard_Passwd+0x6>
C:\tien\PROJEKTY\procesory\STM\T104_V100a_GASTOP\sources/gui.c:2921
              {
                  First_Editable_Variable();
  72:	f7ff fffe 	bl	0 <Keyboard_Passwd>
C:\tien\PROJEKTY\procesory\STM\T104_V100a_GASTOP\sources/gui.c:2923
              }
              Reload_Screen = TRUE;
  76:	4b0d      	ldr	r3, [pc, #52]	(ac <Keyboard_Passwd+0xac>)
  78:	2201      	movs	r2, #1
  7a:	701a      	strb	r2, [r3, #0]
  7c:	e001      	b.n	82 <Keyboard_Passwd+0x82>
C:\tien\PROJEKTY\procesory\STM\T104_V100a_GASTOP\sources/gui.c:2927
            break;

            default:
                Keyboard_Edit_Variable();
  7e:	f7ff fffe 	bl	0 <Keyboard_Passwd>
C:\tien\PROJEKTY\procesory\STM\T104_V100a_GASTOP\sources/gui.c:2930
            break;
        }
        Keyboard.Keyboard_Flag = 0;
  82:	4b04      	ldr	r3, [pc, #16]	(94 <Keyboard_Passwd+0x94>)
  84:	2200      	movs	r2, #0
  86:	709a      	strb	r2, [r3, #2]
C:\tien\PROJEKTY\procesory\STM\T104_V100a_GASTOP\sources/gui.c:2933
    }

    if ( Keyboard.Keyboard_State == 0 )
  88:	4a02      	ldr	r2, [pc, #8]	(94 <Keyboard_Passwd+0x94>)
  8a:	7853      	ldrb	r3, [r2, #1]
  8c:	b903      	cbnz	r3, 90 <Keyboard_Passwd+0x90>
C:\tien\PROJEKTY\procesory\STM\T104_V100a_GASTOP\sources/gui.c:2935
    {
        Keyboard.Keyboard_Memory = 0;
  8e:	7013      	strb	r3, [r2, #0]
C:\tien\PROJEKTY\procesory\STM\T104_V100a_GASTOP\sources/gui.c:2937
    }
}
  90:	bd10      	pop	{r4, pc}
  92:	46c0      	nop			(mov r8, r8)
	...
  9c:	00000011 	.word	0x00000011
	...
Disassembly of section .text.Keyboard_Language:

00000000 <Keyboard_Language>:
Keyboard_Language():
C:\tien\PROJEKTY\procesory\STM\T104_V100a_GASTOP\sources/gui.c:2585
* Input          : None
* Output         : None
* Return         : None
*******************************************************************************/
static void Keyboard_Language ( void )
{
   0:	b510      	push	{r4, lr}
C:\tien\PROJEKTY\procesory\STM\T104_V100a_GASTOP\sources/gui.c:2586
    if ( Keyboard.Keyboard_Memory != 0 && Keyboard.Keyboard_Flag == 1 )
   2:	4a20      	ldr	r2, [pc, #128]	(84 <Keyboard_Language+0x84>)
   4:	7813      	ldrb	r3, [r2, #0]
   6:	2b00      	cmp	r3, #0
   8:	d037      	beq.n	7a <Keyboard_Language+0x7a>
   a:	7894      	ldrb	r4, [r2, #2]
   c:	2c01      	cmp	r4, #1
   e:	d134      	bne.n	7a <Keyboard_Language+0x7a>
C:\tien\PROJEKTY\procesory\STM\T104_V100a_GASTOP\sources/gui.c:2588
    {
        switch ( Keyboard.Keyboard_Memory )
  10:	2b08      	cmp	r3, #8
  12:	d021      	beq.n	58 <Keyboard_Language+0x58>
  14:	2b20      	cmp	r3, #32
  16:	d011      	beq.n	3c <Keyboard_Language+0x3c>
  18:	2b02      	cmp	r3, #2
  1a:	d129      	bne.n	70 <Keyboard_Language+0x70>
C:\tien\PROJEKTY\procesory\STM\T104_V100a_GASTOP\sources/gui.c:2591
        {
            case KEY_ESCAPE:
                    Write_Settings();
  1c:	f7ff fffe 	bl	0 <Keyboard_Language>
C:\tien\PROJEKTY\procesory\STM\T104_V100a_GASTOP\sources/gui.c:2592
                    Variable_Editing_Ptr = NULL;
  20:	4b19      	ldr	r3, [pc, #100]	(88 <Keyboard_Language+0x88>)
  22:	2200      	movs	r2, #0
  24:	601a      	str	r2, [r3, #0]
C:\tien\PROJEKTY\procesory\STM\T104_V100a_GASTOP\sources/gui.c:2593
                    Menu_Keys = Menu_Backup_Keys_Set;
  26:	4819      	ldr	r0, [pc, #100]	(8c <Keyboard_Language+0x8c>)
  28:	3203      	adds	r2, #3
  2a:	4919      	ldr	r1, [pc, #100]	(90 <Keyboard_Language+0x90>)
  2c:	f7ff fffe 	bl	0 <memcpy>
C:\tien\PROJEKTY\procesory\STM\T104_V100a_GASTOP\sources/gui.c:2594
                    Screen_Number = UST_STER;
  30:	4b18      	ldr	r3, [pc, #96]	(94 <Keyboard_Language+0x94>)
  32:	2204      	movs	r2, #4
  34:	701a      	strb	r2, [r3, #0]
C:\tien\PROJEKTY\procesory\STM\T104_V100a_GASTOP\sources/gui.c:2595
                    Reload_Screen = TRUE;
  36:	4b18      	ldr	r3, [pc, #96]	(98 <Keyboard_Language+0x98>)
  38:	701c      	strb	r4, [r3, #0]
  3a:	e01b      	b.n	74 <Keyboard_Language+0x74>
C:\tien\PROJEKTY\procesory\STM\T104_V100a_GASTOP\sources/gui.c:2599
            break;

            case KEY_DOWN:
              if ( ++Count_Add == Variable_Editing_Ptr->Var_Param_Ptr->Variable_Digits_Count )
  3c:	4917      	ldr	r1, [pc, #92]	(9c <Keyboard_Language+0x9c>)
  3e:	4b12      	ldr	r3, [pc, #72]	(88 <Keyboard_Language+0x88>)
  40:	780a      	ldrb	r2, [r1, #0]
  42:	681b      	ldr	r3, [r3, #0]
  44:	3201      	adds	r2, #1
  46:	b2d2      	uxtb	r2, r2
  48:	700a      	strb	r2, [r1, #0]
  4a:	68db      	ldr	r3, [r3, #12]
  4c:	789b      	ldrb	r3, [r3, #2]
  4e:	4293      	cmp	r3, r2
  50:	d10a      	bne.n	68 <Keyboard_Language+0x68>
C:\tien\PROJEKTY\procesory\STM\T104_V100a_GASTOP\sources/gui.c:2601
              {
                  Count_Add = 0;
  52:	2300      	movs	r3, #0
  54:	700b      	strb	r3, [r1, #0]
  56:	e007      	b.n	68 <Keyboard_Language+0x68>
C:\tien\PROJEKTY\procesory\STM\T104_V100a_GASTOP\sources/gui.c:2607
              }
              Reload_Screen = TRUE;  
            break;
          
            case KEY_UP:
              Count_Add = 0;
  58:	4b10      	ldr	r3, [pc, #64]	(9c <Keyboard_Language+0x9c>)
  5a:	2200      	movs	r2, #0
  5c:	701a      	strb	r2, [r3, #0]
C:\tien\PROJEKTY\procesory\STM\T104_V100a_GASTOP\sources/gui.c:2608
              if ( Next_Editable_Variable() == FALSE )
  5e:	f7ff fffe 	bl	0 <Keyboard_Language>
  62:	b908      	cbnz	r0, 6 <Keyboard_Language+0x6>
C:\tien\PROJEKTY\procesory\STM\T104_V100a_GASTOP\sources/gui.c:2610
              {
                  First_Editable_Variable();
  64:	f7ff fffe 	bl	0 <Keyboard_Language>
C:\tien\PROJEKTY\procesory\STM\T104_V100a_GASTOP\sources/gui.c:2612
              }
              Reload_Screen = TRUE;
  68:	4b0b      	ldr	r3, [pc, #44]	(98 <Keyboard_Language+0x98>)
  6a:	2201      	movs	r2, #1
  6c:	701a      	strb	r2, [r3, #0]
  6e:	e001      	b.n	74 <Keyboard_Language+0x74>
C:\tien\PROJEKTY\procesory\STM\T104_V100a_GASTOP\sources/gui.c:2616
            break;

            default:
                Keyboard_Edit_Variable();
  70:	f7ff fffe 	bl	0 <Keyboard_Language>
C:\tien\PROJEKTY\procesory\STM\T104_V100a_GASTOP\sources/gui.c:2619
            break;
        }
        Keyboard.Keyboard_Flag = 0;
  74:	4b03      	ldr	r3, [pc, #12]	(84 <Keyboard_Language+0x84>)
  76:	2200      	movs	r2, #0
  78:	709a      	strb	r2, [r3, #2]
C:\tien\PROJEKTY\procesory\STM\T104_V100a_GASTOP\sources/gui.c:2622
    }

    if ( Keyboard.Keyboard_State == 0 )
  7a:	4a02      	ldr	r2, [pc, #8]	(84 <Keyboard_Language+0x84>)
  7c:	7853      	ldrb	r3, [r2, #1]
  7e:	b903      	cbnz	r3, 82 <Keyboard_Language+0x82>
C:\tien\PROJEKTY\procesory\STM\T104_V100a_GASTOP\sources/gui.c:2624
    {
        Keyboard.Keyboard_Memory = 0;
  80:	7013      	strb	r3, [r2, #0]
C:\tien\PROJEKTY\procesory\STM\T104_V100a_GASTOP\sources/gui.c:2626
    }
}
  82:	bd10      	pop	{r4, pc}
	...
  8c:	00000011 	.word	0x00000011
	...
Disassembly of section .text.Keyboard_Gate:

00000000 <Keyboard_Gate>:
Keyboard_Gate():
C:\tien\PROJEKTY\procesory\STM\T104_V100a_GASTOP\sources/gui.c:2316
* Input          : None
* Output         : None
* Return         : None
*******************************************************************************/
static void Keyboard_Gate ( void )
{
   0:	b510      	push	{r4, lr}
C:\tien\PROJEKTY\procesory\STM\T104_V100a_GASTOP\sources/gui.c:2317
    if ( Keyboard.Keyboard_Memory != 0 && Keyboard.Keyboard_Flag == 1 )
   2:	4a2f      	ldr	r2, [pc, #188]	(c0 <Keyboard_Gate+0xc0>)
   4:	7813      	ldrb	r3, [r2, #0]
   6:	2b00      	cmp	r3, #0
   8:	d054      	beq.n	b4 <Keyboard_Gate+0xb4>
   a:	7890      	ldrb	r0, [r2, #2]
   c:	2801      	cmp	r0, #1
   e:	d151      	bne.n	b4 <Keyboard_Gate+0xb4>
C:\tien\PROJEKTY\procesory\STM\T104_V100a_GASTOP\sources/gui.c:2319
    {
        switch ( Keyboard.Keyboard_Memory )
  10:	2b08      	cmp	r3, #8
  12:	d040      	beq.n	96 <Keyboard_Gate+0x96>
  14:	2b20      	cmp	r3, #32
  16:	d02d      	beq.n	74 <Keyboard_Gate+0x74>
  18:	2b02      	cmp	r3, #2
  1a:	d146      	bne.n	aa <Keyboard_Gate+0xaa>
C:\tien\PROJEKTY\procesory\STM\T104_V100a_GASTOP\sources/gui.c:2322
        {
            case KEY_ESCAPE:
                    Controlling_Variables_Set.Ctrl_Vars.Predkosc_Silnika1 = 30;
  1c:	4929      	ldr	r1, [pc, #164]	(c4 <Keyboard_Gate+0xc4>)
  1e:	221e      	movs	r2, #30
C:\tien\PROJEKTY\procesory\STM\T104_V100a_GASTOP\sources/gui.c:2323
                    Controlling_Variables_Set.Ctrl_Vars.Predkosc_Silnika2 = 20;
  20:	2314      	movs	r3, #20
C:\tien\PROJEKTY\procesory\STM\T104_V100a_GASTOP\sources/gui.c:2322
    if ( Keyboard.Keyboard_Memory != 0 && Keyboard.Keyboard_Flag == 1 )
    {
        switch ( Keyboard.Keyboard_Memory )
        {
            case KEY_ESCAPE:
                    Controlling_Variables_Set.Ctrl_Vars.Predkosc_Silnika1 = 30;
  22:	700a      	strb	r2, [r1, #0]
C:\tien\PROJEKTY\procesory\STM\T104_V100a_GASTOP\sources/gui.c:2324
                    Controlling_Variables_Set.Ctrl_Vars.Predkosc_Silnika2 = 20;
                    Controlling_Variables_Set.Ctrl_Vars.Predkosc_Silnika3 = 30;
  24:	720a      	strb	r2, [r1, #8]
C:\tien\PROJEKTY\procesory\STM\T104_V100a_GASTOP\sources/gui.c:2326
                    Controlling_Variables_Set.Ctrl_Vars.Predkosc_Silnika4 = 20;
                    Service_Variables_Set.Serv_Vars.KOlowrotek = 0;
  26:	4a28      	ldr	r2, [pc, #160]	(c8 <Keyboard_Gate+0xc8>)
C:\tien\PROJEKTY\procesory\STM\T104_V100a_GASTOP\sources/gui.c:2323
    {
        switch ( Keyboard.Keyboard_Memory )
        {
            case KEY_ESCAPE:
                    Controlling_Variables_Set.Ctrl_Vars.Predkosc_Silnika1 = 30;
                    Controlling_Variables_Set.Ctrl_Vars.Predkosc_Silnika2 = 20;
  28:	704b      	strb	r3, [r1, #1]
C:\tien\PROJEKTY\procesory\STM\T104_V100a_GASTOP\sources/gui.c:2325
                    Controlling_Variables_Set.Ctrl_Vars.Predkosc_Silnika3 = 30;
                    Controlling_Variables_Set.Ctrl_Vars.Predkosc_Silnika4 = 20;
  2a:	724b      	strb	r3, [r1, #9]
C:\tien\PROJEKTY\procesory\STM\T104_V100a_GASTOP\sources/gui.c:2326
                    Service_Variables_Set.Serv_Vars.KOlowrotek = 0;
  2c:	2300      	movs	r3, #0
  2e:	7593      	strb	r3, [r2, #22]
C:\tien\PROJEKTY\procesory\STM\T104_V100a_GASTOP\sources/gui.c:2328
                
                    if ( Service_Variables_Set.Serv_Vars.Typ_Bramki == 0 )
  30:	f892 3028 	ldrb.w	r3, [r2, #40]
  34:	b943      	cbnz	r3, 48 <Keyboard_Gate+0x48>
C:\tien\PROJEKTY\procesory\STM\T104_V100a_GASTOP\sources/gui.c:2330
                    {
                        Controlling_Variables_Set.Ctrl_Vars.Predkosc_Silnika1 = 40;
  36:	3328      	adds	r3, #40
  38:	700b      	strb	r3, [r1, #0]
C:\tien\PROJEKTY\procesory\STM\T104_V100a_GASTOP\sources/gui.c:2331
                        Controlling_Variables_Set.Ctrl_Vars.Predkosc_Silnika2 = 33;
  3a:	2321      	movs	r3, #33
  3c:	704b      	strb	r3, [r1, #1]
C:\tien\PROJEKTY\procesory\STM\T104_V100a_GASTOP\sources/gui.c:2332
                        Controlling_Variables_Set.Ctrl_Vars.Predkosc_Silnika3 = 45;
  3e:	330c      	adds	r3, #12
  40:	720b      	strb	r3, [r1, #8]
C:\tien\PROJEKTY\procesory\STM\T104_V100a_GASTOP\sources/gui.c:2333
                        Controlling_Variables_Set.Ctrl_Vars.Predkosc_Silnika4 = 38;                  
  42:	2326      	movs	r3, #38
  44:	724b      	strb	r3, [r1, #9]
  46:	e002      	b.n	4e <Keyboard_Gate+0x4e>
C:\tien\PROJEKTY\procesory\STM\T104_V100a_GASTOP\sources/gui.c:2336
                    }
          
                    if ( Service_Variables_Set.Serv_Vars.Typ_Bramki == 3 )
  48:	2b03      	cmp	r3, #3
C:\tien\PROJEKTY\procesory\STM\T104_V100a_GASTOP\sources/gui.c:2338
                    {                   
                        Service_Variables_Set.Serv_Vars.KOlowrotek = 1;
  4a:	bf08      	it	eq
  4c:	7590      	strbeq	r0, [r2, #22]
C:\tien\PROJEKTY\procesory\STM\T104_V100a_GASTOP\sources/gui.c:2341
                    }
                
                    Write_Settings();
  4e:	f7ff fffe 	bl	0 <Keyboard_Gate>
C:\tien\PROJEKTY\procesory\STM\T104_V100a_GASTOP\sources/gui.c:2342
                    Variable_Editing_Ptr = NULL;
  52:	4b1e      	ldr	r3, [pc, #120]	(cc <Keyboard_Gate+0xcc>)
  54:	2400      	movs	r4, #0
  56:	601c      	str	r4, [r3, #0]
C:\tien\PROJEKTY\procesory\STM\T104_V100a_GASTOP\sources/gui.c:2343
                    Menu_Keys = Menu_Backup_Keys;
  58:	2203      	movs	r2, #3
  5a:	491d      	ldr	r1, [pc, #116]	(d0 <Keyboard_Gate+0xd0>)
  5c:	481d      	ldr	r0, [pc, #116]	(d4 <Keyboard_Gate+0xd4>)
  5e:	f7ff fffe 	bl	0 <memcpy>
C:\tien\PROJEKTY\procesory\STM\T104_V100a_GASTOP\sources/gui.c:2344
                    Stop_Angles_Set();  
  62:	f7ff fffe 	bl	0 <Stop_Angles_Set>
C:\tien\PROJEKTY\procesory\STM\T104_V100a_GASTOP\sources/gui.c:2345
                    Machine_State = STANDBY;
  66:	4b1c      	ldr	r3, [pc, #112]	(d8 <Keyboard_Gate+0xd8>)
C:\tien\PROJEKTY\procesory\STM\T104_V100a_GASTOP\sources/gui.c:2346
                    Screen_Number = MENU;
  68:	2202      	movs	r2, #2
C:\tien\PROJEKTY\procesory\STM\T104_V100a_GASTOP\sources/gui.c:2345
                
                    Write_Settings();
                    Variable_Editing_Ptr = NULL;
                    Menu_Keys = Menu_Backup_Keys;
                    Stop_Angles_Set();  
                    Machine_State = STANDBY;
  6a:	701c      	strb	r4, [r3, #0]
C:\tien\PROJEKTY\procesory\STM\T104_V100a_GASTOP\sources/gui.c:2346
                    Screen_Number = MENU;
  6c:	4b1b      	ldr	r3, [pc, #108]	(dc <Keyboard_Gate+0xdc>)
  6e:	701a      	strb	r2, [r3, #0]
C:\tien\PROJEKTY\procesory\STM\T104_V100a_GASTOP\sources/gui.c:2347
                    Reload_Screen = TRUE;
  70:	3a01      	subs	r2, #1
  72:	e00d      	b.n	90 <Keyboard_Gate+0x90>
C:\tien\PROJEKTY\procesory\STM\T104_V100a_GASTOP\sources/gui.c:2351
            break;

            case KEY_DOWN:
              if ( ++Count_Add == Variable_Editing_Ptr->Var_Param_Ptr->Variable_Digits_Count )
  74:	491a      	ldr	r1, [pc, #104]	(e0 <Keyboard_Gate+0xe0>)
  76:	4b15      	ldr	r3, [pc, #84]	(cc <Keyboard_Gate+0xcc>)
  78:	780a      	ldrb	r2, [r1, #0]
  7a:	681b      	ldr	r3, [r3, #0]
  7c:	3201      	adds	r2, #1
  7e:	b2d2      	uxtb	r2, r2
  80:	700a      	strb	r2, [r1, #0]
  82:	68db      	ldr	r3, [r3, #12]
  84:	789b      	ldrb	r3, [r3, #2]
  86:	4293      	cmp	r3, r2
  88:	d101      	bne.n	8e <Keyboard_Gate+0x8e>
C:\tien\PROJEKTY\procesory\STM\T104_V100a_GASTOP\sources/gui.c:2353
              {
                  Count_Add = 0;
  8a:	2300      	movs	r3, #0
  8c:	700b      	strb	r3, [r1, #0]
C:\tien\PROJEKTY\procesory\STM\T104_V100a_GASTOP\sources/gui.c:2355
              }
              Reload_Screen = TRUE;  
  8e:	2201      	movs	r2, #1
  90:	4b14      	ldr	r3, [pc, #80]	(e4 <Keyboard_Gate+0xe4>)
  92:	701a      	strb	r2, [r3, #0]
  94:	e00b      	b.n	ae <Keyboard_Gate+0xae>
C:\tien\PROJEKTY\procesory\STM\T104_V100a_GASTOP\sources/gui.c:2359
            break;
          
            case KEY_UP:
              Count_Add = 0;
  96:	4b12      	ldr	r3, [pc, #72]	(e0 <Keyboard_Gate+0xe0>)
  98:	2200      	movs	r2, #0
  9a:	701a      	strb	r2, [r3, #0]
C:\tien\PROJEKTY\procesory\STM\T104_V100a_GASTOP\sources/gui.c:2360
              if ( Next_Editable_Variable() == FALSE )
  9c:	f7ff fffe 	bl	0 <Keyboard_Gate>
  a0:	2800      	cmp	r0, #0
  a2:	d1f4      	bne.n	8e <Keyboard_Gate+0x8e>
C:\tien\PROJEKTY\procesory\STM\T104_V100a_GASTOP\sources/gui.c:2362
              {
                  First_Editable_Variable();
  a4:	f7ff fffe 	bl	0 <Keyboard_Gate>
  a8:	e7f1      	b.n	ffffffe6 <Screen_Info+0xffffdd82>
C:\tien\PROJEKTY\procesory\STM\T104_V100a_GASTOP\sources/gui.c:2368
              }
              Reload_Screen = TRUE;
            break;

            default:
                Keyboard_Edit_Variable();
  aa:	f7ff fffe 	bl	0 <Keyboard_Gate>
C:\tien\PROJEKTY\procesory\STM\T104_V100a_GASTOP\sources/gui.c:2371
            break;
        }
        Keyboard.Keyboard_Flag = 0;
  ae:	4b04      	ldr	r3, [pc, #16]	(c0 <Keyboard_Gate+0xc0>)
  b0:	2200      	movs	r2, #0
  b2:	709a      	strb	r2, [r3, #2]
C:\tien\PROJEKTY\procesory\STM\T104_V100a_GASTOP\sources/gui.c:2374
    }

    if ( Keyboard.Keyboard_State == 0 )
  b4:	4a02      	ldr	r2, [pc, #8]	(c0 <Keyboard_Gate+0xc0>)
  b6:	7853      	ldrb	r3, [r2, #1]
  b8:	b903      	cbnz	r3, bc <Keyboard_Gate+0xbc>
C:\tien\PROJEKTY\procesory\STM\T104_V100a_GASTOP\sources/gui.c:2376
    {
        Keyboard.Keyboard_Memory = 0;
  ba:	7013      	strb	r3, [r2, #0]
C:\tien\PROJEKTY\procesory\STM\T104_V100a_GASTOP\sources/gui.c:2378
    }
}
  bc:	bd10      	pop	{r4, pc}
  be:	46c0      	nop			(mov r8, r8)
	...
  d4:	00000011 	.word	0x00000011
	...
Disassembly of section .text.Lock_Handling:

00000000 <Lock_Handling>:
Lock_Handling():
C:\tien\PROJEKTY\procesory\STM\T104_V100a_GASTOP\sources/gui.c:3796
* Input          : None
* Output         : None
* Return         : None
*******************************************************************************/
void Lock_Handling ( void )
{
   0:	b510      	push	{r4, lr}
C:\tien\PROJEKTY\procesory\STM\T104_V100a_GASTOP\sources/gui.c:3797
    if ( Service_Variables.Serv_Vars.Marker_Blokady == STER_BLOKOWANY )
   2:	490c      	ldr	r1, [pc, #48]	(34 <Lock_Handling+0x34>)
   4:	f891 3021 	ldrb.w	r3, [r1, #33]
   8:	2b03      	cmp	r3, #3
   a:	d111      	bne.n	30 <Lock_Handling+0x30>
C:\tien\PROJEKTY\procesory\STM\T104_V100a_GASTOP\sources/gui.c:3799
    {
        if ( Service_Variables.Serv_Vars.Lock_Counter > Service_Variables.Serv_Vars.Lock_Interval )
   c:	8cca      	ldrh	r2, [r1, #38]
   e:	8c8b      	ldrh	r3, [r1, #36]
  10:	429a      	cmp	r2, r3
  12:	d90d      	bls.n	30 <Lock_Handling+0x30>
C:\tien\PROJEKTY\procesory\STM\T104_V100a_GASTOP\sources/gui.c:3801
        {
            Screen_Number = STER_BLOK;
  14:	4b08      	ldr	r3, [pc, #32]	(38 <Lock_Handling+0x38>)
  16:	221f      	movs	r2, #31
  18:	701a      	strb	r2, [r3, #0]
C:\tien\PROJEKTY\procesory\STM\T104_V100a_GASTOP\sources/gui.c:3802
            Machine_State = SW_LOCKED;
  1a:	4b08      	ldr	r3, [pc, #32]	(3c <Lock_Handling+0x3c>)
  1c:	3203      	adds	r2, #3
  1e:	701a      	strb	r2, [r3, #0]
C:\tien\PROJEKTY\procesory\STM\T104_V100a_GASTOP\sources/gui.c:3803
            Screen_After_Password = CONTROLLER_ON;
  20:	4b07      	ldr	r3, [pc, #28]	(40 <Lock_Handling+0x40>)
  22:	2201      	movs	r2, #1
  24:	701a      	strb	r2, [r3, #0]
C:\tien\PROJEKTY\procesory\STM\T104_V100a_GASTOP\sources/gui.c:3804
            Service_Variables_Set.Serv_Vars.Marker_Blokady = STER_ZABLOKOWANY;
  26:	4b07      	ldr	r3, [pc, #28]	(44 <Lock_Handling+0x44>)
  28:	f883 2021 	strb.w	r2, [r3, #33]
C:\tien\PROJEKTY\procesory\STM\T104_V100a_GASTOP\sources/gui.c:3805
            Write_Settings();
  2c:	f7ff fffe 	bl	0 <Lock_Handling>
C:\tien\PROJEKTY\procesory\STM\T104_V100a_GASTOP\sources/gui.c:3808
        }
    }
}
  30:	bd10      	pop	{r4, pc}
  32:	46c0      	nop			(mov r8, r8)
	...
Disassembly of section .text.Update_Lock_Counter:

00000000 <Update_Lock_Counter>:
Update_Lock_Counter():
C:\tien\PROJEKTY\procesory\STM\T104_V100a_GASTOP\sources/gui.c:3735
* Input          : Count to update
* Output         : None
* Return         : None
*******************************************************************************/
void Update_Lock_Counter ( uint16_t Update_Counter )
{
   0:	b510      	push	{r4, lr}
C:\tien\PROJEKTY\procesory\STM\T104_V100a_GASTOP\sources/gui.c:3736
    if ( Service_Variables.Serv_Vars.Marker_Blokady == STER_BLOKOWANY )
   2:	4b06      	ldr	r3, [pc, #24]	(1c <Update_Lock_Counter+0x1c>)
   4:	f893 3021 	ldrb.w	r3, [r3, #33]
   8:	2b03      	cmp	r3, #3
   a:	d105      	bne.n	18 <Update_Lock_Counter+0x18>
C:\tien\PROJEKTY\procesory\STM\T104_V100a_GASTOP\sources/gui.c:3738
    {
        Service_Variables_Set.Serv_Vars.Lock_Counter += Update_Counter;
   c:	4a04      	ldr	r2, [pc, #16]	(20 <Update_Lock_Counter+0x20>)
   e:	8cd3      	ldrh	r3, [r2, #38]
  10:	18c3      	adds	r3, r0, r3
  12:	84d3      	strh	r3, [r2, #38]
C:\tien\PROJEKTY\procesory\STM\T104_V100a_GASTOP\sources/gui.c:3739
        Write_Settings();
  14:	f7ff fffe 	bl	0 <Update_Lock_Counter>
C:\tien\PROJEKTY\procesory\STM\T104_V100a_GASTOP\sources/gui.c:3741
    }
}
  18:	bd10      	pop	{r4, pc}
  1a:	46c0      	nop			(mov r8, r8)
	...
Disassembly of section .text.Read_Settings:

00000000 <Read_Settings>:
Read_Settings():
C:\tien\PROJEKTY\procesory\STM\T104_V100a_GASTOP\sources/gui.c:3626
* Input          : None
* Output         : None
* Return         : None
*******************************************************************************/
void Read_Settings ( void )
{
   0:	b570      	push	{r4, r5, r6, lr}
C:\tien\PROJEKTY\procesory\STM\T104_V100a_GASTOP\sources/gui.c:3630
    uint32_t i;
    uint32_t NoOfWords;

    Flash_Address = EEPROM_BASE_ADDRESS;
   2:	4a4f      	ldr	r2, [pc, #316]	(140 <Read_Settings+0x140>)
   4:	4b4f      	ldr	r3, [pc, #316]	(144 <Read_Settings+0x144>)
   6:	2100      	movs	r1, #0
   8:	601a      	str	r2, [r3, #0]
C:\tien\PROJEKTY\procesory\STM\T104_V100a_GASTOP\sources/gui.c:3635
    NoOfWords = (sizeof ( Service_Variables.Service_Tab )>>2);

    for ( i = 0; i < NoOfWords; i++ )
    {
        Service_Variables.Service_Tab[i] = *(uint32_t*)Flash_Address;
   a:	484e      	ldr	r0, [pc, #312]	(144 <Read_Settings+0x144>)
   c:	6803      	ldr	r3, [r0, #0]
   e:	681a      	ldr	r2, [r3, #0]
  10:	4b4d      	ldr	r3, [pc, #308]	(148 <Read_Settings+0x148>)
  12:	505a      	str	r2, [r3, r1]
C:\tien\PROJEKTY\procesory\STM\T104_V100a_GASTOP\sources/gui.c:3636
        Flash_Address += 4;
  14:	6803      	ldr	r3, [r0, #0]
  16:	3104      	adds	r1, #4
  18:	3304      	adds	r3, #4
C:\tien\PROJEKTY\procesory\STM\T104_V100a_GASTOP\sources/gui.c:3633
    uint32_t NoOfWords;

    Flash_Address = EEPROM_BASE_ADDRESS;
    NoOfWords = (sizeof ( Service_Variables.Service_Tab )>>2);

    for ( i = 0; i < NoOfWords; i++ )
  1a:	2980      	cmp	r1, #128
C:\tien\PROJEKTY\procesory\STM\T104_V100a_GASTOP\sources/gui.c:3636
    {
        Service_Variables.Service_Tab[i] = *(uint32_t*)Flash_Address;
        Flash_Address += 4;
  1c:	6003      	str	r3, [r0, #0]
C:\tien\PROJEKTY\procesory\STM\T104_V100a_GASTOP\sources/gui.c:3633
    uint32_t NoOfWords;

    Flash_Address = EEPROM_BASE_ADDRESS;
    NoOfWords = (sizeof ( Service_Variables.Service_Tab )>>2);

    for ( i = 0; i < NoOfWords; i++ )
  1e:	d1f4      	bne.n	a <Read_Settings+0xa>
C:\tien\PROJEKTY\procesory\STM\T104_V100a_GASTOP\sources/gui.c:3639
    {
        Service_Variables.Service_Tab[i] = *(uint32_t*)Flash_Address;
        Flash_Address += 4;
    }

    Flash_Address = EEPROM_BASE_ADDRESS + sizeof ( Service_Variables.Service_Tab );
  20:	4b4a      	ldr	r3, [pc, #296]	(14c <Read_Settings+0x14c>)
  22:	6003      	str	r3, [r0, #0]
  24:	2000      	movs	r0, #0
C:\tien\PROJEKTY\procesory\STM\T104_V100a_GASTOP\sources/gui.c:3644
    NoOfWords = (sizeof ( Controlling_Variables.Variables_Tab ) >> 2);

    for ( i = 0; i < NoOfWords; i++ )
    {
        Controlling_Variables.Variables_Tab[i] = *(uint32_t*)Flash_Address;
  26:	4a47      	ldr	r2, [pc, #284]	(144 <Read_Settings+0x144>)
  28:	6813      	ldr	r3, [r2, #0]
  2a:	6819      	ldr	r1, [r3, #0]
  2c:	4b48      	ldr	r3, [pc, #288]	(150 <Read_Settings+0x150>)
  2e:	5019      	str	r1, [r3, r0]
C:\tien\PROJEKTY\procesory\STM\T104_V100a_GASTOP\sources/gui.c:3645
        Flash_Address += 4;
  30:	6813      	ldr	r3, [r2, #0]
  32:	3004      	adds	r0, #4
  34:	3304      	adds	r3, #4
C:\tien\PROJEKTY\procesory\STM\T104_V100a_GASTOP\sources/gui.c:3642
    }

    Flash_Address = EEPROM_BASE_ADDRESS + sizeof ( Service_Variables.Service_Tab );
    NoOfWords = (sizeof ( Controlling_Variables.Variables_Tab ) >> 2);

    for ( i = 0; i < NoOfWords; i++ )
  36:	2820      	cmp	r0, #32
C:\tien\PROJEKTY\procesory\STM\T104_V100a_GASTOP\sources/gui.c:3645
    {
        Controlling_Variables.Variables_Tab[i] = *(uint32_t*)Flash_Address;
        Flash_Address += 4;
  38:	6013      	str	r3, [r2, #0]
C:\tien\PROJEKTY\procesory\STM\T104_V100a_GASTOP\sources/gui.c:3642
    }

    Flash_Address = EEPROM_BASE_ADDRESS + sizeof ( Service_Variables.Service_Tab );
    NoOfWords = (sizeof ( Controlling_Variables.Variables_Tab ) >> 2);

    for ( i = 0; i < NoOfWords; i++ )
  3a:	d1f4      	bne.n	26 <Read_Settings+0x26>
C:\tien\PROJEKTY\procesory\STM\T104_V100a_GASTOP\sources/gui.c:3649
        Controlling_Variables.Variables_Tab[i] = *(uint32_t*)Flash_Address;
        Flash_Address += 4;
    }

//test on/off
    if ( Service_Variables.Serv_Vars.First_On_Marker != CONTROLLER_PROGRAMMED )
  3c:	4b42      	ldr	r3, [pc, #264]	(148 <Read_Settings+0x148>)
  3e:	f893 3029 	ldrb.w	r3, [r3, #41]
  42:	2ba5      	cmp	r3, #165
  44:	d02a      	beq.n	9c <Read_Settings+0x9c>
C:\tien\PROJEKTY\procesory\STM\T104_V100a_GASTOP\sources/gui.c:3651
    {
        Controller_Variables.Controller_Vars.Test_Marker = 0;//GO_2_TEST_PROGRAM;
  46:	4b43      	ldr	r3, [pc, #268]	(154 <Read_Settings+0x154>)
  48:	f04f 0200 	mov.w	r2, #0	; 0x0
C:\tien\PROJEKTY\procesory\STM\T104_V100a_GASTOP\sources/gui.c:3652
        BKP_WriteBackupRegister(BKP_DR13, Controller_Variables.Controller_Vars.Test_Marker);
  4c:	2100      	movs	r1, #0
C:\tien\PROJEKTY\procesory\STM\T104_V100a_GASTOP\sources/gui.c:3651
    }

//test on/off
    if ( Service_Variables.Serv_Vars.First_On_Marker != CONTROLLER_PROGRAMMED )
    {
        Controller_Variables.Controller_Vars.Test_Marker = 0;//GO_2_TEST_PROGRAM;
  4e:	82da      	strh	r2, [r3, #22]
C:\tien\PROJEKTY\procesory\STM\T104_V100a_GASTOP\sources/gui.c:3652
        BKP_WriteBackupRegister(BKP_DR13, Controller_Variables.Controller_Vars.Test_Marker);
  50:	3028      	adds	r0, #40
  52:	f7ff fffe 	bl	0 <BKP_WriteBackupRegister>
  56:	2100      	movs	r1, #0
C:\tien\PROJEKTY\procesory\STM\T104_V100a_GASTOP\sources/gui.c:3658

        NoOfWords = (sizeof ( Service_Variables.Service_Tab )>>2);
   
        for ( i = 0; i < NoOfWords; i++ )
        {
            Service_Variables.Service_Tab[i] = Settings_Default[i];
  58:	4b3f      	ldr	r3, [pc, #252]	(158 <Read_Settings+0x158>)
  5a:	585a      	ldr	r2, [r3, r1]
  5c:	4b3a      	ldr	r3, [pc, #232]	(148 <Read_Settings+0x148>)
  5e:	505a      	str	r2, [r3, r1]
  60:	3104      	adds	r1, #4
C:\tien\PROJEKTY\procesory\STM\T104_V100a_GASTOP\sources/gui.c:3656
        Controller_Variables.Controller_Vars.Test_Marker = 0;//GO_2_TEST_PROGRAM;
        BKP_WriteBackupRegister(BKP_DR13, Controller_Variables.Controller_Vars.Test_Marker);

        NoOfWords = (sizeof ( Service_Variables.Service_Tab )>>2);
   
        for ( i = 0; i < NoOfWords; i++ )
  62:	2980      	cmp	r1, #128
  64:	d1f8      	bne.n	58 <Read_Settings+0x58>
  66:	2200      	movs	r2, #0
C:\tien\PROJEKTY\procesory\STM\T104_V100a_GASTOP\sources/gui.c:3665
    
        NoOfWords = (sizeof ( Controlling_Variables.Variables_Tab )>>2);
   
        for ( i = 0; i < NoOfWords; i++ )
        {
            Controlling_Variables.Variables_Tab[i] = Controlling_Default[i];
  68:	4b3c      	ldr	r3, [pc, #240]	(15c <Read_Settings+0x15c>)
  6a:	4d39      	ldr	r5, [pc, #228]	(150 <Read_Settings+0x150>)
  6c:	589b      	ldr	r3, [r3, r2]
  6e:	50ab      	str	r3, [r5, r2]
  70:	3204      	adds	r2, #4
C:\tien\PROJEKTY\procesory\STM\T104_V100a_GASTOP\sources/gui.c:3663
            Service_Variables.Service_Tab[i] = Settings_Default[i];
        }
    
        NoOfWords = (sizeof ( Controlling_Variables.Variables_Tab )>>2);
   
        for ( i = 0; i < NoOfWords; i++ )
  72:	2a20      	cmp	r2, #32
  74:	d1f8      	bne.n	68 <Read_Settings+0x68>
C:\tien\PROJEKTY\procesory\STM\T104_V100a_GASTOP\sources/gui.c:3668
        {
            Controlling_Variables.Variables_Tab[i] = Controlling_Default[i];
        } 
        Service_Variables_Set = Service_Variables;
        Controlling_Variables_Set = Controlling_Variables;
  76:	4c3a      	ldr	r4, [pc, #232]	(160 <Read_Settings+0x160>)
C:\tien\PROJEKTY\procesory\STM\T104_V100a_GASTOP\sources/gui.c:3667
   
        for ( i = 0; i < NoOfWords; i++ )
        {
            Controlling_Variables.Variables_Tab[i] = Controlling_Default[i];
        } 
        Service_Variables_Set = Service_Variables;
  78:	4933      	ldr	r1, [pc, #204]	(148 <Read_Settings+0x148>)
  7a:	3260      	adds	r2, #96
  7c:	4839      	ldr	r0, [pc, #228]	(164 <Read_Settings+0x164>)
C:\tien\PROJEKTY\procesory\STM\T104_V100a_GASTOP\sources/gui.c:3668
        Controlling_Variables_Set = Controlling_Variables;
  7e:	4626      	mov	r6, r4
C:\tien\PROJEKTY\procesory\STM\T104_V100a_GASTOP\sources/gui.c:3667
   
        for ( i = 0; i < NoOfWords; i++ )
        {
            Controlling_Variables.Variables_Tab[i] = Controlling_Default[i];
        } 
        Service_Variables_Set = Service_Variables;
  80:	f7ff fffe 	bl	0 <memcpy>
C:\tien\PROJEKTY\procesory\STM\T104_V100a_GASTOP\sources/gui.c:3668
        Controlling_Variables_Set = Controlling_Variables;
  84:	cd0f      	ldmia	r5!, {r0, r1, r2, r3}
  86:	c60f      	stmia	r6!, {r0, r1, r2, r3}
  88:	e895 000f 	ldmia.w	r5, {r0, r1, r2, r3}
  8c:	e886 000f 	stmia.w	r6, {r0, r1, r2, r3}
C:\tien\PROJEKTY\procesory\STM\T104_V100a_GASTOP\sources/gui.c:3669
        Write_Settings();
  90:	f7ff fffe 	bl	0 <Read_Settings>
C:\tien\PROJEKTY\procesory\STM\T104_V100a_GASTOP\sources/gui.c:3670
        BKP_WriteBackupRegister(BKP_DR14, 0x0000);
  94:	204c      	movs	r0, #76
  96:	2100      	movs	r1, #0
  98:	f7ff fffe 	bl	0 <BKP_WriteBackupRegister>
C:\tien\PROJEKTY\procesory\STM\T104_V100a_GASTOP\sources/gui.c:3673
    }

    Counters_Variables.Counters_Vars.No_Goin = 0;
  9c:	4d32      	ldr	r5, [pc, #200]	(168 <Read_Settings+0x168>)
  9e:	2600      	movs	r6, #0
  a0:	602e      	str	r6, [r5, #0]
C:\tien\PROJEKTY\procesory\STM\T104_V100a_GASTOP\sources/gui.c:3674
    Counters_Variables.Counters_Vars.No_Goout = 0;
  a2:	606e      	str	r6, [r5, #4]
C:\tien\PROJEKTY\procesory\STM\T104_V100a_GASTOP\sources/gui.c:3675
    Counters_Variables.Counters_Vars.No_Goin = BKP_ReadBackupRegister(BKP_DR5);
  a4:	2014      	movs	r0, #20
  a6:	f7ff fffe 	bl	0 <BKP_ReadBackupRegister>
C:\tien\PROJEKTY\procesory\STM\T104_V100a_GASTOP\sources/gui.c:3676
    Counters_Variables.Counters_Vars.No_Goin <<= 16;
  aa:	0404      	lsls	r4, r0, #16
  ac:	602c      	str	r4, [r5, #0]
C:\tien\PROJEKTY\procesory\STM\T104_V100a_GASTOP\sources/gui.c:3677
    Counters_Variables.Counters_Vars.No_Goin += BKP_ReadBackupRegister(BKP_DR6);
  ae:	2018      	movs	r0, #24
  b0:	f7ff fffe 	bl	0 <BKP_ReadBackupRegister>
  b4:	1824      	adds	r4, r4, r0
  b6:	602c      	str	r4, [r5, #0]
C:\tien\PROJEKTY\procesory\STM\T104_V100a_GASTOP\sources/gui.c:3678
    Counters_Variables.Counters_Vars.No_Goout = BKP_ReadBackupRegister(BKP_DR7);
  b8:	201c      	movs	r0, #28
  ba:	f7ff fffe 	bl	0 <BKP_ReadBackupRegister>
C:\tien\PROJEKTY\procesory\STM\T104_V100a_GASTOP\sources/gui.c:3679
    Counters_Variables.Counters_Vars.No_Goout <<= 16;
  be:	0404      	lsls	r4, r0, #16
  c0:	606c      	str	r4, [r5, #4]
C:\tien\PROJEKTY\procesory\STM\T104_V100a_GASTOP\sources/gui.c:3680
    Counters_Variables.Counters_Vars.No_Goout += BKP_ReadBackupRegister(BKP_DR8);
  c2:	2020      	movs	r0, #32
  c4:	f7ff fffe 	bl	0 <BKP_ReadBackupRegister>
  c8:	1824      	adds	r4, r4, r0
  ca:	606c      	str	r4, [r5, #4]
C:\tien\PROJEKTY\procesory\STM\T104_V100a_GASTOP\sources/gui.c:3682

    Controller_Variables.Controller_Vars.Software_Version[0] = 1;//(BKP_ReadBackupRegister(BKP_DR9) & 0xFF00) >> 8;
  cc:	4c21      	ldr	r4, [pc, #132]	(154 <Read_Settings+0x154>)
  ce:	f04f 0301 	mov.w	r3, #1	; 0x1
C:\tien\PROJEKTY\procesory\STM\T104_V100a_GASTOP\sources/gui.c:3683
    Controller_Variables.Controller_Vars.Software_Version[1] = 8;//BKP_ReadBackupRegister(BKP_DR9) & 0x00FF;
  d2:	f04f 0208 	mov.w	r2, #8	; 0x8
C:\tien\PROJEKTY\procesory\STM\T104_V100a_GASTOP\sources/gui.c:3682
    Counters_Variables.Counters_Vars.No_Goin += BKP_ReadBackupRegister(BKP_DR6);
    Counters_Variables.Counters_Vars.No_Goout = BKP_ReadBackupRegister(BKP_DR7);
    Counters_Variables.Counters_Vars.No_Goout <<= 16;
    Counters_Variables.Counters_Vars.No_Goout += BKP_ReadBackupRegister(BKP_DR8);

    Controller_Variables.Controller_Vars.Software_Version[0] = 1;//(BKP_ReadBackupRegister(BKP_DR9) & 0xFF00) >> 8;
  d6:	8123      	strh	r3, [r4, #8]
C:\tien\PROJEKTY\procesory\STM\T104_V100a_GASTOP\sources/gui.c:3684
    Controller_Variables.Controller_Vars.Software_Version[1] = 8;//BKP_ReadBackupRegister(BKP_DR9) & 0x00FF;
    Controller_Variables.Controller_Vars.Software_Version[2] = 2;//(BKP_ReadBackupRegister(BKP_DR10) & 0xFF00) >> 8;
  d8:	f04f 0302 	mov.w	r3, #2	; 0x2
C:\tien\PROJEKTY\procesory\STM\T104_V100a_GASTOP\sources/gui.c:3683
    Counters_Variables.Counters_Vars.No_Goout = BKP_ReadBackupRegister(BKP_DR7);
    Counters_Variables.Counters_Vars.No_Goout <<= 16;
    Counters_Variables.Counters_Vars.No_Goout += BKP_ReadBackupRegister(BKP_DR8);

    Controller_Variables.Controller_Vars.Software_Version[0] = 1;//(BKP_ReadBackupRegister(BKP_DR9) & 0xFF00) >> 8;
    Controller_Variables.Controller_Vars.Software_Version[1] = 8;//BKP_ReadBackupRegister(BKP_DR9) & 0x00FF;
  dc:	8162      	strh	r2, [r4, #10]
C:\tien\PROJEKTY\procesory\STM\T104_V100a_GASTOP\sources/gui.c:3684
    Controller_Variables.Controller_Vars.Software_Version[2] = 2;//(BKP_ReadBackupRegister(BKP_DR10) & 0xFF00) >> 8;
  de:	81a3      	strh	r3, [r4, #12]
C:\tien\PROJEKTY\procesory\STM\T104_V100a_GASTOP\sources/gui.c:3685
    Controller_Variables.Controller_Vars.Controller_Date[0] = BKP_ReadBackupRegister(BKP_DR10) & 0x00FF;
  e0:	2028      	movs	r0, #40
  e2:	f7ff fffe 	bl	0 <BKP_ReadBackupRegister>
  e6:	b2c0      	uxtb	r0, r0
  e8:	81e0      	strh	r0, [r4, #14]
C:\tien\PROJEKTY\procesory\STM\T104_V100a_GASTOP\sources/gui.c:3686
    Controller_Variables.Controller_Vars.Controller_Date[1] =(BKP_ReadBackupRegister(BKP_DR11) & 0xFF00) >> 8;
  ea:	2040      	movs	r0, #64
  ec:	f7ff fffe 	bl	0 <BKP_ReadBackupRegister>
  f0:	0a00      	lsrs	r0, r0, #8
  f2:	8220      	strh	r0, [r4, #16]
C:\tien\PROJEKTY\procesory\STM\T104_V100a_GASTOP\sources/gui.c:3687
    Controller_Variables.Controller_Vars.Controller_Date[2] = BKP_ReadBackupRegister(BKP_DR11) & 0x00FF;
  f4:	2040      	movs	r0, #64
  f6:	f7ff fffe 	bl	0 <BKP_ReadBackupRegister>
  fa:	b2c0      	uxtb	r0, r0
  fc:	8260      	strh	r0, [r4, #18]
C:\tien\PROJEKTY\procesory\STM\T104_V100a_GASTOP\sources/gui.c:3688
    Controller_Variables.Controller_Vars.Serial_Number = BKP_ReadBackupRegister(BKP_DR12);
  fe:	2044      	movs	r0, #68
 100:	f7ff fffe 	bl	0 <BKP_ReadBackupRegister>
 104:	82a0      	strh	r0, [r4, #20]
C:\tien\PROJEKTY\procesory\STM\T104_V100a_GASTOP\sources/gui.c:3689
    Controller_Variables.Controller_Vars.Test_Marker = BKP_ReadBackupRegister(BKP_DR13);
 106:	2048      	movs	r0, #72
 108:	f7ff fffe 	bl	0 <BKP_ReadBackupRegister>
C:\tien\PROJEKTY\procesory\STM\T104_V100a_GASTOP\sources/gui.c:3691

    if ( Service_Variables.Serv_Vars.Jezyk > NUM_OF_LANG )
 10c:	4b0e      	ldr	r3, [pc, #56]	(148 <Read_Settings+0x148>)
 10e:	4a17      	ldr	r2, [pc, #92]	(16c <Read_Settings+0x16c>)
 110:	7e1b      	ldrb	r3, [r3, #24]
C:\tien\PROJEKTY\procesory\STM\T104_V100a_GASTOP\sources/gui.c:3689
    Controller_Variables.Controller_Vars.Software_Version[2] = 2;//(BKP_ReadBackupRegister(BKP_DR10) & 0xFF00) >> 8;
    Controller_Variables.Controller_Vars.Controller_Date[0] = BKP_ReadBackupRegister(BKP_DR10) & 0x00FF;
    Controller_Variables.Controller_Vars.Controller_Date[1] =(BKP_ReadBackupRegister(BKP_DR11) & 0xFF00) >> 8;
    Controller_Variables.Controller_Vars.Controller_Date[2] = BKP_ReadBackupRegister(BKP_DR11) & 0x00FF;
    Controller_Variables.Controller_Vars.Serial_Number = BKP_ReadBackupRegister(BKP_DR12);
    Controller_Variables.Controller_Vars.Test_Marker = BKP_ReadBackupRegister(BKP_DR13);
 112:	82e0      	strh	r0, [r4, #22]
C:\tien\PROJEKTY\procesory\STM\T104_V100a_GASTOP\sources/gui.c:3691

    if ( Service_Variables.Serv_Vars.Jezyk > NUM_OF_LANG )
 114:	2b01      	cmp	r3, #1
C:\tien\PROJEKTY\procesory\STM\T104_V100a_GASTOP\sources/gui.c:3693
    {
        Language_Num = 0;
 116:	bf8c      	ite	hi
 118:	7016      	strbhi	r6, [r2, #0]
C:\tien\PROJEKTY\procesory\STM\T104_V100a_GASTOP\sources/gui.c:3697
    }
    else
    {
        Language_Num = Service_Variables.Serv_Vars.Jezyk;
 11a:	7013      	strbls	r3, [r2, #0]
C:\tien\PROJEKTY\procesory\STM\T104_V100a_GASTOP\sources/gui.c:3700
    }  

    Controlling_Variables_Set = Controlling_Variables;
 11c:	4e10      	ldr	r6, [pc, #64]	(160 <Read_Settings+0x160>)
 11e:	4b0c      	ldr	r3, [pc, #48]	(150 <Read_Settings+0x150>)
 120:	4635      	mov	r5, r6
 122:	461c      	mov	r4, r3
 124:	cc0f      	ldmia	r4!, {r0, r1, r2, r3}
 126:	c50f      	stmia	r5!, {r0, r1, r2, r3}
 128:	e894 000f 	ldmia.w	r4, {r0, r1, r2, r3}
 12c:	e885 000f 	stmia.w	r5, {r0, r1, r2, r3}
C:\tien\PROJEKTY\procesory\STM\T104_V100a_GASTOP\sources/gui.c:3701
    Service_Variables_Set = Service_Variables;
 130:	4905      	ldr	r1, [pc, #20]	(148 <Read_Settings+0x148>)
 132:	2280      	movs	r2, #128
 134:	480b      	ldr	r0, [pc, #44]	(164 <Read_Settings+0x164>)
 136:	f7ff fffe 	bl	0 <memcpy>
C:\tien\PROJEKTY\procesory\STM\T104_V100a_GASTOP\sources/gui.c:3703

    Stop_Angles_Set();
 13a:	f7ff fffe 	bl	0 <Stop_Angles_Set>
C:\tien\PROJEKTY\procesory\STM\T104_V100a_GASTOP\sources/gui.c:3704
}
 13e:	bd70      	pop	{r4, r5, r6, pc}
 140:	0801fc00 	.word	0x0801fc00
	...
 14c:	0801fc80 	.word	0x0801fc80
	...
 158:	000001a0 	.word	0x000001a0
 15c:	00000220 	.word	0x00000220
	...
Disassembly of section .text.Gui_Init:

00000000 <Gui_Init>:
Gui_Init():
C:\tien\PROJEKTY\procesory\STM\T104_V100a_GASTOP\sources/gui.c:1744
* Input          : None
* Output         : None
* Return         : None
*******************************************************************************/
void Gui_Init ( void )
{
   0:	b510      	push	{r4, lr}
C:\tien\PROJEKTY\procesory\STM\T104_V100a_GASTOP\sources/gui.c:1745
    Read_Settings();
   2:	f7ff fffe 	bl	0 <Gui_Init>
C:\tien\PROJEKTY\procesory\STM\T104_V100a_GASTOP\sources/gui.c:1746
    Update_Lock_Counter ( Lock_Counter );
   6:	4b05      	ldr	r3, [pc, #20]	(1c <Gui_Init+0x1c>)
   8:	8e98      	ldrh	r0, [r3, #52]
   a:	f7ff fffe 	bl	0 <Gui_Init>
C:\tien\PROJEKTY\procesory\STM\T104_V100a_GASTOP\sources/gui.c:1747
    Lock_Init();
   e:	f7ff fffe 	bl	0 <Gui_Init>
C:\tien\PROJEKTY\procesory\STM\T104_V100a_GASTOP\sources/gui.c:1748
    Reload_Screen = TRUE;
  12:	4b03      	ldr	r3, [pc, #12]	(20 <Gui_Init+0x20>)
  14:	2201      	movs	r2, #1
  16:	701a      	strb	r2, [r3, #0]
C:\tien\PROJEKTY\procesory\STM\T104_V100a_GASTOP\sources/gui.c:1749
}
  18:	bd10      	pop	{r4, pc}
  1a:	46c0      	nop			(mov r8, r8)
	...
Disassembly of section .text.Display_On_Screen:

00000000 <Display_On_Screen>:
Display_On_Screen():
C:\tien\PROJEKTY\procesory\STM\T104_V100a_GASTOP\sources/gui.c:1301
* Input          : None
* Output         : None
* Return         : None
*******************************************************************************/
void Display_On_Screen ( void )
{
   0:	e92d 41f3 	stmdb	sp!, {r0, r1, r4, r5, r6, r7, r8, lr}
C:\tien\PROJEKTY\procesory\STM\T104_V100a_GASTOP\sources/gui.c:1314
    _String_Number String_Number;

    const _Strings * Str_Ptr;
    const _Variables * Var_Ptr;

    Str_Ptr = Screen_Lcd[Screen_Number].Screen_Objects->String_Ptr;
   4:	4c77      	ldr	r4, [pc, #476]	(1e4 <Display_On_Screen+0x1e4>)
   6:	4f78      	ldr	r7, [pc, #480]	(1e8 <Display_On_Screen+0x1e8>)
   8:	7823      	ldrb	r3, [r4, #0]
   a:	eb07 03c3 	add.w	r3, r7, r3, lsl #3
   e:	685b      	ldr	r3, [r3, #4]
  10:	681d      	ldr	r5, [r3, #0]
C:\tien\PROJEKTY\procesory\STM\T104_V100a_GASTOP\sources/gui.c:1315
    Var_Ptr = Screen_Lcd[Screen_Number].Screen_Objects->Variable_Ptr;
  12:	689e      	ldr	r6, [r3, #8]
C:\tien\PROJEKTY\procesory\STM\T104_V100a_GASTOP\sources/gui.c:1318

/******************************Displaying strings*****************************/
    if ( Reload_Screen == TRUE )
  14:	4b75      	ldr	r3, [pc, #468]	(1ec <Display_On_Screen+0x1ec>)
  16:	781b      	ldrb	r3, [r3, #0]
  18:	2b01      	cmp	r3, #1
  1a:	f040 8148 	bne.w	2ae <Display_On_Screen+0x2ae>
C:\tien\PROJEKTY\procesory\STM\T104_V100a_GASTOP\sources/gui.c:1320
    {
        Lcd_Clear_Buffer ( &Lcd_Buffer );
  1e:	4874      	ldr	r0, [pc, #464]	(1d4 <Lcd_Clear_Buffer+0x1d4>)
  20:	f7ff fffe 	bl	0 <Lcd_Clear_Buffer>
C:\tien\PROJEKTY\procesory\STM\T104_V100a_GASTOP\sources/gui.c:1322

        if ( Str_Ptr != NULL )
  24:	b31d      	cbz	r5, 6e <Display_On_Screen+0x6e>
C:\tien\PROJEKTY\procesory\STM\T104_V100a_GASTOP\sources/gui.c:1324
        {
            if ( Screen_Lcd[Screen_Number].Screen_Objects->String_Mask == NULL )
  26:	7823      	ldrb	r3, [r4, #0]
  28:	4c72      	ldr	r4, [pc, #456]	(1f4 <Display_On_Screen+0x1f4>)
  2a:	eb07 03c3 	add.w	r3, r7, r3, lsl #3
  2e:	685b      	ldr	r3, [r3, #4]
  30:	68db      	ldr	r3, [r3, #12]
  32:	b90b      	cbnz	r3, 38 <Display_On_Screen+0x38>
C:\tien\PROJEKTY\procesory\STM\T104_V100a_GASTOP\sources/gui.c:1326
            {
                Mask_Shift_Reg = 0xffffffff;
  34:	3b01      	subs	r3, #1
  36:	e000      	b.n	3a <Display_On_Screen+0x3a>
C:\tien\PROJEKTY\procesory\STM\T104_V100a_GASTOP\sources/gui.c:1330
            }
            else
            {
                Mask_Shift_Reg = *Screen_Lcd[Screen_Number].Screen_Objects->String_Mask;
  38:	681b      	ldr	r3, [r3, #0]
  3a:	63a3      	str	r3, [r4, #56]
C:\tien\PROJEKTY\procesory\STM\T104_V100a_GASTOP\sources/gui.c:1335
            }

            while ( Str_Ptr != NULL )
            {
                Lcd_Set_Address (Str_Ptr->String_X_Pos,Str_Ptr->String_Y_Pos);
  3c:	78a9      	ldrb	r1, [r5, #2]
  3e:	7868      	ldrb	r0, [r5, #1]
  40:	f7ff fffe 	bl	0 <Lcd_Set_Address>
C:\tien\PROJEKTY\procesory\STM\T104_V100a_GASTOP\sources/gui.c:1338
                String_Number = Str_Ptr->String_Num;
 
                if ( Mask_Shift_Reg & ( Mask_Shift_Bit<<Str_Ptr->String_Index ) )
  44:	782a      	ldrb	r2, [r5, #0]
  46:	2301      	movs	r3, #1
  48:	4093      	lsls	r3, r2
  4a:	4a6a      	ldr	r2, [pc, #424]	(1f4 <Display_On_Screen+0x1f4>)
C:\tien\PROJEKTY\procesory\STM\T104_V100a_GASTOP\sources/gui.c:1336
            }

            while ( Str_Ptr != NULL )
            {
                Lcd_Set_Address (Str_Ptr->String_X_Pos,Str_Ptr->String_Y_Pos);
                String_Number = Str_Ptr->String_Num;
  4c:	78e9      	ldrb	r1, [r5, #3]
C:\tien\PROJEKTY\procesory\STM\T104_V100a_GASTOP\sources/gui.c:1338
 
                if ( Mask_Shift_Reg & ( Mask_Shift_Bit<<Str_Ptr->String_Index ) )
  4e:	6b92      	ldr	r2, [r2, #56]
  50:	4213      	tst	r3, r2
  52:	d009      	beq.n	68 <Display_On_Screen+0x68>
C:\tien\PROJEKTY\procesory\STM\T104_V100a_GASTOP\sources/gui.c:1340
                {
                    Lcd_Write_Buffer ( &Lcd_Buffer, *(String_Number+Str_Ptr->Languages_Ptr->Languages_Tab[Language_Num]) );
  54:	4b68      	ldr	r3, [pc, #416]	(1f8 <Display_On_Screen+0x1f8>)
  56:	686a      	ldr	r2, [r5, #4]
  58:	781b      	ldrb	r3, [r3, #0]
  5a:	4865      	ldr	r0, [pc, #404]	(1f0 <Display_On_Screen+0x1f0>)
  5c:	f852 3023 	ldr.w	r3, [r2, r3, lsl #2]
  60:	f853 1021 	ldr.w	r1, [r3, r1, lsl #2]
  64:	f7ff fffe 	bl	0 <Lcd_Write_Buffer>
C:\tien\PROJEKTY\procesory\STM\T104_V100a_GASTOP\sources/gui.c:1343
                }

                Str_Ptr = Str_Ptr->Next_String;
  68:	68ad      	ldr	r5, [r5, #8]
C:\tien\PROJEKTY\procesory\STM\T104_V100a_GASTOP\sources/gui.c:1333
            else
            {
                Mask_Shift_Reg = *Screen_Lcd[Screen_Number].Screen_Objects->String_Mask;
            }

            while ( Str_Ptr != NULL )
  6a:	2d00      	cmp	r5, #0
  6c:	d1e6      	bne.n	3c <Display_On_Screen+0x3c>
C:\tien\PROJEKTY\procesory\STM\T104_V100a_GASTOP\sources/gui.c:1350
        }
/******************************************************************************/

/****************************Displaying menu list******************************/

        if ( Screen_Lcd[Screen_Number].Screen_Objects->Menu_Ptr != NULL )
  6e:	4b5d      	ldr	r3, [pc, #372]	(1e4 <Display_On_Screen+0x1e4>)
  70:	781a      	ldrb	r2, [r3, #0]
  72:	4b5d      	ldr	r3, [pc, #372]	(1e8 <Display_On_Screen+0x1e8>)
  74:	eb03 03c2 	add.w	r3, r3, r2, lsl #3
  78:	685a      	ldr	r2, [r3, #4]
  7a:	6853      	ldr	r3, [r2, #4]
  7c:	2b00      	cmp	r3, #0
  7e:	d06d      	beq.n	15c <Display_On_Screen+0x15c>
C:\tien\PROJEKTY\procesory\STM\T104_V100a_GASTOP\sources/gui.c:1352
        {
            if ( Screen_Lcd[Screen_Number].Screen_Objects->Menu_Mask == NULL )
  80:	6913      	ldr	r3, [r2, #16]
  82:	4c5c      	ldr	r4, [pc, #368]	(1f4 <Display_On_Screen+0x1f4>)
  84:	b90b      	cbnz	r3, 8a <Display_On_Screen+0x8a>
C:\tien\PROJEKTY\procesory\STM\T104_V100a_GASTOP\sources/gui.c:1354
            {
                Mask_Shift_Reg = 0xffffffff;
  86:	3b01      	subs	r3, #1
  88:	e000      	b.n	8c <Display_On_Screen+0x8c>
C:\tien\PROJEKTY\procesory\STM\T104_V100a_GASTOP\sources/gui.c:1358
            }
            else
            {
                Mask_Shift_Reg = *Screen_Lcd[Screen_Number].Screen_Objects->Menu_Mask;
  8a:	681b      	ldr	r3, [r3, #0]
  8c:	63a3      	str	r3, [r4, #56]
C:\tien\PROJEKTY\procesory\STM\T104_V100a_GASTOP\sources/gui.c:1361
            }

            for ( i = 0; i < Screen_Lcd[Screen_Number].Screen_Objects->Menu_Ptr->Lines_On_Screen; i++ )
  8e:	4b59      	ldr	r3, [pc, #356]	(1f4 <Display_On_Screen+0x1f4>)
  90:	2200      	movs	r2, #0
  92:	f883 203c 	strb.w	r2, [r3, #60]
  96:	e02a      	b.n	ee <Display_On_Screen+0xee>
C:\tien\PROJEKTY\procesory\STM\T104_V100a_GASTOP\sources/gui.c:1363
            {
                String_Number = Screen_Lcd[Screen_Number].Screen_Objects->Menu_Ptr->Menu_String_Num[(i+Menu_Keys.First_On_Screen)];
  98:	f895 303c 	ldrb.w	r3, [r5, #60]
  9c:	7c6a      	ldrb	r2, [r5, #17]
  9e:	18c3      	adds	r3, r0, r3
  a0:	189b      	adds	r3, r3, r2
  a2:	7a1c      	ldrb	r4, [r3, #8]
C:\tien\PROJEKTY\procesory\STM\T104_V100a_GASTOP\sources/gui.c:1365

                Lcd_Set_Address( Screen_Lcd[Screen_Number].Screen_Objects->Menu_Ptr->Menu_X_Pos, Screen_Lcd[Screen_Number].Screen_Objects->Menu_Ptr->Menu_Y_Pos + i);
  a4:	f895 103c 	ldrb.w	r1, [r5, #60]
  a8:	7843      	ldrb	r3, [r0, #1]
  aa:	7800      	ldrb	r0, [r0, #0]
  ac:	18c9      	adds	r1, r1, r3
  ae:	b2c9      	uxtb	r1, r1
  b0:	f7ff fffe 	bl	0 <Lcd_Set_Address>
C:\tien\PROJEKTY\procesory\STM\T104_V100a_GASTOP\sources/gui.c:1367

                if ( Mask_Shift_Reg & ( Mask_Shift_Bit<<i ) )
  b4:	f895 203c 	ldrb.w	r2, [r5, #60]
  b8:	2301      	movs	r3, #1
  ba:	4093      	lsls	r3, r2
  bc:	6baa      	ldr	r2, [r5, #56]
  be:	4213      	tst	r3, r2
  c0:	d00e      	beq.n	e0 <Display_On_Screen+0xe0>
C:\tien\PROJEKTY\procesory\STM\T104_V100a_GASTOP\sources/gui.c:1369
                {
                    Lcd_Write_Buffer ( &Lcd_Buffer, *(String_Number+Screen_Lcd[Screen_Number].Screen_Objects->Menu_Ptr->Languages_Ptr->Languages_Tab[Language_Num]) );
  c2:	783b      	ldrb	r3, [r7, #0]
  c4:	484a      	ldr	r0, [pc, #296]	(1f0 <Display_On_Screen+0x1f0>)
  c6:	eb08 03c3 	add.w	r3, r8, r3, lsl #3
  ca:	685b      	ldr	r3, [r3, #4]
  cc:	685b      	ldr	r3, [r3, #4]
  ce:	685a      	ldr	r2, [r3, #4]
  d0:	4b49      	ldr	r3, [pc, #292]	(1f8 <Display_On_Screen+0x1f8>)
  d2:	781b      	ldrb	r3, [r3, #0]
  d4:	f852 3023 	ldr.w	r3, [r2, r3, lsl #2]
  d8:	f853 1024 	ldr.w	r1, [r3, r4, lsl #2]
  dc:	f7ff fffe 	bl	0 <Lcd_Write_Buffer>
C:\tien\PROJEKTY\procesory\STM\T104_V100a_GASTOP\sources/gui.c:1361
            else
            {
                Mask_Shift_Reg = *Screen_Lcd[Screen_Number].Screen_Objects->Menu_Mask;
            }

            for ( i = 0; i < Screen_Lcd[Screen_Number].Screen_Objects->Menu_Ptr->Lines_On_Screen; i++ )
  e0:	4a44      	ldr	r2, [pc, #272]	(1f4 <Display_On_Screen+0x1f4>)
  e2:	f892 303c 	ldrb.w	r3, [r2, #60]
  e6:	3301      	adds	r3, #1
  e8:	b2db      	uxtb	r3, r3
  ea:	f882 303c 	strb.w	r3, [r2, #60]
  ee:	4f3d      	ldr	r7, [pc, #244]	(1e4 <Display_On_Screen+0x1e4>)
  f0:	f8df 80f4 	ldr.w	r8, [pc, #244]	; 1e8 <Display_On_Screen+0x1e8>
  f4:	783b      	ldrb	r3, [r7, #0]
  f6:	4d3f      	ldr	r5, [pc, #252]	(1f4 <Display_On_Screen+0x1f4>)
  f8:	eb08 03c3 	add.w	r3, r8, r3, lsl #3
  fc:	685b      	ldr	r3, [r3, #4]
  fe:	f895 203c 	ldrb.w	r2, [r5, #60]
 102:	6858      	ldr	r0, [r3, #4]
 104:	7883      	ldrb	r3, [r0, #2]
 106:	4293      	cmp	r3, r2
 108:	d8c6      	bhi.n	98 <Display_On_Screen+0x98>
C:\tien\PROJEKTY\procesory\STM\T104_V100a_GASTOP\sources/gui.c:1373
                {
                    Lcd_Write_Buffer ( &Lcd_Buffer, *(String_Number+Screen_Lcd[Screen_Number].Screen_Objects->Menu_Ptr->Languages_Ptr->Languages_Tab[Language_Num]) );
                }
            }
            String_Number = St_R;
            Lcd_Set_Address ( 0, Menu_Keys.Active_On_Screen+1);
 10a:	7ce9      	ldrb	r1, [r5, #19]
 10c:	2000      	movs	r0, #0
 10e:	3101      	adds	r1, #1
 110:	b2c9      	uxtb	r1, r1
 112:	f7ff fffe 	bl	0 <Lcd_Set_Address>
C:\tien\PROJEKTY\procesory\STM\T104_V100a_GASTOP\sources/gui.c:1374
            Lcd_Write_Buffer ( &Lcd_Buffer, *(String_Number+Screen_Lcd[Screen_Number].Screen_Objects->Menu_Ptr->Languages_Ptr->Languages_Tab[Language_Num]) );
 116:	783b      	ldrb	r3, [r7, #0]
 118:	4c37      	ldr	r4, [pc, #220]	(1f8 <Display_On_Screen+0x1f8>)
 11a:	eb08 03c3 	add.w	r3, r8, r3, lsl #3
 11e:	685b      	ldr	r3, [r3, #4]
 120:	4833      	ldr	r0, [pc, #204]	(1f0 <Display_On_Screen+0x1f0>)
 122:	685b      	ldr	r3, [r3, #4]
 124:	685a      	ldr	r2, [r3, #4]
 126:	7823      	ldrb	r3, [r4, #0]
 128:	f852 3023 	ldr.w	r3, [r2, r3, lsl #2]
 12c:	f8d3 10d8 	ldr.w	r1, [r3, #216]
 130:	f7ff fffe 	bl	0 <Lcd_Write_Buffer>
C:\tien\PROJEKTY\procesory\STM\T104_V100a_GASTOP\sources/gui.c:1376
            String_Number = St_L;
            Lcd_Set_Address ( 19, Menu_Keys.Active_On_Screen+1);
 134:	7ce9      	ldrb	r1, [r5, #19]
 136:	2013      	movs	r0, #19
 138:	3101      	adds	r1, #1
 13a:	b2c9      	uxtb	r1, r1
 13c:	f7ff fffe 	bl	0 <Lcd_Set_Address>
C:\tien\PROJEKTY\procesory\STM\T104_V100a_GASTOP\sources/gui.c:1377
            Lcd_Write_Buffer ( &Lcd_Buffer, *(String_Number+Screen_Lcd[Screen_Number].Screen_Objects->Menu_Ptr->Languages_Ptr->Languages_Tab[Language_Num]) );
 140:	783b      	ldrb	r3, [r7, #0]
 142:	482b      	ldr	r0, [pc, #172]	(1f0 <Display_On_Screen+0x1f0>)
 144:	eb08 03c3 	add.w	r3, r8, r3, lsl #3
 148:	685b      	ldr	r3, [r3, #4]
 14a:	685b      	ldr	r3, [r3, #4]
 14c:	685a      	ldr	r2, [r3, #4]
 14e:	7823      	ldrb	r3, [r4, #0]
 150:	f852 3023 	ldr.w	r3, [r2, r3, lsl #2]
 154:	f8d3 10dc 	ldr.w	r1, [r3, #220]
 158:	f7ff fffe 	bl	0 <Lcd_Write_Buffer>
C:\tien\PROJEKTY\procesory\STM\T104_V100a_GASTOP\sources/gui.c:1384
        }

/******************************************************************************/

/****************************Displaying Variables******************************/
        if ( Var_Ptr != NULL )
 15c:	2e00      	cmp	r6, #0
 15e:	f000 809b 	beq.w	298 <Display_On_Screen+0x298>
C:\tien\PROJEKTY\procesory\STM\T104_V100a_GASTOP\sources/gui.c:1386
        {
            if ( Screen_Lcd[Screen_Number].Screen_Objects->Variable_Mask == NULL )
 162:	4b20      	ldr	r3, [pc, #128]	(1e4 <Display_On_Screen+0x1e4>)
 164:	4c23      	ldr	r4, [pc, #140]	(1f4 <Display_On_Screen+0x1f4>)
 166:	781a      	ldrb	r2, [r3, #0]
 168:	4b1f      	ldr	r3, [pc, #124]	(1e8 <Display_On_Screen+0x1e8>)
 16a:	eb03 03c2 	add.w	r3, r3, r2, lsl #3
 16e:	685b      	ldr	r3, [r3, #4]
 170:	695b      	ldr	r3, [r3, #20]
 172:	b90b      	cbnz	r3, 178 <Display_On_Screen+0x178>
C:\tien\PROJEKTY\procesory\STM\T104_V100a_GASTOP\sources/gui.c:1388
            {
                Mask_Shift_Reg = 0xffffffff;
 174:	3b01      	subs	r3, #1
 176:	e000      	b.n	17a <Display_On_Screen+0x17a>
C:\tien\PROJEKTY\procesory\STM\T104_V100a_GASTOP\sources/gui.c:1392
            }
            else
            {
                Mask_Shift_Reg = *Screen_Lcd[Screen_Number].Screen_Objects->Variable_Mask;
 178:	681b      	ldr	r3, [r3, #0]
 17a:	63a3      	str	r3, [r4, #56]
C:\tien\PROJEKTY\procesory\STM\T104_V100a_GASTOP\sources/gui.c:1397
            }
 
            while ( Var_Ptr != NULL )
            {
                Lcd_Set_Address ( Var_Ptr->Variable_X_Pos, Var_Ptr->Variable_Y_Pos);
 17c:	7870      	ldrb	r0, [r6, #1]
 17e:	78b1      	ldrb	r1, [r6, #2]
 180:	f7ff fffe 	bl	0 <Lcd_Set_Address>
C:\tien\PROJEKTY\procesory\STM\T104_V100a_GASTOP\sources/gui.c:1399
           
                if ( Var_Ptr->Var_Param_Ptr->Variable_Type == TEXT_VAR )
 184:	68f4      	ldr	r4, [r6, #12]
 186:	7820      	ldrb	r0, [r4, #0]
 188:	b960      	cbnz	r0, 1a4 <Display_On_Screen+0x1a4>
C:\tien\PROJEKTY\procesory\STM\T104_V100a_GASTOP\sources/gui.c:1406
                    if ( String_Number > STRINGS_COUNT )
                    {
                        String_Number = STRINGS_COUNT;  
                    }                
                    String_Number = Var_Ptr->Var_Param_Ptr->Variable_String_Num[*(uint8_t *)(Var_Ptr->Var_Ptr)];
                    Lcd_Write_Buffer ( &Lcd_Buffer, *(String_Number+Var_Ptr->Languages_Ptr->Languages_Tab[Language_Num]) );
 18a:	4b1b      	ldr	r3, [pc, #108]	(1f8 <Display_On_Screen+0x1f8>)
 18c:	6930      	ldr	r0, [r6, #16]
 18e:	7819      	ldrb	r1, [r3, #0]
 190:	6873      	ldr	r3, [r6, #4]
 192:	781b      	ldrb	r3, [r3, #0]
 194:	18e3      	adds	r3, r4, r3
 196:	791a      	ldrb	r2, [r3, #4]
 198:	f850 3021 	ldr.w	r3, [r0, r1, lsl #2]
 19c:	4814      	ldr	r0, [pc, #80]	(1f0 <Display_On_Screen+0x1f0>)
 19e:	f853 1022 	ldr.w	r1, [r3, r2, lsl #2]
 1a2:	e03a      	b.n	21a <Display_On_Screen+0x21a>
C:\tien\PROJEKTY\procesory\STM\T104_V100a_GASTOP\sources/gui.c:1411
 
                }
                else
                {
                    if ( Mask_Shift_Reg & ( Mask_Shift_Bit<<Var_Ptr->Variable_Index ) )
 1a4:	7833      	ldrb	r3, [r6, #0]
 1a6:	2201      	movs	r2, #1
 1a8:	409a      	lsls	r2, r3
 1aa:	4912      	ldr	r1, [pc, #72]	(1f4 <Display_On_Screen+0x1f4>)
 1ac:	6b8b      	ldr	r3, [r1, #56]
 1ae:	421a      	tst	r2, r3
 1b0:	d035      	beq.n	21e <Display_On_Screen+0x21e>
C:\tien\PROJEKTY\procesory\STM\T104_V100a_GASTOP\sources/gui.c:1413
                    {
                        if ( Var_Ptr->Var_Param_Ptr->Variable_Type == DIGITS_VAR )
 1b2:	2801      	cmp	r0, #1
 1b4:	d12f      	bne.n	216 <Display_On_Screen+0x216>
C:\tien\PROJEKTY\procesory\STM\T104_V100a_GASTOP\sources/gui.c:1415
                        {
                            switch ( Var_Ptr->Var_Param_Ptr->Variable_Size )
 1b6:	7863      	ldrb	r3, [r4, #1]
 1b8:	2b05      	cmp	r3, #5
 1ba:	d822      	bhi.n	202 <Display_On_Screen+0x202>
 1bc:	e8df f003 	tbb	[pc, r3]
 1c0:	091e0603 	.word	0x091e0603
 1c4:	1e0d      	.short	0x1e0d
C:\tien\PROJEKTY\procesory\STM\T104_V100a_GASTOP\sources/gui.c:1418
                            {
                            case VAR_U8:
                                Digit_Conv = *(uint8_t*)Var_Ptr->Var_Ptr;//Bin2String ( *(uint8_t*)Var_Ptr->Var_Ptr, Variable_Tab, Var_Ptr->Var_Param_Ptr->Variable_Digits_Count, Var_Ptr->Var_Param_Ptr->Variable_Resolution, Var_Ptr->Var_Param_Ptr->Variable_Hide_Zeros );
 1c6:	6873      	ldr	r3, [r6, #4]
 1c8:	781b      	ldrb	r3, [r3, #0]
 1ca:	e019      	b.n	200 <Display_On_Screen+0x200>
C:\tien\PROJEKTY\procesory\STM\T104_V100a_GASTOP\sources/gui.c:1422
                            break;

                            case VAR_U16:
                                Digit_Conv = *(uint16_t*)Var_Ptr->Var_Ptr;//Bin2String ( *(uint16_t*)Var_Ptr->Var_Ptr, Variable_Tab, Var_Ptr->Var_Param_Ptr->Variable_Digits_Count, Var_Ptr->Var_Param_Ptr->Variable_Resolution, Var_Ptr->Var_Param_Ptr->Variable_Hide_Zeros );
 1cc:	6873      	ldr	r3, [r6, #4]
 1ce:	881b      	ldrh	r3, [r3, #0]
 1d0:	e016      	b.n	200 <Display_On_Screen+0x200>
C:\tien\PROJEKTY\procesory\STM\T104_V100a_GASTOP\sources/gui.c:1430
                            case VAR_U32:
                                Digit_Conv = *(uint32_t*)Var_Ptr->Var_Ptr;//Bin2String ( *(uint32_t*)Var_Ptr->Var_Ptr, Variable_Tab, Var_Ptr->Var_Param_Ptr->Variable_Digits_Count, Var_Ptr->Var_Param_Ptr->Variable_Resolution, Var_Ptr->Var_Param_Ptr->Variable_Hide_Zeros );
                            break;
  
                            case VAR_S8:
                                Digit_Conv = *(int8_t*)Var_Ptr->Var_Ptr;//Bin2String ( *(int8_t*)Var_Ptr->Var_Ptr, Variable_Tab, Var_Ptr->Var_Param_Ptr->Variable_Digits_Count, Var_Ptr->Var_Param_Ptr->Variable_Resolution, Var_Ptr->Var_Param_Ptr->Variable_Hide_Zeros );
 1d2:	6873      	ldr	r3, [r6, #4]
 1d4:	f993 3000 	ldrsb.w	r3, [r3]
 1d8:	e012      	b.n	200 <Display_On_Screen+0x200>
C:\tien\PROJEKTY\procesory\STM\T104_V100a_GASTOP\sources/gui.c:1434
                            break;

                            case VAR_S16:
                                Digit_Conv = *(int16_t*)Var_Ptr->Var_Ptr;//Bin2String ( *(int16_t*)Var_Ptr->Var_Ptr, Variable_Tab, Var_Ptr->Var_Param_Ptr->Variable_Digits_Count, Var_Ptr->Var_Param_Ptr->Variable_Resolution, Var_Ptr->Var_Param_Ptr->Variable_Hide_Zeros );
 1da:	6873      	ldr	r3, [r6, #4]
 1dc:	f9b3 3000 	ldrsh.w	r3, [r3]
 1e0:	e00e      	b.n	200 <Display_On_Screen+0x200>
 1e2:	46c0      	nop			(mov r8, r8)
	...
C:\tien\PROJEKTY\procesory\STM\T104_V100a_GASTOP\sources/gui.c:1438
                            break;

                            case VAR_S32:
                                Digit_Conv = *(int32_t*)Var_Ptr->Var_Ptr;//Bin2String ( *(int32_t*)Var_Ptr->Var_Ptr, Variable_Tab, Var_Ptr->Var_Param_Ptr->Variable_Digits_Count, Var_Ptr->Var_Param_Ptr->Variable_Resolution, Var_Ptr->Var_Param_Ptr->Variable_Hide_Zeros );
 1fc:	6873      	ldr	r3, [r6, #4]
 1fe:	681b      	ldr	r3, [r3, #0]
 200:	640b      	str	r3, [r1, #64]
C:\tien\PROJEKTY\procesory\STM\T104_V100a_GASTOP\sources/gui.c:1442
                            break;
                            }

                            Bin2String ( Digit_Conv, Variable_Tab, Var_Ptr->Var_Param_Ptr->Variable_Digits_Count, Var_Ptr->Var_Param_Ptr->Variable_Resolution, Var_Ptr->Var_Param_Ptr->Variable_Hide_Zeros );
 202:	68f0      	ldr	r0, [r6, #12]
 204:	493a      	ldr	r1, [pc, #232]	(2f0 <Display_On_Screen+0x2f0>)
 206:	7882      	ldrb	r2, [r0, #2]
 208:	78c3      	ldrb	r3, [r0, #3]
 20a:	7b00      	ldrb	r0, [r0, #12]
 20c:	9000      	str	r0, [sp, #0]
 20e:	6c08      	ldr	r0, [r1, #64]
 210:	3144      	adds	r1, #68
 212:	f7ff fffe 	bl	0 <Display_On_Screen>
C:\tien\PROJEKTY\procesory\STM\T104_V100a_GASTOP\sources/gui.c:1445
                        }
                    
                        Lcd_Write_Buffer ( &Lcd_Buffer, Variable_Tab);
 216:	4837      	ldr	r0, [pc, #220]	(2f4 <Display_On_Screen+0x2f4>)
 218:	4937      	ldr	r1, [pc, #220]	(2f8 <Display_On_Screen+0x2f8>)
 21a:	f7ff fffe 	bl	0 <Lcd_Write_Buffer>
C:\tien\PROJEKTY\procesory\STM\T104_V100a_GASTOP\sources/gui.c:1449
                    }
                }       

                if ( Variable_Editing_Ptr != NULL )
 21e:	4d37      	ldr	r5, [pc, #220]	(2fc <Display_On_Screen+0x2fc>)
 220:	4c33      	ldr	r4, [pc, #204]	(2f0 <Display_On_Screen+0x2f0>)
 222:	682b      	ldr	r3, [r5, #0]
 224:	2b00      	cmp	r3, #0
 226:	d031      	beq.n	28c <Display_On_Screen+0x28c>
C:\tien\PROJEKTY\procesory\STM\T104_V100a_GASTOP\sources/gui.c:1452
                {
                   String_Number = St_R;
                   Lcd_Set_Address ( (Variable_Editing_Ptr->Variable_X_Pos)-1, Variable_Editing_Ptr->Variable_Y_Pos);
 228:	7858      	ldrb	r0, [r3, #1]
 22a:	7899      	ldrb	r1, [r3, #2]
 22c:	3801      	subs	r0, #1
 22e:	b2c0      	uxtb	r0, r0
 230:	f7ff fffe 	bl	0 <Lcd_Set_Address>
C:\tien\PROJEKTY\procesory\STM\T104_V100a_GASTOP\sources/gui.c:1453
                   Lcd_Write_Buffer ( &Lcd_Buffer, *(String_Number+Var_Ptr->Languages_Ptr->Languages_Tab[Language_Num]) );
 234:	4b32      	ldr	r3, [pc, #200]	(300 <Display_On_Screen+0x300>)
 236:	6932      	ldr	r2, [r6, #16]
 238:	781b      	ldrb	r3, [r3, #0]
 23a:	482e      	ldr	r0, [pc, #184]	(2f4 <Display_On_Screen+0x2f4>)
 23c:	f852 3023 	ldr.w	r3, [r2, r3, lsl #2]
 240:	f8d3 10d8 	ldr.w	r1, [r3, #216]
 244:	f7ff fffe 	bl	0 <Lcd_Write_Buffer>
C:\tien\PROJEKTY\procesory\STM\T104_V100a_GASTOP\sources/gui.c:1455

                   i = Variable_Editing_Ptr->Variable_X_Pos+(Variable_Editing_Ptr->Var_Param_Ptr->Variable_Digits_Count-1)-Count_Add;
 248:	6828      	ldr	r0, [r5, #0]
 24a:	68c2      	ldr	r2, [r0, #12]
 24c:	7843      	ldrb	r3, [r0, #1]
 24e:	7892      	ldrb	r2, [r2, #2]
 250:	189b      	adds	r3, r3, r2
 252:	4a2c      	ldr	r2, [pc, #176]	(304 <Display_On_Screen+0x304>)
 254:	3b01      	subs	r3, #1
 256:	7812      	ldrb	r2, [r2, #0]
 258:	1a9b      	subs	r3, r3, r2
 25a:	b2db      	uxtb	r3, r3
 25c:	f884 303c 	strb.w	r3, [r4, #60]
C:\tien\PROJEKTY\procesory\STM\T104_V100a_GASTOP\sources/gui.c:1457

                   if ( Variable_Editing_Ptr->Var_Param_Ptr->Variable_Resolution != 0 )
 260:	68c3      	ldr	r3, [r0, #12]
 262:	78db      	ldrb	r3, [r3, #3]
 264:	b13b      	cbz	r3, 276 <Display_On_Screen+0x276>
C:\tien\PROJEKTY\procesory\STM\T104_V100a_GASTOP\sources/gui.c:1459
                   {
                       if ( Count_Add < Variable_Editing_Ptr->Var_Param_Ptr->Variable_Resolution )
 266:	429a      	cmp	r2, r3
 268:	d205      	bcs.n	276 <Display_On_Screen+0x276>
C:\tien\PROJEKTY\procesory\STM\T104_V100a_GASTOP\sources/gui.c:1461
                       {
                           i++;
 26a:	f894 303c 	ldrb.w	r3, [r4, #60]
 26e:	3301      	adds	r3, #1
 270:	b2db      	uxtb	r3, r3
 272:	f884 303c 	strb.w	r3, [r4, #60]
C:\tien\PROJEKTY\procesory\STM\T104_V100a_GASTOP\sources/gui.c:1465
                       }    
                   }
               
                   Object_Pos_Temp.Object_X_Pos = i;
 276:	491e      	ldr	r1, [pc, #120]	(2f0 <Display_On_Screen+0x2f0>)
 278:	4a23      	ldr	r2, [pc, #140]	(308 <Display_On_Screen+0x308>)
 27a:	f891 303c 	ldrb.w	r3, [r1, #60]
 27e:	7013      	strb	r3, [r2, #0]
C:\tien\PROJEKTY\procesory\STM\T104_V100a_GASTOP\sources/gui.c:1466
                   Object_Pos_Temp.Object_Y_Pos = Variable_Editing_Ptr->Variable_Y_Pos;
 280:	7883      	ldrb	r3, [r0, #2]
 282:	7053      	strb	r3, [r2, #1]
C:\tien\PROJEKTY\procesory\STM\T104_V100a_GASTOP\sources/gui.c:1467
                   Var_Underline = TRUE;    
 284:	2301      	movs	r3, #1
 286:	f881 304f 	strb.w	r3, [r1, #79]
 28a:	e001      	b.n	290 <Display_On_Screen+0x290>
C:\tien\PROJEKTY\procesory\STM\T104_V100a_GASTOP\sources/gui.c:1471
                }
                else
                {
                    Var_Underline = FALSE;
 28c:	f884 304f 	strb.w	r3, [r4, #79]
C:\tien\PROJEKTY\procesory\STM\T104_V100a_GASTOP\sources/gui.c:1474
                }

                Var_Ptr = Var_Ptr->Next_Variable;
 290:	6976      	ldr	r6, [r6, #20]
C:\tien\PROJEKTY\procesory\STM\T104_V100a_GASTOP\sources/gui.c:1395
            else
            {
                Mask_Shift_Reg = *Screen_Lcd[Screen_Number].Screen_Objects->Variable_Mask;
            }
 
            while ( Var_Ptr != NULL )
 292:	2e00      	cmp	r6, #0
 294:	f47f af72 	bne.w	17c <Display_On_Screen+0x17c>
C:\tien\PROJEKTY\procesory\STM\T104_V100a_GASTOP\sources/gui.c:1478

                Var_Ptr = Var_Ptr->Next_Variable;
            };
        }
/******************************************************************************/
        Reload_Screen = FALSE;
 298:	4b1c      	ldr	r3, [pc, #112]	(30c <Display_On_Screen+0x30c>)
 29a:	2200      	movs	r2, #0
C:\tien\PROJEKTY\procesory\STM\T104_V100a_GASTOP\sources/gui.c:1480

        Enable_Lcd_Write = TRUE;
 29c:	4914      	ldr	r1, [pc, #80]	(2f0 <Display_On_Screen+0x2f0>)
C:\tien\PROJEKTY\procesory\STM\T104_V100a_GASTOP\sources/gui.c:1478

                Var_Ptr = Var_Ptr->Next_Variable;
            };
        }
/******************************************************************************/
        Reload_Screen = FALSE;
 29e:	701a      	strb	r2, [r3, #0]
C:\tien\PROJEKTY\procesory\STM\T104_V100a_GASTOP\sources/gui.c:1480

        Enable_Lcd_Write = TRUE;
 2a0:	2301      	movs	r3, #1
 2a2:	f881 3050 	strb.w	r3, [r1, #80]
C:\tien\PROJEKTY\procesory\STM\T104_V100a_GASTOP\sources/gui.c:1482
        Lcd_Write_Strobe = FALSE;
        Lcd_Write_Ptr = 0;
 2a6:	4b1a      	ldr	r3, [pc, #104]	(310 <Display_On_Screen+0x310>)
C:\tien\PROJEKTY\procesory\STM\T104_V100a_GASTOP\sources/gui.c:1481
        }
/******************************************************************************/
        Reload_Screen = FALSE;

        Enable_Lcd_Write = TRUE;
        Lcd_Write_Strobe = FALSE;
 2a8:	f881 2051 	strb.w	r2, [r1, #81]
C:\tien\PROJEKTY\procesory\STM\T104_V100a_GASTOP\sources/gui.c:1482
        Lcd_Write_Ptr = 0;
 2ac:	701a      	strb	r2, [r3, #0]
C:\tien\PROJEKTY\procesory\STM\T104_V100a_GASTOP\sources/gui.c:1485
    }

    if ( Enable_Lcd_Write == TRUE )
 2ae:	4b10      	ldr	r3, [pc, #64]	(2f0 <Display_On_Screen+0x2f0>)
 2b0:	f893 3050 	ldrb.w	r3, [r3, #80]
 2b4:	2b01      	cmp	r3, #1
 2b6:	d102      	bne.n	2be <Display_On_Screen+0x2be>
C:\tien\PROJEKTY\procesory\STM\T104_V100a_GASTOP\sources/gui.c:1487
    {
        Lcd_Load_Buffer ( &Lcd_Buffer );           
 2b8:	480e      	ldr	r0, [pc, #56]	(2f4 <Display_On_Screen+0x2f4>)
 2ba:	f7ff fffe 	bl	0 <Lcd_Load_Buffer>
C:\tien\PROJEKTY\procesory\STM\T104_V100a_GASTOP\sources/gui.c:1490
    }

    if ( Var_Underline == TRUE && Enable_Lcd_Write == FALSE )
 2be:	4c0c      	ldr	r4, [pc, #48]	(2f0 <Display_On_Screen+0x2f0>)
 2c0:	f894 304f 	ldrb.w	r3, [r4, #79]
 2c4:	2b01      	cmp	r3, #1
 2c6:	d110      	bne.n	2ea <Display_On_Screen+0x2ea>
 2c8:	f894 5050 	ldrb.w	r5, [r4, #80]
 2cc:	b96d      	cbnz	r5, 2ea <Display_On_Screen+0x2ea>
C:\tien\PROJEKTY\procesory\STM\T104_V100a_GASTOP\sources/gui.c:1492
    {
        Lcd_Cmd(Lcd_Address_Base[Object_Pos_Temp.Object_Y_Pos]+Object_Pos_Temp.Object_X_Pos);    
 2ce:	490e      	ldr	r1, [pc, #56]	(308 <Display_On_Screen+0x308>)
 2d0:	4b10      	ldr	r3, [pc, #64]	(314 <Display_On_Screen+0x314>)
 2d2:	784a      	ldrb	r2, [r1, #1]
 2d4:	5c98      	ldrb	r0, [r3, r2]
 2d6:	780b      	ldrb	r3, [r1, #0]
 2d8:	18c0      	adds	r0, r0, r3
 2da:	b2c0      	uxtb	r0, r0
 2dc:	f7ff fffe 	bl	0 <Lcd_Cmd>
C:\tien\PROJEKTY\procesory\STM\T104_V100a_GASTOP\sources/gui.c:1494

        Lcd_Cmd ( 0x0E);  
 2e0:	200e      	movs	r0, #14
 2e2:	f7ff fffe 	bl	0 <Lcd_Cmd>
C:\tien\PROJEKTY\procesory\STM\T104_V100a_GASTOP\sources/gui.c:1495
        Var_Underline = FALSE;    
 2e6:	f884 504f 	strb.w	r5, [r4, #79]
C:\tien\PROJEKTY\procesory\STM\T104_V100a_GASTOP\sources/gui.c:1497
    }
}
 2ea:	e8bd 81fc 	ldmia.w	sp!, {r2, r3, r4, r5, r6, r7, r8, pc}
 2ee:	46c0      	nop			(mov r8, r8)
	...
 2f8:	00000044 	.word	0x00000044
	...
Disassembly of section .text.Gui:

00000000 <Gui>:
Gui():
C:\tien\PROJEKTY\procesory\STM\T104_V100a_GASTOP\sources/gui.c:1812
* Input          : None
* Output         : None
* Return         : None
*******************************************************************************/
void Gui ( void )
{
   0:	4942      	ldr	r1, [pc, #264]	(10c <Gui+0x10c>)
   2:	4b43      	ldr	r3, [pc, #268]	(110 <Gui+0x110>)
   4:	780a      	ldrb	r2, [r1, #0]
   6:	b510      	push	{r4, lr}
C:\tien\PROJEKTY\procesory\STM\T104_V100a_GASTOP\sources/gui.c:1816
/**************************************************************/
/**************************************************************/
//Variables handling
    Controller_Variables.Controller_Vars.Machine_State_Var = (uint16_t)Machine_State;
   8:	805a      	strh	r2, [r3, #2]
C:\tien\PROJEKTY\procesory\STM\T104_V100a_GASTOP\sources/gui.c:1822

/**************************************************************/
/**************************************************************/
//Encoder setting -> Machine State
//Ind_Test -> MAchine_State
    if ( Screen_Number == UST_ENKODERA )
   a:	4b42      	ldr	r3, [pc, #264]	(114 <Gui+0x114>)
   c:	781b      	ldrb	r3, [r3, #0]
   e:	2b1d      	cmp	r3, #29
  10:	d101      	bne.n	16 <Gui+0x16>
C:\tien\PROJEKTY\procesory\STM\T104_V100a_GASTOP\sources/gui.c:1824
    {
        Machine_State = HAND_POSITIONING;
  12:	2318      	movs	r3, #24
  14:	700b      	strb	r3, [r1, #0]
C:\tien\PROJEKTY\procesory\STM\T104_V100a_GASTOP\sources/gui.c:1830
    }

/**************************************************************/
/**************************************************************/
//Lock Handling function
    Lock_Handling();
  16:	f7ff fffe 	bl	0 <Gui>
C:\tien\PROJEKTY\procesory\STM\T104_V100a_GASTOP\sources/gui.c:1835

/**************************************************************/
/**************************************************************/
//Keyboard handling function call
    if ( Screen_Lcd[Screen_Number].Keybord_Ptr != NULL )
  1a:	4b3e      	ldr	r3, [pc, #248]	(114 <Gui+0x114>)
  1c:	781a      	ldrb	r2, [r3, #0]
  1e:	4b3e      	ldr	r3, [pc, #248]	(118 <Gui+0x118>)
  20:	f853 3032 	ldr.w	r3, [r3, r2, lsl #3]
  24:	b103      	cbz	r3, 28 <Gui+0x28>
C:\tien\PROJEKTY\procesory\STM\T104_V100a_GASTOP\sources/gui.c:1837
    {
        (*Screen_Lcd[Screen_Number].Keybord_Ptr)();
  26:	4798      	blx	r3
C:\tien\PROJEKTY\procesory\STM\T104_V100a_GASTOP\sources/gui.c:1842
    }
/**************************************************************/
/**************************************************************/
//One second pulse timer reload screen in selected screen
	if ( System_Timer_Check ( &Screen_Reload_Timer.Timer, T_10msec ) == TRUE )
  28:	2101      	movs	r1, #1
  2a:	483c      	ldr	r0, [pc, #240]	(11c <Gui+0x11c>)
  2c:	f7ff fffe 	bl	0 <System_Timer_Check>
  30:	2801      	cmp	r0, #1
  32:	d111      	bne.n	58 <Gui+0x58>
C:\tien\PROJEKTY\procesory\STM\T104_V100a_GASTOP\sources/gui.c:1844
	{
        if ( Screen_Number == UST_ENKODERA || Screen_Number == ODCZYT_SERWISOWY || Screen_Number == TEST_WEWY || Screen_Number == IND_TEST )
  34:	4b37      	ldr	r3, [pc, #220]	(114 <Gui+0x114>)
  36:	781b      	ldrb	r3, [r3, #0]
  38:	2b1d      	cmp	r3, #29
  3a:	d005      	beq.n	48 <Gui+0x48>
  3c:	2b27      	cmp	r3, #39
  3e:	d003      	beq.n	48 <Gui+0x48>
  40:	2b29      	cmp	r3, #41
  42:	d001      	beq.n	48 <Gui+0x48>
  44:	2b28      	cmp	r3, #40
  46:	d102      	bne.n	4e <Gui+0x4e>
C:\tien\PROJEKTY\procesory\STM\T104_V100a_GASTOP\sources/gui.c:1846
        {
            Reload_Screen = TRUE;
  48:	4b35      	ldr	r3, [pc, #212]	(120 <Gui+0x120>)
  4a:	2201      	movs	r2, #1
  4c:	701a      	strb	r2, [r3, #0]
C:\tien\PROJEKTY\procesory\STM\T104_V100a_GASTOP\sources/gui.c:1848
        }
		System_Timer_Setting ( &Screen_Reload_Timer.Timer, SCREEN_RELOAD_TIME, T_10msec );
  4e:	4833      	ldr	r0, [pc, #204]	(11c <Gui+0x11c>)
  50:	2164      	movs	r1, #100
  52:	2201      	movs	r2, #1
  54:	f7ff fffe 	bl	0 <System_Timer_Setting>
C:\tien\PROJEKTY\procesory\STM\T104_V100a_GASTOP\sources/gui.c:1853
	}
/**************************************************************/
/**************************************************************/
//LICENCE STRING MASK HANDLING
    if ( Service_Variables.Serv_Vars.Blokada == 0 )
  58:	4b32      	ldr	r3, [pc, #200]	(124 <Gui+0x124>)
  5a:	4a33      	ldr	r2, [pc, #204]	(128 <Gui+0x128>)
  5c:	7a18      	ldrb	r0, [r3, #8]
  5e:	4933      	ldr	r1, [pc, #204]	(12c <Gui+0x12c>)
  60:	b918      	cbnz	r0, 6a <Gui+0x6a>
C:\tien\PROJEKTY\procesory\STM\T104_V100a_GASTOP\sources/gui.c:1855
    {
        String_Lic_Mask = STRING_LICENCE_LOCKED;
  62:	2377      	movs	r3, #119
  64:	6013      	str	r3, [r2, #0]
C:\tien\PROJEKTY\procesory\STM\T104_V100a_GASTOP\sources/gui.c:1856
        Var_Lic_Mask = VAR_LICENCE_LOCKED;
  66:	2307      	movs	r3, #7
  68:	e002      	b.n	70 <Gui+0x70>
C:\tien\PROJEKTY\procesory\STM\T104_V100a_GASTOP\sources/gui.c:1860
    }
    else
    {
        String_Lic_Mask = STRING_LICENCE_UNLOCKED;
  6a:	230b      	movs	r3, #11
  6c:	6013      	str	r3, [r2, #0]
C:\tien\PROJEKTY\procesory\STM\T104_V100a_GASTOP\sources/gui.c:1861
        Var_Lic_Mask = VAR_LICENCE_UNLOCKED; 
  6e:	2300      	movs	r3, #0
C:\tien\PROJEKTY\procesory\STM\T104_V100a_GASTOP\sources/gui.c:1866
    }
/**************************************************************/
/**************************************************************/
//ENABLE SCREEN STRING MASK HANDLING
    Enable_String_Mask = ENABLE_STRING;
  70:	4a2f      	ldr	r2, [pc, #188]	(130 <Gui+0x130>)
C:\tien\PROJEKTY\procesory\STM\T104_V100a_GASTOP\sources/gui.c:1861
        Var_Lic_Mask = VAR_LICENCE_LOCKED;
    }
    else
    {
        String_Lic_Mask = STRING_LICENCE_UNLOCKED;
        Var_Lic_Mask = VAR_LICENCE_UNLOCKED; 
  72:	600b      	str	r3, [r1, #0]
C:\tien\PROJEKTY\procesory\STM\T104_V100a_GASTOP\sources/gui.c:1866
    }
/**************************************************************/
/**************************************************************/
//ENABLE SCREEN STRING MASK HANDLING
    Enable_String_Mask = ENABLE_STRING;
  74:	f240 13ff 	movw	r3, #511	; 0x1ff
  78:	6013      	str	r3, [r2, #0]
C:\tien\PROJEKTY\procesory\STM\T104_V100a_GASTOP\sources/gui.c:1868

    if ( Service_Variables.Serv_Vars.Sap == 2 )
  7a:	4b2a      	ldr	r3, [pc, #168]	(124 <Gui+0x124>)
  7c:	7e5b      	ldrb	r3, [r3, #25]
  7e:	2b02      	cmp	r3, #2
C:\tien\PROJEKTY\procesory\STM\T104_V100a_GASTOP\sources/gui.c:1870
    {
        Enable_String_Mask &= ~ENABLE_STRING_SAP;    
  80:	bf04      	itt	eq
  82:	f240 13bf 	movweq	r3, #447	; 0x1bf
  86:	6013      	streq	r3, [r2, #0]
C:\tien\PROJEKTY\procesory\STM\T104_V100a_GASTOP\sources/gui.c:1873
    }

    if ( Service_Variables.Serv_Vars.W_wyjscie == 2 && Free_Exit_Marker == 2 )
  88:	4b26      	ldr	r3, [pc, #152]	(124 <Gui+0x124>)
  8a:	7e9b      	ldrb	r3, [r3, #26]
  8c:	2b02      	cmp	r3, #2
  8e:	d108      	bne.n	a2 <Gui+0xa2>
  90:	4b28      	ldr	r3, [pc, #160]	(134 <Gui+0x134>)
  92:	881b      	ldrh	r3, [r3, #0]
  94:	2b02      	cmp	r3, #2
  96:	d104      	bne.n	a2 <Gui+0xa2>
C:\tien\PROJEKTY\procesory\STM\T104_V100a_GASTOP\sources/gui.c:1875
    {
        Enable_String_Mask &= ~ENABLE_STRING_WW;    
  98:	4a25      	ldr	r2, [pc, #148]	(130 <Gui+0x130>)
  9a:	6813      	ldr	r3, [r2, #0]
  9c:	f023 0310 	bic.w	r3, r3, #16	; 0x10
  a0:	6013      	str	r3, [r2, #0]
C:\tien\PROJEKTY\procesory\STM\T104_V100a_GASTOP\sources/gui.c:1878
    }

    if ( Service_Variables.Serv_Vars.Szybkie_wejscie == 1 && Fast_Pass_Marker == 1 )
  a2:	4b20      	ldr	r3, [pc, #128]	(124 <Gui+0x124>)
  a4:	7edb      	ldrb	r3, [r3, #27]
  a6:	2b01      	cmp	r3, #1
  a8:	d108      	bne.n	bc <Gui+0xbc>
  aa:	4b23      	ldr	r3, [pc, #140]	(138 <Gui+0x138>)
  ac:	881b      	ldrh	r3, [r3, #0]
  ae:	2b01      	cmp	r3, #1
  b0:	d104      	bne.n	bc <Gui+0xbc>
C:\tien\PROJEKTY\procesory\STM\T104_V100a_GASTOP\sources/gui.c:1880
    {
        Enable_String_Mask &= ~ENABLE_STRING_SP;    
  b2:	4a1f      	ldr	r2, [pc, #124]	(130 <Gui+0x130>)
  b4:	6813      	ldr	r3, [r2, #0]
  b6:	f023 0320 	bic.w	r3, r3, #32	; 0x20
  ba:	6013      	str	r3, [r2, #0]
C:\tien\PROJEKTY\procesory\STM\T104_V100a_GASTOP\sources/gui.c:1883
    }

    if ( Service_Variables.Serv_Vars.Blokada == 1 )
  bc:	2801      	cmp	r0, #1
  be:	d104      	bne.n	ca <Gui+0xca>
C:\tien\PROJEKTY\procesory\STM\T104_V100a_GASTOP\sources/gui.c:1885
    {
        Enable_String_Mask &= ~ENABLE_STRING_BLO;    
  c0:	4a1b      	ldr	r2, [pc, #108]	(130 <Gui+0x130>)
  c2:	6813      	ldr	r3, [r2, #0]
  c4:	f023 0380 	bic.w	r3, r3, #128	; 0x80
  c8:	6013      	str	r3, [r2, #0]
C:\tien\PROJEKTY\procesory\STM\T104_V100a_GASTOP\sources/gui.c:1888
    }

    if ( Service_Variables.Serv_Vars.Free_Marker_1 == 2 &&
  ca:	4a16      	ldr	r2, [pc, #88]	(124 <Gui+0x124>)
  cc:	f892 304f 	ldrb.w	r3, [r2, #79]
  d0:	2b02      	cmp	r3, #2
  d2:	d110      	bne.n	f6 <Gui+0xf6>
  d4:	f892 3050 	ldrb.w	r3, [r2, #80]
  d8:	2b02      	cmp	r3, #2
  da:	d10c      	bne.n	f6 <Gui+0xf6>
  dc:	f892 3059 	ldrb.w	r3, [r2, #89]
  e0:	2b01      	cmp	r3, #1
  e2:	d108      	bne.n	f6 <Gui+0xf6>
  e4:	f892 305a 	ldrb.w	r3, [r2, #90]
  e8:	2b01      	cmp	r3, #1
  ea:	d104      	bne.n	f6 <Gui+0xf6>
C:\tien\PROJEKTY\procesory\STM\T104_V100a_GASTOP\sources/gui.c:1893
         Service_Variables.Serv_Vars.Free_Marker_2 == 2 &&
         Service_Variables.Serv_Vars.Fast_Marker_1 == 1 &&
         Service_Variables.Serv_Vars.Fast_Marker_2 == 1 )
    {
        Enable_String_Mask &= ~ENABLE_STRING_P;    
  ec:	4a10      	ldr	r2, [pc, #64]	(130 <Gui+0x130>)
  ee:	6813      	ldr	r3, [r2, #0]
  f0:	f423 7380 	bic.w	r3, r3, #256	; 0x100
  f4:	6013      	str	r3, [r2, #0]
C:\tien\PROJEKTY\procesory\STM\T104_V100a_GASTOP\sources/gui.c:1898
    }
/**************************************************************/
/**************************************************************/
//Manual test string mask
    Manual_Test_Mask = 0x00000100 | (uint32_t)Inputs_Level_Test;
  f6:	4b11      	ldr	r3, [pc, #68]	(13c <Gui+0x13c>)
  f8:	4a11      	ldr	r2, [pc, #68]	(140 <Gui+0x140>)
  fa:	881b      	ldrh	r3, [r3, #0]
  fc:	b29b      	uxth	r3, r3
  fe:	f443 7380 	orr.w	r3, r3, #256	; 0x100
 102:	6013      	str	r3, [r2, #0]
C:\tien\PROJEKTY\procesory\STM\T104_V100a_GASTOP\sources/gui.c:1905
/**************************************************************/
/**************************************************************/
/**************************************************************/
//Display on screen function

    Display_On_Screen();
 104:	f7ff fffe 	bl	0 <Gui>
C:\tien\PROJEKTY\procesory\STM\T104_V100a_GASTOP\sources/gui.c:1909
/**************************************************************/
/**************************************************************/
/**************************************************************/
}
 108:	bd10      	pop	{r4, pc}
 10a:	46c0      	nop			(mov r8, r8)
	...
